L251 LINKER/LOCATER V4.66.93.0                                                          04/08/2024  14:48:14  PAGE 1


L251 LINKER/LOCATER V4.66.93.0, INVOKED BY:
C:\KEIL_V5_C251\C251\BIN\L251.EXE .\obj\STARTUP251_RT569MP.obj, .\obj\main.obj, .\obj\rf_task_ctrl.obj, .\obj\intr_rf.ob
>> j, .\obj\sys_init.obj, .\obj\sys_task.obj, .\obj\isr_hdlr.obj, .\obj\sys_ctrl.obj, .\obj\sys_mem.obj, .\obj\sys_mem2.
>> obj, .\obj\sys_qctrl.obj, .\obj\sys_rtc.obj, .\obj\common_isr.obj, .\obj\common_cmd_hdlr.obj, .\obj\common_event_gen.
>> obj, .\obj\common_feature.obj, .\obj\bmu.obj, .\obj\bmu_cmd.obj, .\obj\bmu_common.obj, .\obj\bmu_rx.obj, .\obj\bmu_tx
>> .obj, .\obj\bmu_ble.obj, .\obj\mac.obj, .\obj\mac_frame_parse.obj, .\obj\mac_isr.obj, .\obj\mac_cmd_hdlr.obj, .\obj\m
>> ac_task_ctrl.obj, .\obj\ruci_data_parse.obj, .\obj\mac_event_gen.obj, .\obj\mac_RaaSchedule.obj, .\obj\mac_TarSchedul
>> e.obj, .\obj\mac_cad.obj, .\obj\mac_scheduler.obj, .\obj\mac_RfeRx.obj, .\obj\mac_RfeTx.obj, .\obj\mac_DtmRx.obj, .\o
>> bj\mac_DtmTx.obj, .\obj\mac_htrp_control.obj, .\obj\mac_htrp_rx.obj, .\obj\mac_htrp_tx.obj, .\obj\mac_srcmatch.obj, .
>> \obj\mac_rx_scan.obj, .\obj\msg_ctrl.obj, .\obj\hal.obj, .\obj\hal_cfg.obj, .\obj\hal_mac.obj, .\obj\hal_para.obj, .\
>> obj\hal_phy.obj, .\obj\hal_pkt.obj, .\obj\hal_rf.obj, .\obj\hal_rfdb.obj, .\obj\hal_sec.obj, .\obj\hal_rfk.obj, .\obj
>> \hal_io.obj, .\obj\hal_init.obj, .\obj\hal_patch.obj, .\obj\hal_prtcl.obj, .\obj\hal_rt569mp_init.obj, .\obj\rt569mp_
>> mem.obj, .\obj\rt569mp_reg.obj, .\obj\hal_rt569mp_rfk.obj, .\obj\hal_rt569mp_rf.obj, .\obj\hal_rt569mp_tcon.obj, .\ob
>> j\hal_rt569mp_para.obj, .\obj\hal_rt569mp_pmu.obj, .\obj\Ruci.obj, .\obj\Ruci_Pci15p4MacCmd.obj, .\obj\Ruci_PciBleCmd
>> .obj, .\obj\Ruci_PciCommonCmd.obj, .\obj\Ruci_PciData.obj, .\obj\Ruci_PciEvent.obj, .\obj\Ruci_PciFskCmd.obj, .\obj\R
>> uci_PciOqpskCmd.obj, .\obj\Ruci_PciSlinkCmd.obj, .\obj\Ruci_CmnEvent.obj, .\obj\Ruci_CmnHalCmd.obj, .\obj\Ruci_CmnSys
>> Cmd.obj TO .\obj\RT569 NOOVERLAY REMOVEUNUSED CLASSES (DATA (0X0000-0X007F), IDATA (0X0080-0X0090), EDATA (0XA000-0XB
>> FFF), CODE (0XFF0000-0XFFFFFF), ECODE (0XFF0000-0XFFFFFF), HCONST (0XFF0000-0XFFFFFF))


CPU MODE:     251 SOURCE MODE
INTR FRAME:   4 BYTES SAVED ON INTERRUPT
MEMORY MODEL: XTINY [HUGE PTR]


INPUT MODULES INCLUDED:
  .\obj\STARTUP251_RT569MP.obj (?C_START)
         COMMENT TYPE 0: A251 V4.69.13.0
  .\obj\main.obj (main)
         COMMENT TYPE 0: C251 V5.60.0
  .\obj\rf_task_ctrl.obj (rf_task_ctrl)
         COMMENT TYPE 0: C251 V5.60.0
  .\obj\intr_rf.obj (intr_rf)
         COMMENT TYPE 0: C251 V5.60.0
  .\obj\sys_init.obj (sys_init)
         COMMENT TYPE 0: C251 V5.60.0
  .\obj\sys_task.obj (sys_task)
         COMMENT TYPE 0: C251 V5.60.0
  .\obj\isr_hdlr.obj (isr_hdlr)
         COMMENT TYPE 0: C251 V5.60.0
  .\obj\sys_ctrl.obj (sys_ctrl)
         COMMENT TYPE 0: C251 V5.60.0
  .\obj\sys_mem.obj (SYS_MEM)
         COMMENT TYPE 0: A251 V4.69.13.0
  .\obj\sys_mem2.obj (SYS_MEM2)
         COMMENT TYPE 0: A251 V4.69.13.0
  .\obj\sys_qctrl.obj (sys_qctrl)
         COMMENT TYPE 0: C251 V5.60.0
  .\obj\sys_rtc.obj (sys_rtc)
         COMMENT TYPE 0: C251 V5.60.0
  .\obj\common_isr.obj (common_isr)
         COMMENT TYPE 0: C251 V5.60.0
  .\obj\common_cmd_hdlr.obj (common_cmd_hdlr)
         COMMENT TYPE 0: C251 V5.60.0
  .\obj\common_event_gen.obj (common_event_gen)
         COMMENT TYPE 0: C251 V5.60.0
  .\obj\common_feature.obj (common_feature)
         COMMENT TYPE 0: C251 V5.60.0
  .\obj\bmu.obj (bmu)
         COMMENT TYPE 0: C251 V5.60.0
  .\obj\bmu_cmd.obj (bmu_cmd)
         COMMENT TYPE 0: C251 V5.60.0
  .\obj\bmu_common.obj (bmu_common)
         COMMENT TYPE 0: C251 V5.60.0
  .\obj\bmu_rx.obj (bmu_rx)
         COMMENT TYPE 0: C251 V5.60.0
L251 LINKER/LOCATER V4.66.93.0                                                        04/08/2024  14:48:14  PAGE 2


  .\obj\bmu_tx.obj (bmu_tx)
         COMMENT TYPE 0: C251 V5.60.0
  .\obj\bmu_ble.obj (bmu_ble)
         COMMENT TYPE 0: C251 V5.60.0
  .\obj\mac.obj (mac)
         COMMENT TYPE 0: C251 V5.60.0
  .\obj\mac_frame_parse.obj (mac_frame_parse)
         COMMENT TYPE 0: C251 V5.60.0
  .\obj\mac_isr.obj (mac_isr)
         COMMENT TYPE 0: C251 V5.60.0
  .\obj\mac_cmd_hdlr.obj (mac_cmd_hdlr)
         COMMENT TYPE 0: C251 V5.60.0
  .\obj\mac_task_ctrl.obj (mac_task_ctrl)
         COMMENT TYPE 0: C251 V5.60.0
  .\obj\ruci_data_parse.obj (ruci_data_parse)
         COMMENT TYPE 0: C251 V5.60.0
  .\obj\mac_event_gen.obj (mac_event_gen)
         COMMENT TYPE 0: C251 V5.60.0
  .\obj\mac_RaaSchedule.obj (mac_RaaSchedule)
         COMMENT TYPE 0: C251 V5.60.0
  .\obj\mac_TarSchedule.obj (mac_TarSchedule)
         COMMENT TYPE 0: C251 V5.60.0
  .\obj\mac_cad.obj (mac_cad)
         COMMENT TYPE 0: C251 V5.60.0
  .\obj\mac_scheduler.obj (mac_scheduler)
         COMMENT TYPE 0: C251 V5.60.0
  .\obj\mac_RfeRx.obj (mac_RfeRx)
         COMMENT TYPE 0: C251 V5.60.0
  .\obj\mac_RfeTx.obj (mac_RfeTx)
         COMMENT TYPE 0: C251 V5.60.0
  .\obj\mac_DtmRx.obj (mac_DtmRx)
         COMMENT TYPE 0: C251 V5.60.0
  .\obj\mac_DtmTx.obj (mac_DtmTx)
         COMMENT TYPE 0: C251 V5.60.0
  .\obj\mac_htrp_control.obj (mac_htrp_control)
         COMMENT TYPE 0: C251 V5.60.0
  .\obj\mac_htrp_rx.obj (mac_htrp_rx)
         COMMENT TYPE 0: C251 V5.60.0
  .\obj\mac_htrp_tx.obj (mac_htrp_tx)
         COMMENT TYPE 0: C251 V5.60.0
  .\obj\mac_srcmatch.obj (mac_srcmatch)
         COMMENT TYPE 0: C251 V5.60.0
  .\obj\mac_rx_scan.obj (mac_rx_scan)
         COMMENT TYPE 0: C251 V5.60.0
  .\obj\msg_ctrl.obj (msg_ctrl)
         COMMENT TYPE 0: C251 V5.60.0
  .\obj\hal.obj (hal)
         COMMENT TYPE 0: C251 V5.60.0
  .\obj\hal_cfg.obj (hal_cfg)
         COMMENT TYPE 0: C251 V5.60.0
  .\obj\hal_mac.obj (hal_mac)
         COMMENT TYPE 0: C251 V5.60.0
  .\obj\hal_para.obj (hal_para)
         COMMENT TYPE 0: C251 V5.60.0
  .\obj\hal_phy.obj (hal_phy)
         COMMENT TYPE 0: C251 V5.60.0
  .\obj\hal_pkt.obj (hal_pkt)
         COMMENT TYPE 0: C251 V5.60.0
  .\obj\hal_rf.obj (hal_rf)
         COMMENT TYPE 0: C251 V5.60.0
  .\obj\hal_rfdb.obj (hal_rfdb)
         COMMENT TYPE 0: C251 V5.60.0
  .\obj\hal_sec.obj (hal_sec)
         COMMENT TYPE 0: C251 V5.60.0
  .\obj\hal_rfk.obj (hal_rfk)
L251 LINKER/LOCATER V4.66.93.0                                                        04/08/2024  14:48:14  PAGE 3


         COMMENT TYPE 0: C251 V5.60.0
  .\obj\hal_io.obj (hal_io)
         COMMENT TYPE 0: C251 V5.60.0
  .\obj\hal_init.obj (hal_init)
         COMMENT TYPE 0: C251 V5.60.0
  .\obj\hal_patch.obj (hal_patch)
         COMMENT TYPE 0: C251 V5.60.0
  .\obj\hal_prtcl.obj (hal_prtcl)
         COMMENT TYPE 0: C251 V5.60.0
  .\obj\hal_rt569mp_init.obj (hal_rt569mp_init)
         COMMENT TYPE 0: C251 V5.60.0
  .\obj\rt569mp_mem.obj (rt569mp_mem)
         COMMENT TYPE 0: C251 V5.60.0
  .\obj\rt569mp_reg.obj (rt569mp_reg)
         COMMENT TYPE 0: C251 V5.60.0
  .\obj\hal_rt569mp_rfk.obj (hal_rt569mp_rfk)
         COMMENT TYPE 0: C251 V5.60.0
  .\obj\hal_rt569mp_rf.obj (hal_rt569mp_rf)
         COMMENT TYPE 0: C251 V5.60.0
  .\obj\hal_rt569mp_tcon.obj (hal_rt569mp_tcon)
         COMMENT TYPE 0: C251 V5.60.0
  .\obj\hal_rt569mp_para.obj (hal_rt569mp_para)
         COMMENT TYPE 0: C251 V5.60.0
  .\obj\hal_rt569mp_pmu.obj (hal_rt569mp_pmu)
         COMMENT TYPE 0: C251 V5.60.0
  .\obj\Ruci.obj (Ruci)
         COMMENT TYPE 0: C251 V5.60.0
  .\obj\Ruci_Pci15p4MacCmd.obj (Ruci_Pci15p4MacCmd)
         COMMENT TYPE 0: C251 V5.60.0
  .\obj\Ruci_PciBleCmd.obj (Ruci_PciBleCmd)
         COMMENT TYPE 0: C251 V5.60.0
  .\obj\Ruci_PciCommonCmd.obj (Ruci_PciCommonCmd)
         COMMENT TYPE 0: C251 V5.60.0
  .\obj\Ruci_PciData.obj (Ruci_PciData)
         COMMENT TYPE 0: C251 V5.60.0
  .\obj\Ruci_PciEvent.obj (Ruci_PciEvent)
         COMMENT TYPE 0: C251 V5.60.0
  .\obj\Ruci_PciFskCmd.obj (Ruci_PciFskCmd)
         COMMENT TYPE 0: C251 V5.60.0
  .\obj\Ruci_PciOqpskCmd.obj (Ruci_PciOqpskCmd)
         COMMENT TYPE 0: C251 V5.60.0
  .\obj\Ruci_PciSlinkCmd.obj (Ruci_PciSlinkCmd)
         COMMENT TYPE 0: C251 V5.60.0
  .\obj\Ruci_CmnEvent.obj (Ruci_CmnEvent)
         COMMENT TYPE 0: C251 V5.60.0
  .\obj\Ruci_CmnHalCmd.obj (Ruci_CmnHalCmd)
         COMMENT TYPE 0: C251 V5.60.0
  .\obj\Ruci_CmnSysCmd.obj (Ruci_CmnSysCmd)
         COMMENT TYPE 0: C251 V5.60.0
  C:\KEIL_V5_C251\C251\LIB\C2SXT.LIB (?C?INITEDATA)
         COMMENT TYPE 0: A251 V4.69.6.0
  C:\KEIL_V5_C251\C251\LIB\C2SXT.LIB (?C?SIDIV)
         COMMENT TYPE 0: A251 V4.69.6.0
  C:\KEIL_V5_C251\C251\LIB\C2SXT.LIB (?C?LMUL)
         COMMENT TYPE 0: A251 V4.69.6.0
  C:\KEIL_V5_C251\C251\LIB\C2SXT.LIB (?C?LIMUL)
         COMMENT TYPE 0: A251 V4.69.6.0
  C:\KEIL_V5_C251\C251\LIB\C2SXT.LIB (?C?ULDIV)
         COMMENT TYPE 0: A251 V4.69.6.0
  C:\KEIL_V5_C251\C251\LIB\C2SXT.LIB (memcpy)
         COMMENT TYPE 0: C251 V5.58.7
  C:\KEIL_V5_C251\C251\LIB\C2SXT.LIB (memset)
         COMMENT TYPE 0: C251 V5.58.7
  C:\KEIL_V5_C251\C251\LIB\C2SXT.LIB (hmemcpy)
         COMMENT TYPE 0: C251 V5.58.7
L251 LINKER/LOCATER V4.66.93.0                                                        04/08/2024  14:48:14  PAGE 4


  C:\KEIL_V5_C251\C251\LIB\C2SXT.LIB (?C?INITEDATA_END)
         COMMENT TYPE 0: A251 V4.69.6.0


ACTIVE MEMORY CLASSES OF MODULE:  .\obj\RT569 (?C_START)

BASE        START       END         USED      MEMORY CLASS
==========================================================
000000H     000000H     00007FH     000010H   DATA
000000H     000080H     000090H               IDATA
000000H     00A000H     00BFFFH     001977H   EDATA
FF0000H     FF0000H     FFFFFFH     00C33BH   CODE
000000H     FF0000H     FFFFFFH               ECODE
000000H     FF0000H     FFFFFFH     0011F1H   HCONST


MEMORY MAP OF MODULE:  .\obj\RT569 (?C_START)


START     STOP      LENGTH    ALIGN  RELOC    MEMORY CLASS   SEGMENT NAME
=========================================================================
000000H   000007H   000008H   ---    AT..     DATA           "REG BANK 0"
000008H   00000FH   000008H   ---    AT..     DATA           "REG BANK 1"
000010H   0000FFH   0000F0H   ---    ---      **GAP**
000100H   0003FFH   000300H   BYTE   AT..     EDATA          ?STACK
000400H   009FFFH   009C00H   ---    ---      **GAP**
00A000H   00A933H   000934H   BYTE   UNIT     EDATA          ?ED?MAC_TARSCHEDULE
00A934H   00AC54H   000321H   BYTE   UNIT     EDATA          ?ED?MAC_SRCMATCH
00AC55H   00AEEAH   000296H   BYTE   UNIT     EDATA          ?ED?SYS_QCTRL
00AEEBH   00B0C1H   0001D7H   BYTE   UNIT     EDATA          ?ED?HAL_INIT
00B0C2H   00B1FEH   00013DH   BYTE   UNIT     EDATA          ?ED?MAC_HTRP_CONTROL
00B1FFH   00B28CH   00008EH   BYTE   UNIT     EDATA          ?ED?COMMON_ISR
00B28DH   00B30FH   000083H   BYTE   UNIT     EDATA          ?ED?MAC_RAASCHEDULE
00B310H   00B344H   000035H   BYTE   UNIT     EDATA          ?ED?MAC
00B345H   00B369H   000025H   BYTE   UNIT     EDATA          ?ED?MAC_TAR_CHECK_DATA_REQUST?MAC_TARSCHEDULE
00B36AH   00B38BH   000022H   BYTE   UNIT     EDATA          ?ED?MAC_RX_SCAN
00B38CH   00B3ADH   000022H   BYTE   UNIT     EDATA          ?ED?HALRFK_CALIBRATION?HAL_RFK
00B3AEH   00B3CDH   000020H   BYTE   UNIT     EDATA          ?ED?MAC_HTRP_RX_HANDLER?MAC_HTRP_RX
00B3CEH   00B3EAH   00001DH   BYTE   UNIT     EDATA          ?ED?MAC_CMD_HDLR
00B3EBH   00B403H   000019H   BYTE   UNIT     EDATA          ?ED?MAC_RFERX
00B404H   00B41AH   000017H   BYTE   UNIT     EDATA          ?ED?T2RTASK_SET?MAC_TASK_CTRL
00B41BH   00B42DH   000013H   BYTE   UNIT     EDATA          ?ED?HALRF_FREQSUBGCFG?HAL_RT569MP_RF
00B42EH   00B43FH   000012H   BYTE   UNIT     EDATA          ?ED?TRTTASK_SET?MAC_TASK_CTRL
00B440H   00B451H   000012H   BYTE   UNIT     EDATA          ?ED?TXCONTTASK_SET?MAC_TASK_CTRL
00B452H   00B463H   000012H   BYTE   UNIT     EDATA          ?ED?MAC_HTRP_TX_HANDLER?MAC_HTRP_TX
00B464H   00B474H   000011H   BYTE   UNIT     EDATA          ?ED?MAC_RFETX
00B475H   00B485H   000011H   BYTE   UNIT     EDATA          ?ED?RUCI_ENDIANCONVERT?RUCI
00B486H   00B495H   000010H   BYTE   UNIT     EDATA          ?ED?INTR_RF
00B496H   00B4A4H   00000FH   BYTE   UNIT     EDATA          ?ED?MAC_HTRP_RX_SET_NEXT_TASK_AND_CHANNEL?MAC_HTRP_RX
00B4A5H   00B4B3H   00000FH   BYTE   UNIT     EDATA          ?ED?MAC_HTRP_TX_SLOT_RX_DONE?MAC_HTRP_TX
00B4B4H   00B4C2H   00000FH   BYTE   UNIT     EDATA          ?ED?MAC_HTRP_TX_PERIOD_BURST_RX_DONE?MAC_HTRP_TX
00B4C3H   00B4D0H   00000EH   BYTE   UNIT     EDATA          ?ED?RXTASK_ALWAYSON_SET?MAC_TASK_CTRL
00B4D1H   00B4DEH   00000EH   BYTE   UNIT     EDATA          ?ED?R2TTASK_SET?MAC_TASK_CTRL
00B4DFH   00B4ECH   00000EH   BYTE   UNIT     EDATA          ?ED?RXTASK_TIMEOUT_SET?MAC_TASK_CTRL
00B4EDH   00B4FAH   00000EH   BYTE   UNIT     EDATA          ?ED?TXTASK_SET?MAC_TASK_CTRL
00B4FBH   00B508H   00000EH   BYTE   UNIT     EDATA          ?ED?TXRTCTASK_SET?MAC_TASK_CTRL
00B509H   00B516H   00000EH   BYTE   UNIT     EDATA          ?ED?MAC_RAA_SCHCONFIGHDLR?MAC_RAASCHEDULE
00B517H   00B524H   00000EH   BYTE   UNIT     EDATA          ?ED?MAC_HTRP_RX_SET_RF_TASK?MAC_HTRP_RX
00B525H   00B532H   00000EH   BYTE   UNIT     EDATA          ?ED?MAC_HTRP_TX_SET_RF_TASK?MAC_HTRP_TX
00B533H   00B53EH   00000CH   BYTE   UNIT     EDATA          ?ED?COMMON_ISRBMUCHECKTX?COMMON_ISR
00B53FH   00B54AH   00000CH   BYTE   UNIT     EDATA          ?ED?BMU_TRXQUEUEGET?BMU_COMMON
00B54BH   00B556H   00000CH   BYTE   UNIT     EDATA          ?ED?BMU_TRXQUEUESET?BMU_COMMON
00B557H   00B562H   00000CH   BYTE   UNIT     EDATA          ?ED?MAC_RFETXSCHEDULE?MAC_RFETX
00B563H   00B56EH   00000CH   BYTE   UNIT     EDATA          ?ED?MAC_HTRP_RX_SET_PERIOD_NEXT_TASK?MAC_HTRP_RX
00B56FH   00B578H   00000AH   BYTE   UNIT     EDATA          ?ED?MAC_HTRP_RX_PERIOD_TX_DONE?MAC_HTRP_RX
L251 LINKER/LOCATER V4.66.93.0                                                        04/08/2024  14:48:14  PAGE 5


00B579H   00B582H   00000AH   BYTE   UNIT     EDATA          ?ED?MAC_HTRP_TX_BURST_TX_DONE?MAC_HTRP_TX
00B583H   00B58CH   00000AH   BYTE   UNIT     EDATA          ?ED?MAC_HTRP_TX_PERIOD_BURST_TX_DONE?MAC_HTRP_TX
00B58DH   00B596H   00000AH   BYTE   UNIT     EDATA          ?ED?HALRF_FREQ2GCFG?HAL_RT569MP_RF
00B597H   00B59FH   000009H   BYTE   UNIT     EDATA          ?ED?HALRFK_TXSBK?HAL_RT569MP_RFK
00B5A0H   00B5A7H   000008H   BYTE   UNIT     EDATA          ?ED?Q_QPUSHBACK?SYS_QCTRL
00B5A8H   00B5AFH   000008H   BYTE   UNIT     EDATA          ?ED?BMU_RX
00B5B0H   00B5B7H   000008H   BYTE   UNIT     EDATA          ?ED?MAC_ISR
00B5B8H   00B5BFH   000008H   BYTE   UNIT     EDATA          ?ED?MAC_GETCSLPHASE?MAC_RAASCHEDULE
00B5C0H   00B5C7H   000008H   BYTE   UNIT     EDATA          ?ED?MAC_TAR_SCHCONFIGHDLR?MAC_TARSCHEDULE
00B5C8H   00B5CFH   000008H   BYTE   UNIT     EDATA          ?ED?MAC_RFERXSCHEDULE?MAC_RFERX
00B5D0H   00B5D6H   000007H   BYTE   UNIT     EDATA          ?ED?HALPHY_RXBWSET?HAL_PHY
00B5D7H   00B5DCH   000006H   BYTE   UNIT     EDATA          ?ED?SYS_CTRL
00B5DDH   00B5E2H   000006H   BYTE   UNIT     EDATA          ?ED?SYS_RAND?SYS_CTRL
00B5E3H   00B5E8H   000006H   BYTE   UNIT     EDATA          ?ED?Q_QPUSHFRONT?SYS_QCTRL
00B5E9H   00B5EEH   000006H   BYTE   UNIT     EDATA          ?ED?SYS_RTC
00B5EFH   00B5F4H   000006H   BYTE   UNIT     EDATA          ?ED?HALRFK_RXFILTK?HAL_RT569MP_RFK
00B5F5H   00B5F9H   000005H   BYTE   UNIT     EDATA          ?ED?SYS_TASK
00B5FAH   00B5FEH   000005H   BYTE   UNIT     EDATA          ?ED?MAC_HTRP_RELAY_DATA_TO_SW_RXQ?MAC_HTRP_CONTROL
00B5FFH   00B603H   000005H   BYTE   UNIT     EDATA          ?ED?MSG_CTRL
00B604H   00B607H   000004H   BYTE   UNIT     EDATA          ?ED?RTC_UDELAY?SYS_RTC
00B608H   00B60BH   000004H   BYTE   UNIT     EDATA          ?ED?BMU_MEMALLOCATE?BMU
00B60CH   00B60FH   000004H   BYTE   UNIT     EDATA          ?ED?BMU_PRIVACYIRKSINGLESEARCH?BMU_BLE
00B610H   00B613H   000004H   BYTE   UNIT     EDATA          ?ED?PCI_SETRFFREQ?MAC_CMD_HDLR
00B614H   00B617H   000004H   BYTE   UNIT     EDATA          ?ED?MAC_TASK_CTRL
00B618H   00B61BH   000004H   BYTE   UNIT     EDATA          ?ED?MAC_GENENHACK?MAC_RAASCHEDULE
00B61CH   00B61FH   000004H   BYTE   UNIT     EDATA          ?ED?MAC_SECLBHWSET?MAC_TARSCHEDULE
00B620H   00B623H   000004H   BYTE   UNIT     EDATA          ?ED?MAC_CCASTART?MAC_TARSCHEDULE
00B624H   00B627H   000004H   BYTE   UNIT     EDATA          ?ED?HALSEC_AESSET?HAL_SEC
00B628H   00B62BH   000004H   BYTE   UNIT     EDATA          ?ED?HAL_HWINIT?HAL_RT569MP_INIT
00B62CH   00B62FH   000004H   BYTE   UNIT     EDATA          ?ED?HAL_RT569MP_RFK
00B630H   00B633H   000004H   BYTE   UNIT     EDATA          ?ED?HALRFK_TXLOK?HAL_RT569MP_RFK
00B634H   00B637H   000004H   BYTE   UNIT     EDATA          ?ED?HALRF_IFCHECK?HAL_RT569MP_RF
00B638H   00B63AH   000003H   BYTE   UNIT     EDATA          ?ED?Q_QCHAGETYPE?SYS_QCTRL
00B63BH   00B63DH   000003H   BYTE   UNIT     EDATA          ?ED?COMMON_ISRBMUTXQPCIGET?COMMON_ISR
00B63EH   00B640H   000003H   BYTE   UNIT     EDATA          ?ED?PANIDPRESENT?MAC_FRAME_PARSE
00B641H   00B643H   000003H   BYTE   UNIT     EDATA          ?ED?PCI_SETWAKEONRADIO?MAC_CMD_HDLR
00B644H   00B646H   000003H   BYTE   UNIT     EDATA          ?ED?MAC_TXHWSET?MAC_TARSCHEDULE
00B647H   00B649H   000003H   BYTE   UNIT     EDATA          ?ED?MAC_HTRP_RX
00B64AH   00B64CH   000003H   BYTE   UNIT     EDATA          ?ED?HALRFK_RINGPLLSET?HAL_RT569MP_RFK
00B64DH   00B64EH   000002H   BYTE   UNIT     EDATA          ?ED?BMU_HWINIT?BMU
00B64FH   00B650H   000002H   BYTE   UNIT     EDATA          ?ED?BMU_COMMON
00B651H   00B652H   000002H   BYTE   UNIT     EDATA          ?ED?BMU_LRXSHAREQISFULL?BMU_RX
00B653H   00B654H   000002H   BYTE   UNIT     EDATA          ?ED?PCI_SETPHR?MAC_CMD_HDLR
00B655H   00B656H   000002H   BYTE   UNIT     EDATA          ?ED?PCI_PARSET15P4SMENTRYCTRL?MAC_CMD_HDLR
00B657H   00B658H   000002H   BYTE   UNIT     EDATA          ?ED?MAC_GENACK?MAC_RAASCHEDULE
00B659H   00B65AH   000002H   BYTE   UNIT     EDATA          ?ED?MAC_ACKFRAMECHECK?MAC_TARSCHEDULE
00B65BH   00B65CH   000002H   BYTE   UNIT     EDATA          ?ED?MAC_RFEDATAGEN?MAC_RFETX
00B65DH   00B65EH   000002H   BYTE   UNIT     EDATA          ?ED?MAC_HTRP_CLEAR_RX_QUEUE?MAC_HTRP_CONTROL
00B65FH   00B660H   000002H   BYTE   UNIT     EDATA          ?ED?MAC_HTRP_SET_TX_QUEUE?MAC_HTRP_CONTROL
00B661H   00B662H   000002H   BYTE   UNIT     EDATA          ?ED?MAC_HTRP_TX
00B663H   00B664H   000002H   BYTE   UNIT     EDATA          ?ED?MAC_SRCMATCH_LISTCLEAR?MAC_SRCMATCH
00B665H   00B666H   000002H   BYTE   UNIT     EDATA          ?ED?MSG_INMSGPROC?MSG_CTRL
00B667H   00B668H   000002H   BYTE   UNIT     EDATA          ?ED?HAL_RF
00B669H   00B669H   000001H   BYTE   UNIT     EDATA          ?ED?BMU_H2MCMDGET?BMU_CMD
00B66AH   00B66AH   000001H   BYTE   UNIT     EDATA          ?ED?BMU_PRIVACYLOCALRPAGEN?BMU_BLE
00B66BH   00B66BH   000001H   BYTE   UNIT     EDATA          ?ED?MAC_TRXPAR_INIT?MAC
00B66CH   00B66CH   000001H   BYTE   UNIT     EDATA          ?ED?GET_PAN_NUMBER?MAC_CMD_HDLR
00B66DH   00B66DH   000001H   BYTE   UNIT     EDATA          ?ED?PCI_SETCLOCKMODE?MAC_CMD_HDLR
00B66EH   00B66EH   000001H   BYTE   UNIT     EDATA          ?ED?MAC_CMDQUEUEPARSE?MAC_CMD_HDLR
00B66FH   00B66FH   000001H   BYTE   UNIT     EDATA          ?ED?MAC_RAA_SCHWAITMHRHDLR?MAC_RAASCHEDULE
00B670H   00B670H   000001H   BYTE   UNIT     EDATA          ?ED?MAC_BACKOFFTIMECAL?MAC_TARSCHEDULE
00B671H   00B671H   000001H   BYTE   UNIT     EDATA          ?ED?MAC_TAR_SCHWAITCCADONEHDLR?MAC_TARSCHEDULE
00B672H   00B672H   000001H   BYTE   UNIT     EDATA          ?ED?MAC_RFERXDATACONFIRM?MAC_RFERX
00B673H   00B673H   000001H   BYTE   UNIT     EDATA          ?ED?MAC_SRCMATCH_LISTINIT?MAC_SRCMATCH
00B674H   00B674H   000001H   BYTE   UNIT     EDATA          ?ED?MAC_SRCMATCH_LISTADDSHORT?MAC_SRCMATCH
L251 LINKER/LOCATER V4.66.93.0                                                        04/08/2024  14:48:14  PAGE 6


00B675H   00B675H   000001H   BYTE   UNIT     EDATA          ?ED?MAC_SRCMATCH_LISTADDEXTENDED?MAC_SRCMATCH
00B676H   00B676H   000001H   BYTE   UNIT     EDATA          ?ED?HALRFK_RSSIGET?HAL_RT569MP_RFK
00B677H   FEFFFFH   FE4989H   ---    ---      **GAP**
FF0000H   FF0002H   000003H   ---    OFFS..   CODE           ?CO?STARTUP251_RT569MP?4
FF0003H   FF0005H   000003H   ---    OFFS..   CODE           ?PR?IV?0
FF0006H   FF0007H   000002H   BYTE   UNIT     HCONST         ?HC?RT569MP_REG
FF0008H   FF000AH   000003H   BYTE   INSEG    CODE           ?PR?ALLTASK_STOP?MAC_TASK_CTRL
FF000BH   FF000DH   000003H   ---    OFFS..   CODE           ?PR?IV?1
FF000EH   FF00ACH   00009FH   BYTE   UNIT     CODE           ?C?LIB_CODE
FF00ADH   FF010BH   00005FH   BYTE   UNIT     CODE           ?PR?ASM_MEMCPY??SYS_MEM2
FF010CH   FF0122H   000017H   BYTE   UNIT     CODE           ?C_C51STARTUP
FF0123H   FF014BH   000029H   BYTE   UNIT     CODE           ?C_C51STARTUP?2
FF014CH   FF014EH   000003H   BYTE   UNIT     CODE           ?C_C51STARTUP?3
FF014FH   FF018FH   000041H   BYTE   UNIT     CODE           ?PR?ASM_MEMSET??SYS_MEM
FF0190H   FF01AEH   00001FH   BYTE   INSEG    CODE           ?PR?MEMCPY?_?MEMCPY
FF01AFH   FF01CDH   00001FH   BYTE   INSEG    CODE           ?PR?HMEMCPY?_?HMEMCPY
FF01CEH   FF01E1H   000014H   BYTE   INSEG    CODE           ?PR?MEMSET?_?MEMSET
FF01E2H   FF082AH   000649H   BYTE   UNIT     HCONST         ?HC?HAL_RT569MP_PARA
FF082BH   FF0CDDH   0004B3H   BYTE   UNIT     HCONST         ?HC?HAL_PARA
FF0CDEH   FF0FECH   00030FH   BYTE   UNIT     HCONST         ?C_INITEDATA
FF0FEDH   FF10F2H   000106H   BYTE   UNIT     HCONST         ?HC?MAC_RFETX
FF10F3H   FF11A2H   0000B0H   BYTE   UNIT     HCONST         ?HC?HAL_CFG
FF11A3H   FF120AH   000068H   BYTE   UNIT     HCONST         ?HC?RUCI_PCICOMMONCMD
FF120BH   FF125BH   000051H   BYTE   UNIT     HCONST         ?HC?MAC_CMD_HDLR
FF125CH   FF129FH   000044H   BYTE   UNIT     HCONST         ?HC?HAL_INIT
FF12A0H   FF12E3H   000044H   BYTE   UNIT     HCONST         ?HC?RUCI_PCI15P4MACCMD
FF12E4H   FF130DH   00002AH   BYTE   UNIT     HCONST         ?HC?RUCI_PCIBLECMD
FF130EH   FF1334H   000027H   BYTE   UNIT     HCONST         ?HC?HAL_PRTCL
FF1335H   FF1358H   000024H   BYTE   UNIT     HCONST         ?HC?RUCI_CMNEVENT
FF1359H   FF1372H   00001AH   BYTE   UNIT     HCONST         ?HC?RUCI_CMNHALCMD
FF1373H   FF138AH   000018H   BYTE   UNIT     HCONST         ?HC?HAL_RT569MP_RF
FF138BH   FF13A0H   000016H   BYTE   UNIT     HCONST         ?HC?RUCI_PCIDATA
FF13A1H   FF13B2H   000012H   BYTE   UNIT     HCONST         ?HC?RUCI_PCIEVENT
FF13B3H   FF13C2H   000010H   BYTE   UNIT     HCONST         ?HC?BMU_COMMON
FF13C3H   FF13CAH   000008H   BYTE   UNIT     HCONST         ?HC?RUCI_PCIFSKCMD
FF13CBH   FF13D0H   000006H   BYTE   UNIT     HCONST         ?HC?RT569MP_MEM
FF13D1H   FF13D7H   000007H   BYTE   INSEG    CODE           ?PR?MAIN?MAIN
FF13D8H   FF1410H   000039H   BYTE   INSEG    CODE           ?PR?SYS_INIT?SYS_INIT
FF1411H   FF141CH   00000CH   BYTE   INSEG    CODE           ?PR?SYS_IDLETASKINIT?SYS_CTRL
FF141DH   FF142FH   000013H   BYTE   INSEG    CODE           ?PR?MSG_HDLRINIT?MSG_CTRL
FF1430H   FF143BH   00000CH   BYTE   INSEG    CODE           ?PR?SYS_IDLETASKINTINIT?SYS_CTRL
FF143CH   FF1488H   00004DH   BYTE   INSEG    CODE           ?PR?INTR_RF_REGISTER?INTR_RF
FF1489H   FF1497H   00000FH   BYTE   INSEG    CODE           ?PR?COMMON_ISR_INIT?COMMON_ISR
FF1498H   FF14D1H   00003AH   BYTE   INSEG    CODE           ?PR?MAC_INIT?MAC
FF14D2H   FF1513H   000042H   BYTE   INSEG    CODE           ?PR?RF_TASK_ALLSTOP?RF_TASK_CTRL
FF1514H   FF173DH   00022AH   BYTE   INSEG    CODE           ?PR?MAC_RFETXSCHEDULE?MAC_RFETX
FF173EH   FF1784H   000047H   BYTE   INSEG    CODE           ?PR?SYS_TRAP?SYS_CTRL
FF1785H   FF17DCH   000058H   BYTE   INSEG    CODE           ?PR?MSG_INMSGPROC?MSG_CTRL
FF17DDH   FF17E8H   00000CH   BYTE   INSEG    CODE           ?PR?MAC_ISRINIT?MAC_ISR
FF17E9H   FF17EDH   000005H   BYTE   INSEG    CODE           ?PR?INTR_ENABLE?INTR_RF
FF17EEH   FF17F3H   000006H   BYTE   INSEG    CODE           ?PR?MAC_HTRP_TX_INIT?MAC_HTRP_TX
FF17F4H   FF1822H   00002FH   BYTE   INSEG    CODE           ?PR?SYS_TASK_REGISTER?SYS_TASK
FF1823H   FF1864H   000042H   BYTE   INSEG    CODE           ?PR?RF_TASK_EN?RF_TASK_CTRL
FF1865H   FF190EH   0000AAH   BYTE   INSEG    CODE           ?PR?TRTTASK_SET?MAC_TASK_CTRL
FF190FH   FF19CCH   0000BEH   BYTE   INSEG    CODE           ?PR?RF_TASK_SET?RF_TASK_CTRL
FF19CDH   FF1AF0H   000124H   BYTE   INSEG    CODE           ?PR?T2RTASK_SET?MAC_TASK_CTRL
FF1AF1H   FF1BADH   0000BDH   BYTE   INSEG    CODE           ?PR?MAC_HTRP_RX_SET_RF_TASK?MAC_HTRP_RX
FF1BAEH   FF1F78H   0003CBH   BYTE   INSEG    CODE           ?PR?MAC_HTRP_RX_HANDLER?MAC_HTRP_RX
FF1F79H   FF1F7DH   000005H   BYTE   INSEG    CODE           ?PR?MAC_HTRP_RX_SET_STATE?MAC_HTRP_RX
FF1F7EH   FF1F98H   00001BH   BYTE   INSEG    CODE           ?PR?RTC_CLKGET?_?SYS_RTC
FF1F99H   FF1FB0H   000018H   BYTE   INSEG    CODE           ?PR?RTC_TICKGAPCOUNT?SYS_RTC
FF1FB1H   FF1FE2H   000032H   BYTE   INSEG    CODE           ?PR?SYS_TASK_UNBLOCK?SYS_TASK
FF1FE3H   FF1FFAH   000018H   BYTE   INSEG    CODE           ?PR?MAC_HTRP_CTRL_CHANNEL_SET?MAC_HTRP_CONTROL
FF1FFBH   FF2023H   000029H   BYTE   INSEG    CODE           ?PR?INTR_CLEAR?INTR_RF
FF2024H   FF2034H   000011H   BYTE   INSEG    CODE           ?PR?INTR_CLEARRTCGRP?INTR_RF
L251 LINKER/LOCATER V4.66.93.0                                                        04/08/2024  14:48:14  PAGE 7


FF2035H   FF2043H   00000FH   BYTE   INSEG    CODE           ?PR?INTR_RF_HDLR?INTR_RF
FF2044H   FF20CAH   000087H   BYTE   INSEG    CODE           ?PR?ISR_0_HDLR?ISR_HDLR
FF20CBH   FF20CBH   000001H   BYTE   INSEG    CODE           ?PR?INTR_RF_NULLHDLR?INTR_RF
FF20CCH   FF2107H   00003CH   BYTE   INSEG    CODE           ?PR?SYS_INFOREGINIT?SYS_INIT
FF2108H   FF2136H   00002FH   BYTE   INSEG    CODE           ?PR?SYS_TASK_BLOCK?SYS_TASK
FF2137H   FF238CH   000256H   BYTE   INSEG    CODE           ?PR?MAC_HTRP_TX_HANDLER?MAC_HTRP_TX
FF238DH   FF2391H   000005H   BYTE   INSEG    CODE           ?PR?MAC_HTRP_TX_SET_STATE?MAC_HTRP_TX
FF2392H   FF2481H   0000F0H   BYTE   INSEG    CODE           ?PR?MAC_HTRP_SET_TX_QUEUE?MAC_HTRP_CONTROL
FF2482H   FF248AH   000009H   BYTE   INSEG    CODE           ?PR?MAC_HTRP_REG_ISR_CB?MAC_HTRP_CONTROL
FF248BH   FF249DH   000013H   BYTE   INSEG    CODE           ?PR?MAC_HTRP_GET_TX_DATA?MAC_HTRP_CONTROL
FF249EH   FF24CAH   00002DH   BYTE   INSEG    CODE           ?PR?MAC_FUNEVENTQGET?_?MAC
FF24CBH   FF2562H   000098H   BYTE   INSEG    CODE           ?PR?MAC_RAA_SCHWAITMHRHDLR?MAC_RAASCHEDULE
FF2563H   FF2591H   00002FH   BYTE   INSEG    CODE           ?PR?HALMAC_PHRSET?HAL_MAC
FF2592H   FF25DEH   00004DH   BYTE   INSEG    CODE           ?PR?HALPKT_TXQDONESET?HAL_PKT
FF25DFH   FF260FH   000031H   BYTE   INSEG    CODE           ?PR?MAC_INTEVENTQUEUECLEARTXDATA?MAC
FF2610H   FF264BH   00003CH   BYTE   INSEG    CODE           ?PR?MAC_INTEVENTQADD?_?MAC
FF264CH   FF26F4H   0000A9H   BYTE   INSEG    CODE           ?PR?MAC_TXGETBMUDATA?MAC_TARSCHEDULE
FF26F5H   FF272DH   000039H   BYTE   INSEG    CODE           ?PR?MAC_HTRP_ISR_TX_DONE_HANDLER?MAC_HTRP_CONTROL
FF272EH   FF2769H   00003CH   BYTE   INSEG    CODE           ?PR?MAC_FUNEVENTQADD?_?MAC
FF276AH   FF276EH   000005H   BYTE   INSEG    CODE           ?PR?MAC_HTRP_TX_GET_STATE?MAC_HTRP_TX
FF276FH   FF27ABH   00003DH   BYTE   INSEG    CODE           ?PR?MAC_HTRP_IS_ALLOW_SLEEP_STATE?MAC_HTRP_CONTROL
FF27ACH   FF27B0H   000005H   BYTE   INSEG    CODE           ?PR?MAC_HTRP_RX_GET_STATE?MAC_HTRP_RX
FF27B1H   FF27C1H   000011H   BYTE   INSEG    CODE           ?PR?PCIQUEUEGETANDMACINTQUEUEADD?MAC
FF27C2H   FF27D6H   000015H   BYTE   INSEG    CODE           ?PR?MAC_INTEVENTQUEUEHANDLER?MAC
FF27D7H   FF27EAH   000014H   BYTE   INSEG    CODE           ?PR?MAC_HTRP_SET_DISABLE?MAC_HTRP_CONTROL
FF27EBH   FF27F0H   000006H   BYTE   INSEG    CODE           ?PR?MAC_ORG_TX_DONE_HANDLER?MAC_TARSCHEDULE
FF27F1H   FF27FAH   00000AH   BYTE   INSEG    CODE           ?PR?MAC_TARPARINIT?MAC_TARSCHEDULE
FF27FBH   FF2827H   00002DH   BYTE   INSEG    CODE           ?PR?MAC_INTEVENTQGET?_?MAC
FF2828H   FF2855H   00002EH   BYTE   INSEG    CODE           ?PR?SYS_TASK_RUN?SYS_TASK
FF2856H   FF2856H   000001H   BYTE   INSEG    CODE           ?PR?SYS_NULL_TASK?SYS_TASK
FF2857H   FF2867H   000011H   BYTE   INSEG    CODE           ?PR?ISR_CLEAR_MAC_STATUS?ISR_HDLR
FF2868H   FF2870H   000009H   BYTE   INSEG    CODE           ?PR?MAC_FATALCLEAR?MAC
FF2871H   FF28C7H   000057H   BYTE   INSEG    CODE           ?PR?HALPKT_RXQDONESET?HAL_PKT
FF28C8H   FF29B4H   0000EDH   BYTE   INSEG    CODE           ?PR?MAC_TAR_SCHWAITACKRXDONEHDLR?MAC_TARSCHEDULE
FF29B5H   FF2A80H   0000CCH   BYTE   INSEG    CODE           ?PR?SETRFIDLE?MAC_CMD_HDLR
FF2A81H   FF2D81H   000301H   BYTE   INSEG    CODE           ?PR?MAC_RFERXSCHEDULE?MAC_RFERX
FF2D82H   FF2DF4H   000073H   BYTE   INSEG    CODE           ?PR?MAC_RXHWSET?MAC_TARSCHEDULE
FF2DF5H   FF2E7FH   00008BH   BYTE   INSEG    CODE           ?PR?BMU_RXCONFIG?BMU_RX
FF2E80H   FF2E88H   000009H   BYTE   INSEG    CODE           ?PR?HALMAC_MAXPAYLOADDFTGET?HAL_MAC
FF2E89H   FF2E97H   00000FH   BYTE   INSEG    CODE           ?PR?MAC_FUNEVENTQUEUEEXIST?MAC
FF2E98H   FF2ED1H   00003AH   BYTE   INSEG    CODE           ?PR?MAC_SCANVCO_GET?MAC_RAASCHEDULE
FF2ED2H   FF2EF8H   000027H   BYTE   INSEG    CODE           ?PR?RTC_UDELAY?SYS_RTC
FF2EF9H   FF2F69H   000071H   BYTE   INSEG    CODE           ?PR?HALRFK_LBTRXENABLE?HAL_RT569MP_RFK
FF2F6AH   FF2FB0H   000047H   BYTE   INSEG    CODE           ?PR?MAC_RFERXDISABLE?MAC_RFERX
FF2FB1H   FF2FBEH   00000EH   BYTE   INSEG    CODE           ?PR?MAC_RFERXAONTASKDISABLE?MAC_RFERX
FF2FBFH   FF2FD1H   000013H   BYTE   INSEG    CODE           ?PR?HAL_ISBLEHW?HAL
FF2FD2H   FF2FE8H   000017H   BYTE   INSEG    CODE           ?PR?MAC_HTRP_SET_RX_SW_QUEUE?MAC_HTRP_CONTROL
FF2FE9H   FF2FECH   000004H   BYTE   INSEG    CODE           ?PR?MAC_TAR_CCA_SETUP?MAC_TARSCHEDULE
FF2FEDH   FF3037H   00004BH   BYTE   INSEG    CODE           ?PR?MAC_CCASTART?MAC_TARSCHEDULE
FF3038H   FF3047H   000010H   BYTE   INSEG    CODE           ?PR?MAC_WAITFORRXTASKREADY?MAC_TARSCHEDULE
FF3048H   FF3080H   000039H   BYTE   INSEG    CODE           ?PR?MAC_BACKOFFTIMECAL?MAC_TARSCHEDULE
FF3081H   FF30EAH   00006AH   BYTE   INSEG    CODE           ?PR?R2TTASK_SET?MAC_TASK_CTRL
FF30EBH   FF313EH   000054H   BYTE   INSEG    CODE           ?PR?MAC_RXSCAN_R2TTASKRESTART?MAC_RX_SCAN
FF313FH   FF319DH   00005FH   BYTE   INSEG    CODE           ?PR?MAC_RXSCAN_SWITCHTONEXTFREQUENCY?MAC_RX_SCAN
FF319EH   FF31A9H   00000CH   BYTE   UNIT     CODE           ?L?COM0011
FF31AAH   FF34F0H   000347H   BYTE   INSEG    CODE           ?PR?MAC_GENENHACK?MAC_RAASCHEDULE
FF34F1H   FF354EH   00005EH   BYTE   INSEG    CODE           ?PR?MAC_ENDIANCONVERT?MAC_RAASCHEDULE
FF354FH   FF3561H   000013H   BYTE   INSEG    CODE           ?PR?MAC_RSSIINFOCALC?MAC_RAASCHEDULE
FF3562H   FF357CH   00001BH   BYTE   INSEG    CODE           ?PR?MAC_SRCMATCH_ENABLESTATUSGET?MAC_SRCMATCH
FF357DH   FF358FH   000013H   BYTE   INSEG    CODE           ?PR?HALMAC_TXSFDSET?HAL_MAC
FF3590H   FF35B4H   000025H   BYTE   INSEG    CODE           ?PR?MAC_SRCMATCH_LISTFIND?MAC_SRCMATCH
FF35B5H   FF35E0H   00002CH   BYTE   INSEG    CODE           ?PR?PCI_PARSE15P4PENDINGBIT?MAC_CMD_HDLR
FF35E1H   FF3617H   000037H   BYTE   INSEG    CODE           ?PR?GET_PAN_NUMBER?MAC_CMD_HDLR
FF3618H   FF365DH   000046H   BYTE   INSEG    CODE           ?PR?PCI_SETRFESECURITYCMD?MAC_CMD_HDLR
FF365EH   FF3687H   00002AH   BYTE   INSEG    CODE           ?PR?HALSEC_AESKEYSET?HAL_SEC
L251 LINKER/LOCATER V4.66.93.0                                                        04/08/2024  14:48:14  PAGE 8


FF3688H   FF36D0H   000049H   BYTE   INSEG    CODE           ?PR?RTC_INIT?SYS_RTC
FF36D1H   FF36DCH   00000CH   BYTE   UNIT     CODE           ?L?COM002C
FF36DDH   FF3762H   000086H   BYTE   INSEG    CODE           ?PR?MAC_RXSCAN_HWREGRESTORE?MAC_RX_SCAN
FF3763H   FF377AH   000018H   BYTE   UNIT     CODE           ?L?COM000F
FF377BH   FF3786H   00000CH   BYTE   UNIT     CODE           ?L?COM002B
FF3787H   FF37D3H   00004DH   BYTE   INSEG    CODE           ?PR?PCI_SETFSKSFD?MAC_CMD_HDLR
FF37D4H   FF37D5H   000002H   BYTE   INSEG    CODE           ?PR?MAC_RXSCAN_HWDEINIT?MAC_RX_SCAN
FF37D6H   FF37DDH   000008H   BYTE   UNIT     CODE           ?L?COM004E
FF37DEH   FF37E9H   00000CH   BYTE   UNIT     CODE           ?L?COM003E
FF37EAH   FF37F5H   00000CH   BYTE   UNIT     CODE           ?L?COM0040
FF37F6H   FF3804H   00000FH   BYTE   INSEG    CODE           ?PR?ISR_GET_MAC_STATUS?ISR_HDLR
FF3805H   FF3805H   000001H   BYTE   INSEG    CODE           ?PR?ISR_1_HDLR?ISR_HDLR
FF3806H   FF381FH   00001AH   BYTE   INSEG    CODE           ?PR?SYS_ISCLKAPASSOVERCLKB?SYS_CTRL
FF3820H   FF3BB8H   000399H   BYTE   INSEG    CODE           ?PR?MAC_RAARXDONEHANDLE?_?MAC_RAASCHEDULE
FF3BB9H   FF3D4FH   000197H   BYTE   INSEG    CODE           ?PR?MAC_RXDONEEVENTGEN?_?MAC_RAASCHEDULE
FF3D50H   FF3D68H   000019H   BYTE   INSEG    CODE           ?PR?HALSEC_NONCEONLYSET?HAL_SEC
FF3D69H   FF3D7EH   000016H   BYTE   INSEG    CODE           ?PR?HALSEC_AESKEYONLYSET?HAL_SEC
FF3D7FH   FF3DB6H   000038H   BYTE   INSEG    CODE           ?PR?HALPKT_PHYSTATUSGET?HAL_PKT
FF3DB7H   FF3DF7H   000041H   BYTE   INSEG    CODE           ?PR?MAC_HTRP_SLEEP_CTRL?MAC_HTRP_CONTROL
FF3DF8H   FF3E45H   00004EH   BYTE   INSEG    CODE           ?PR?BMU_RXQUEUESET?BMU_RX
FF3E46H   FF3EA8H   000063H   BYTE   INSEG    CODE           ?PR?BMU_RXQUEUEGET?BMU_RX
FF3EA9H   FF3F10H   000068H   BYTE   INSEG    CODE           ?PR?MAC_SLEEPCHECK?MAC
FF3F11H   FF3F3FH   00002FH   BYTE   INSEG    CODE           ?PR?SYS_ENTERSLEEPCHECK?SYS_CTRL
FF3F40H   FF3F54H   000015H   BYTE   INSEG    CODE           ?PR?SYS_ENTERSLEEPGUARD?SYS_CTRL
FF3F55H   FF3F81H   00002DH   BYTE   INSEG    CODE           ?PR?MSG_IDLE?MSG_CTRL
FF3F82H   FF3F86H   000005H   BYTE   INSEG    CODE           ?PR?MAC_HTRP_READY_TO_SLEEP?MAC_HTRP_CONTROL
FF3F87H   FF3F8EH   000008H   BYTE   UNIT     CODE           ?L?COM0056
FF3F8FH   FF3F9CH   00000EH   BYTE   UNIT     CODE           ?L?COM0023
FF3F9DH   FF3FABH   00000FH   BYTE   INSEG    CODE           ?PR?MAC_INTEVENTQUEUEEXIST?MAC
FF3FACH   FF3FBCH   000011H   BYTE   INSEG    CODE           ?PR?Q_QNUMGET?SYS_QCTRL
FF3FBDH   FF3FE7H   00002BH   BYTE   INSEG    CODE           ?PR?MSG_OUTMSGPROC?MSG_CTRL
FF3FE8H   FF3FF0H   000009H   BYTE   INSEG    CODE           ?PR?MSG_OUTSTATESET?MSG_CTRL
FF3FF1H   FF4087H   000097H   BYTE   INSEG    CODE           ?PR?SYS_RAND?SYS_CTRL
FF4088H   FF4098H   000011H   BYTE   INSEG    CODE           ?PR?SYS_TIMERINIT?SYS_CTRL
FF4099H   FF410DH   000075H   BYTE   INSEG    CODE           ?PR?SYS_SLEEP?SYS_CTRL
FF410EH   FF4112H   000005H   BYTE   INSEG    CODE           ?PR?SYS_SLEEPMINTIMEGET?SYS_CTRL
FF4113H   FF4138H   000026H   BYTE   INSEG    CODE           ?PR?RTC_TRIGGERWITHINUS?SYS_RTC
FF4139H   FF4149H   000011H   BYTE   INSEG    CODE           ?PR?SYS_IDLE_TASK?SYS_CTRL
FF414AH   FF4160H   000017H   BYTE   INSEG    CODE           ?PR?MSG_HDLR?MSG_CTRL
FF4161H   FF4171H   000011H   BYTE   INSEG    CODE           ?PR?MSG_EVENTCLR?MSG_CTRL
FF4172H   FF41A9H   000038H   BYTE   INSEG    CODE           ?PR?Q_INIT?SYS_QCTRL
FF41AAH   FF41C3H   00001AH   BYTE   INSEG    CODE           ?PR?Q_MEMFREECOUNT?SYS_QCTRL
FF41C4H   FF41E2H   00001FH   BYTE   INSEG    CODE           ?PR?Q_MEMALLOC?SYS_QCTRL
FF41E3H   FF422DH   00004BH   BYTE   INSEG    CODE           ?PR?PCICNFEVENTSENDTOMSGQUEUE?MAC_EVENT_GEN
FF422EH   FF4271H   000044H   BYTE   INSEG    CODE           ?PR?PCI_BLEPHY_GETHTRP_STATUS?MAC_CMD_HDLR
FF4272H   FF42A1H   000030H   BYTE   INSEG    CODE           ?PR?PCIHTRPGETRSSIEVENTSENDTOMSGQUEUE?MAC_EVENT_GEN
FF42A2H   FF42BDH   00001CH   BYTE   INSEG    CODE           ?PR?Q_MEMGET?SYS_QCTRL
FF42BEH   FF4300H   000043H   BYTE   INSEG    CODE           ?PR?PCIHTRPPEREVENTDONEEVENTSENDTOMSGQUEUE?MAC_EVENT_GEN
FF4301H   FF437AH   00007AH   BYTE   INSEG    CODE           ?PR?PCIHTRPHWSTATUSEVENTDONEEVENTSENDTOMSGQUEUE?MAC_EVENT_
                                                             -GEN
FF437BH   FF4418H   00009EH   BYTE   INSEG    CODE           ?PR?PCIHTRPFWSTATUSEVENTDONEEVENTSENDTOMSGQUEUE?MAC_EVENT_
                                                             -GEN
FF4419H   FF44EDH   0000D5H   BYTE   INSEG    CODE           ?PR?Q_QPUSHBACK?SYS_QCTRL
FF44EEH   FF4546H   000059H   BYTE   INSEG    CODE           ?PR?CMN_GETVOLTAGERPTEVENTSEND?COMMON_EVENT_GEN
FF4547H   FF45A1H   00005BH   BYTE   INSEG    CODE           ?PR?CMN_GETTEMPERATURERPTEVENTSEND?COMMON_EVENT_GEN
FF45A2H   FF45FEH   00005DH   BYTE   INSEG    CODE           ?PR?PCIGETCRCEVENTSENDTOMSGQUEUE?MAC_EVENT_GEN
FF45FFH   FF466EH   000070H   BYTE   INSEG    CODE           ?PR?CMN_GETFWVEREVENTSEND?COMMON_EVENT_GEN
FF466FH   FF475AH   0000ECH   BYTE   INSEG    CODE           ?PR?RUCI_ENDIANCONVERT?RUCI
FF475BH   FF4782H   000028H   BYTE   INSEG    CODE           ?PR?PCICSLACCURACYEVENTSENDTOMSGQUEUE?MAC_EVENT_GEN
FF4783H   FF47AAH   000028H   BYTE   INSEG    CODE           ?PR?PCICSLUNCERTAINTYEVENTSENDTOMSGQUEUE?MAC_EVENT_GEN
FF47ABH   FF47D9H   00002FH   BYTE   INSEG    CODE           ?PR?PCIBURSTTXDONEEVENTSENDTOMSGQUEUE?MAC_EVENT_GEN
FF47DAH   FF47E5H   00000CH   BYTE   INSEG    CODE           ?PR?CMN_CMDSYS_GETRFBFWVER?COMMON_CMD_HDLR
FF47E6H   FF47F0H   00000BH   BYTE   INSEG    CODE           ?PR?PCI_GETCRCCOUNT?MAC_CMD_HDLR
FF47F1H   FF47FBH   00000BH   BYTE   INSEG    CODE           ?PR?PCI_GET15P4CSLACCURACY?MAC_CMD_HDLR
FF47FCH   FF484FH   000054H   BYTE   INSEG    CODE           ?PR?CMN_SETCALIBRATIONENABLEEVENTSEND?COMMON_EVENT_GEN
L251 LINKER/LOCATER V4.66.93.0                                                        04/08/2024  14:48:14  PAGE 9


FF4850H   FF485CH   00000DH   BYTE   INSEG    CODE           ?PR?Q_MEMFREE?SYS_QCTRL
FF485DH   FF4872H   000016H   BYTE   INSEG    CODE           ?PR?Q_QGET?SYS_QCTRL
FF4873H   FF489CH   00002AH   BYTE   INSEG    CODE           ?PR?MSG_OUTMSGTOBMU?MSG_CTRL
FF489DH   FF48B9H   00001DH   BYTE   INSEG    CODE           ?PR?Q_QFREE?SYS_QCTRL
FF48BAH   FF4A47H   00018EH   BYTE   INSEG    CODE           ?PR?MAC_CMDQUEUEPARSE?MAC_CMD_HDLR
FF4A48H   FF4A62H   00001BH   BYTE   INSEG    CODE           ?PR?PCI_PARSEOQPSKCMD?MAC_CMD_HDLR
FF4A63H   FF4A91H   00002FH   BYTE   INSEG    CODE           ?PR?PCI_PARSEFSKCMD?MAC_CMD_HDLR
FF4A92H   FF4AA3H   000012H   BYTE   INSEG    CODE           ?PR?PCI_SETFSKTYPE?MAC_CMD_HDLR
FF4AA4H   FF4AAEH   00000BH   BYTE   INSEG    CODE           ?PR?HALPHY_GAUSSIANFILTSET?HAL_PHY
FF4AAFH   FF4ABAH   00000CH   BYTE   UNIT     CODE           ?L?COM0013
FF4ABBH   FF4AD7H   00001DH   BYTE   INSEG    CODE           ?PR?PCI_SETFSKPREAMBLE?MAC_CMD_HDLR
FF4AD8H   FF4AE2H   00000BH   BYTE   INSEG    CODE           ?PR?HALPHY_PREAMNUMSET?HAL_PHY
FF4AE3H   FF4AEEH   00000CH   BYTE   UNIT     CODE           ?L?COM0020
FF4AEFH   FF4B28H   00003AH   BYTE   INSEG    CODE           ?PR?PCI_INITFSK?MAC_CMD_HDLR
FF4B29H   FF4B64H   00003CH   BYTE   INSEG    CODE           ?PR?PCI_OQPSKCMDINITOQPSK?MAC_CMD_HDLR
FF4B65H   FF4B97H   000033H   BYTE   INSEG    CODE           ?PR?PCI_PARARESET?MAC_CMD_HDLR
FF4B98H   FF4BE6H   00004FH   BYTE   INSEG    CODE           ?PR?HALRF_TXPWRCOMPSET2HW?HAL_RT569MP_RF
FF4BE7H   FF4C16H   000030H   BYTE   INSEG    CODE           ?PR?HAL_ISSUBGRF?HAL
FF4C17H   FF4C66H   000050H   BYTE   INSEG    CODE           ?PR?PCI_SETFSKMAC?MAC_CMD_HDLR
FF4C67H   FF4C6FH   000009H   BYTE   INSEG    CODE           ?PR?HALMAC_WHITENINITDFTGET?HAL_MAC
FF4C70H   FF4CBFH   000050H   BYTE   INSEG    CODE           ?PR?PCI_OQPSKCMDSETOQPSKMAC?MAC_CMD_HDLR
FF4CC0H   FF4CDAH   00001BH   BYTE   INSEG    CODE           ?PR?HALMAC_CRCINITDFTGET?HAL_MAC
FF4CDBH   FF4CFDH   000023H   BYTE   INSEG    CODE           ?PR?HALMAC_WHITENSET?HAL_MAC
FF4CFEH   FF4D3CH   00003FH   BYTE   INSEG    CODE           ?PR?HALMAC_CRCSET?HAL_MAC
FF4D3DH   FF4DC1H   000085H   BYTE   INSEG    CODE           ?PR?PCI_BLECMDSETBLEMAC?MAC_CMD_HDLR
FF4DC2H   FF4E2EH   00006DH   BYTE   INSEG    CODE           ?PR?PCI_PARSEBLECMD?MAC_CMD_HDLR
FF4E2FH   FF4FE7H   0001B9H   BYTE   INSEG    CODE           ?PR?HAL_HWMODEINIT?_?HAL
FF4FE8H   FF4FF6H   00000FH   BYTE   INSEG    CODE           ?PR?HALMAC_TXPREAMBLESET?HAL_MAC
FF4FF7H   FF5006H   000010H   BYTE   INSEG    CODE           ?PR?HALMAC_RXPREAMBLESET?HAL_MAC
FF5007H   FF501CH   000016H   BYTE   INSEG    CODE           ?PR?Q_QLENGET?SYS_QCTRL
FF501DH   FF5056H   00003AH   BYTE   INSEG    CODE           ?PR?Q_QCHAGETYPE?SYS_QCTRL
FF5057H   FF50F2H   00009CH   BYTE   INSEG    CODE           ?PR?Q_QREMOVE?SYS_QCTRL
FF50F3H   FF51B0H   0000BEH   BYTE   INSEG    CODE           ?PR?Q_QPUSHFRONT?SYS_QCTRL
FF51B1H   FF5230H   000080H   BYTE   INSEG    CODE           ?PR?Q_QMOVEBACK?SYS_QCTRL
FF5231H   FF52A0H   000070H   BYTE   INSEG    CODE           ?PR?RTC_TIMERCONFIG?SYS_RTC
FF52A1H   FF530FH   00006FH   BYTE   INSEG    CODE           ?PR?PCI_SET15P4CSLRECEIVERCTRL?MAC_CMD_HDLR
FF5310H   FF5391H   000082H   BYTE   INSEG    CODE           ?PR?PCI_PARSE15P4SWMACCMD?MAC_CMD_HDLR
FF5392H   FF53A2H   000011H   BYTE   INSEG    CODE           ?PR?PCI_PARSE15P4SMENABLE?MAC_CMD_HDLR
FF53A3H   FF5445H   0000A3H   BYTE   INSEG    CODE           ?PR?PCI_PARSET15P4SMENTRYCTRL?MAC_CMD_HDLR
FF5446H   FF54FDH   0000B8H   BYTE   INSEG    CODE           ?PR?PCI_PARSE15P4ADDRESSFILTER?MAC_CMD_HDLR
FF54FEH   FF5520H   000023H   BYTE   INSEG    CODE           ?PR?REVERSE_UINT32CPY?MAC_CMD_HDLR
FF5521H   FF55DCH   0000BCH   BYTE   INSEG    CODE           ?PR?PCI_SETRFERXENABLECMD?MAC_CMD_HDLR
FF55DDH   FF564EH   000072H   BYTE   INSEG    CODE           ?PR?MAC_RFERXPARINIT?MAC_RFERX
FF564FH   FF5720H   0000D2H   BYTE   INSEG    CODE           ?PR?PCI_PARSECOMMONCMD?MAC_CMD_HDLR
FF5721H   FF572CH   00000CH   BYTE   INSEG    CODE           ?PR?PCI_GETRSSI?MAC_CMD_HDLR
FF572DH   FF578AH   00005EH   BYTE   INSEG    CODE           ?PR?PCIGETRSSIEVENTSENDTOMSGQUEUE?MAC_EVENT_GEN
FF578BH   FF5794H   00000AH   BYTE   INSEG    CODE           ?PR?PCI_SETRFEMODE?MAC_CMD_HDLR
FF5795H   FF57A0H   00000CH   BYTE   INSEG    CODE           ?PR?PCI_GETPHYSTATUS?MAC_CMD_HDLR
FF57A1H   FF5827H   000087H   BYTE   INSEG    CODE           ?PR?PCIGETPHYSTATUSEVENTSENDTOMSGQUEUE?MAC_EVENT_GEN
FF5828H   FF583AH   000013H   BYTE   INSEG    CODE           ?PR?RTC_TIMERWAKEUPDISABLE?SYS_RTC
FF583BH   FF5854H   00001AH   BYTE   INSEG    CODE           ?PR?PCI_SETRFERXDISABLECMD?MAC_CMD_HDLR
FF5855H   FF585EH   00000AH   BYTE   INSEG    CODE           ?PR?RTC_WAITFORTRIGGERED?SYS_RTC
FF585FH   FF587AH   00001CH   BYTE   INSEG    CODE           ?PR?RTC_ISRHDLRINIT?SYS_RTC
FF587BH   FF589AH   000020H   BYTE   INSEG    CODE           ?PR?MAC_HTRP_SLEEP_INIT?MAC_HTRP_CONTROL
FF589BH   FF589BH   000001H   BYTE   INSEG    CODE           ?PR?RTC_NULLHDLR?SYS_RTC
FF589CH   FF58A8H   00000DH   BYTE   INSEG    CODE           ?PR?RTC_ISRHDLR?SYS_RTC
FF58A9H   FF5923H   00007BH   BYTE   INSEG    CODE           ?PR?COMMON_ISRBMUCHECKTX?COMMON_ISR
FF5924H   FF5983H   000060H   BYTE   INSEG    CODE           ?PR?BMU_TXQUEUEGET?BMU_TX
FF5984H   FF598DH   00000AH   BYTE   UNIT     CODE           ?L?COM0028
FF598EH   FF5A14H   000087H   BYTE   INSEG    CODE           ?PR?BMU_TXQUEUECLEAR?BMU_TX
FF5A15H   FF5ACAH   0000B6H   BYTE   INSEG    CODE           ?PR?BMU_TXCONFIG?BMU_TX
FF5ACBH   FF5B33H   000069H   BYTE   INSEG    CODE           ?PR?MAC_TXHWSET?MAC_TARSCHEDULE
FF5B34H   FF5B6DH   00003AH   BYTE   INSEG    CODE           ?PR?MAC_VCO_TXSTART?MAC_TARSCHEDULE
FF5B6EH   FF5B89H   00001CH   BYTE   INSEG    CODE           ?PR?MAC_TXTASKSET?MAC_TARSCHEDULE
FF5B8AH   FF5C1AH   000091H   BYTE   INSEG    CODE           ?PR?PCI_SETPHR?MAC_CMD_HDLR
L251 LINKER/LOCATER V4.66.93.0                                                        04/08/2024  14:48:14  PAGE 10


FF5C1BH   FF5CC4H   0000AAH   BYTE   INSEG    CODE           ?PR?MAC_TAR_SCHCONFIGHDLR?MAC_TARSCHEDULE
FF5CC5H   FF5D48H   000084H   BYTE   INSEG    CODE           ?PR?HALMAC_TXTYPESET?HAL_MAC
FF5D49H   FF5DF9H   0000B1H   BYTE   INSEG    CODE           ?PR?MAC_ACKSET?MAC_RAASCHEDULE
FF5DFAH   FF5E84H   00008BH   BYTE   INSEG    CODE           ?PR?BMU_LOCALTXQUEUESET?BMU_TX
FF5E85H   FF5F1CH   000098H   BYTE   INSEG    CODE           ?PR?MAC_RFETXPARINIT?MAC_RFETX
FF5F1DH   FF5F2DH   000011H   BYTE   INSEG    CODE           ?PR?MAC_TXSTART?MAC_TARSCHEDULE
FF5F2EH   FF5F46H   000019H   BYTE   INSEG    CODE           ?PR?HALMAC_CRCLENCFGGET?HAL_MAC
FF5F47H   FF5FA8H   000062H   BYTE   INSEG    CODE           ?PR?MAC_SECLBHWSET?MAC_TARSCHEDULE
FF5FA9H   FF5FD2H   00002AH   BYTE   INSEG    CODE           ?PR?HALMAC_MAXPAYLOADLENGET?HAL_MAC
FF5FD3H   FF5FDAH   000008H   BYTE   INSEG    CODE           ?PR?HAL_HWMODEGET?HAL
FF5FDBH   FF5FE7H   00000DH   BYTE   INSEG    CODE           ?PR?MAC_ISR_REG_CB?MAC_ISR
FF5FE8H   FF602CH   000045H   BYTE   INSEG    CODE           ?PR?MAC_GENACK?MAC_RAASCHEDULE
FF602DH   FF60EAH   0000BEH   BYTE   INSEG    CODE           ?PR?COMMON_ISRBMUTXQADD?_?COMMON_ISR
FF60EBH   FF6196H   0000ACH   BYTE   INSEG    CODE           ?PR?COMMON_ISRBMUTXQGETBYHANDLE?_?COMMON_ISR
FF6197H   FF623BH   0000A5H   BYTE   INSEG    CODE           ?PR?COMMON_ISRBMUTXQPCIGET?COMMON_ISR
FF623CH   FF63AAH   00016FH   BYTE   INSEG    CODE           ?PR?COMMON_ISRBMUTXQDELETEALLBYCONDITION?_?COMMON_ISR
FF63ABH   FF6434H   00008AH   BYTE   INSEG    CODE           ?PR?COMMON_ISRBMUTXQDELETEBYPTR?_?COMMON_ISR
FF6435H   FF644BH   000017H   BYTE   INSEG    CODE           ?PR?MACTXFREEBMUDATA?MAC_TARSCHEDULE
FF644CH   FF64CDH   000082H   BYTE   INSEG    CODE           ?PR?MAC_TXDONEEVENTGEN?MAC_TARSCHEDULE
FF64CEH   FF65C3H   0000F6H   BYTE   INSEG    CODE           ?PR?MAC_TAR_SCHWAITNORMALRXMSGHDLR?MAC_TARSCHEDULE
FF65C4H   FF65CEH   00000BH   BYTE   INSEG    CODE           ?PR?MAC_HTRP_SEND_TX_DONE?MAC_HTRP_CONTROL
FF65CFH   FF65E2H   000014H   BYTE   INSEG    CODE           ?PR?MAC_HTRP_CLEAR_TX_QUEUE?MAC_HTRP_CONTROL
FF65E3H   FF6612H   000030H   BYTE   INSEG    CODE           ?PR?MAC_TAR_SCHWAITNORMALACKDONEHDLR?MAC_TARSCHEDULE
FF6613H   FF662BH   000019H   BYTE   INSEG    CODE           ?PR?MAC_RAACLEARACKQANDGENRXDATA?MAC_RAASCHEDULE
FF662CH   FF665BH   000030H   BYTE   INSEG    CODE           ?PR?MAC_RAA_SCHWAITTXDONEHDLR?MAC_RAASCHEDULE
FF665CH   FF66ADH   000052H   BYTE   INSEG    CODE           ?PR?MAC_TAR_SCHWAITACKRXMHRHDLR?MAC_TARSCHEDULE
FF66AEH   FF672FH   000082H   BYTE   INSEG    CODE           ?PR?MAC_TAR_SCHWAITTXDONEHDLR?MAC_TARSCHEDULE
FF6730H   FF679FH   000070H   BYTE   INSEG    CODE           ?PR?COMMON_ISRBMUTXQINIT?COMMON_ISR
FF67A0H   FF67A9H   00000AH   BYTE   INSEG    CODE           ?PR?COMMON_ISRBMUHANDLER?COMMON_ISR
FF67AAH   FF67CCH   000023H   BYTE   INSEG    CODE           ?PR?CMN_CMDHAL_SETAGC?COMMON_CMD_HDLR
FF67CDH   FF6813H   000047H   BYTE   INSEG    CODE           ?PR?CMD_CNFEVENTSEND?COMMON_EVENT_GEN
FF6814H   FF6826H   000013H   BYTE   INSEG    CODE           ?PR?CMN_CMDHAL_SETCALIBRATIONENABLE?COMMON_CMD_HDLR
FF6827H   FF689FH   000079H   BYTE   INSEG    CODE           ?PR?PCI_PARSECMNHALCMD?MAC_CMD_HDLR
FF68A0H   FF68B5H   000016H   BYTE   INSEG    CODE           ?PR?CMN_CMDHAL_SETTXPWRCHCOMP?COMMON_CMD_HDLR
FF68B6H   FF68CBH   000016H   BYTE   INSEG    CODE           ?PR?CMN_CMDHAL_SETTXPWRCHSEGMENT?COMMON_CMD_HDLR
FF68CCH   FF68E9H   00001EH   BYTE   INSEG    CODE           ?PR?CMN_CMDHAL_SETTXPWRCOMP?COMMON_CMD_HDLR
FF68EAH   FF690CH   000023H   BYTE   INSEG    CODE           ?PR?HALRF_TXPWRCOMPSET?HAL_RF
FF690DH   FF6957H   00004BH   BYTE   INSEG    CODE           ?PR?HALRF_TXPWRCOMPUPDATE?HAL_RF
FF6958H   FF6980H   000029H   BYTE   INSEG    CODE           ?PR?HALRF_TXPWRCHCOMPSET?HAL_RF
FF6981H   FF698AH   00000AH   BYTE   INSEG    CODE           ?PR?CMN_CMDHAL_SETPMUMPKSETTING?COMMON_CMD_HDLR
FF698BH   FF6997H   00000DH   BYTE   INSEG    CODE           ?PR?CMN_CMDHAL_GETTEMPERATURERPT?COMMON_CMD_HDLR
FF6998H   FF69A4H   00000DH   BYTE   INSEG    CODE           ?PR?CMN_CMDHAL_GETVOLTAGERPT?COMMON_CMD_HDLR
FF69A5H   FF69BEH   00001AH   BYTE   INSEG    CODE           ?PR?CMN_CMDHAL_SETPMUOPMODE?COMMON_CMD_HDLR
FF69BFH   FF69DAH   00001CH   BYTE   INSEG    CODE           ?PR?CMN_CMDHAL_SETRSSIOFFSET?COMMON_CMD_HDLR
FF69DBH   FF69FAH   000020H   BYTE   INSEG    CODE           ?PR?HALRF_TXPWRCHSEGSET?HAL_RF
FF69FBH   FF6A20H   000026H   BYTE   INSEG    CODE           ?PR?CMN_CMDHAL_SETTXPOWERBY?COMMON_CMD_HDLR
FF6A21H   FF6A54H   000034H   BYTE   INSEG    CODE           ?PR?CMN_CMDHAL_SETCALIBRATIONSETTING?COMMON_CMD_HDLR
FF6A55H   FF6A89H   000035H   BYTE   INSEG    CODE           ?PR?CMN_CMDHAL_SETTXPOWER?COMMON_CMD_HDLR
FF6A8AH   FF6AC0H   000037H   BYTE   INSEG    CODE           ?PR?CMN_CMDHAL_SETTXPOWEROQPSK?COMMON_CMD_HDLR
FF6AC1H   FF6B8CH   0000CCH   BYTE   INSEG    CODE           ?PR?BMU_MEMALLOCATE?BMU
FF6B8DH   FF6BB4H   000028H   BYTE   INSEG    CODE           ?PR?BMU_LRXHWBUFCONFIG?BMU_RX
FF6BB5H   FF6C37H   000083H   BYTE   INSEG    CODE           ?PR?BMU_LRXSHAREQCONFIG?BMU_RX
FF6C38H   FF6CC4H   00008DH   BYTE   INSEG    CODE           ?PR?BMU_HWRESET?BMU
FF6CC5H   FF6D66H   0000A2H   BYTE   INSEG    CODE           ?PR?BMU_HWINIT?BMU
FF6D67H   FF6D7DH   000017H   BYTE   INSEG    CODE           ?PR?BMU_TXQSTATUSUPD?BMU_TX
FF6D7EH   FF6DC7H   00004AH   BYTE   INSEG    CODE           ?PR?BMU_FREQFLOWCTRLSET?BMU
FF6DC8H   FF6E3FH   000078H   BYTE   INSEG    CODE           ?PR?BMU_H2MCMDGET?BMU_CMD
FF6E40H   FF6EC3H   000084H   BYTE   INSEG    CODE           ?PR?BMU_M2HCMDSET?BMU_CMD
FF6EC4H   FF6FD1H   00010EH   BYTE   INSEG    CODE           ?PR?BMU_TRXQUEUEGET?BMU_COMMON
FF6FD2H   FF70DFH   00010EH   BYTE   INSEG    CODE           ?PR?BMU_TRXQUEUESET?BMU_COMMON
FF70E0H   FF7101H   000022H   BYTE   INSEG    CODE           ?PR?BMU_LOCALRXQSTARTADDGET?BMU_RX
FF7102H   FF7123H   000022H   BYTE   INSEG    CODE           ?PR?BMU_RXQSTARTADDGET?BMU_RX
FF7124H   FF719BH   000078H   BYTE   INSEG    CODE           ?PR?BMU_LOCALRXQUEUEGET?BMU_RX
FF719CH   FF7264H   0000C9H   BYTE   INSEG    CODE           ?PR?MAC_RFERXDATACONFIRM?MAC_RFERX
FF7265H   FF7286H   000022H   BYTE   INSEG    CODE           ?PR?HALMAC_PHRLENCFGGET?HAL_MAC
L251 LINKER/LOCATER V4.66.93.0                                                        04/08/2024  14:48:14  PAGE 11


FF7287H   FF7287H   000001H   BYTE   INSEG    CODE           ?PR?BMU_LRXHWBUFSTATUSUPDATE?BMU_RX
FF7288H   FF728BH   000004H   BYTE   INSEG    CODE           ?PR?MAC_HTRP_UPDATE_LRX_BUF_STATUS?MAC_HTRP_CONTROL
FF728CH   FF7297H   00000CH   BYTE   INSEG    CODE           ?PR?BMU_LRXHWBUFSET?BMU_RX
FF7298H   FF7338H   0000A1H   BYTE   INSEG    CODE           ?PR?MAC_HTRP_TX_SLOT_RX_DONE?MAC_HTRP_TX
FF7339H   FF735EH   000026H   BYTE   INSEG    CODE           ?PR?MAC_HTRP_CTRL_INCREASE_SLOT_INDEX?MAC_HTRP_CONTROL
FF735FH   FF741EH   0000C0H   BYTE   INSEG    CODE           ?PR?MAC_HTRP_TX_PERIOD_BURST_RX_DONE?MAC_HTRP_TX
FF741FH   FF744DH   00002FH   BYTE   INSEG    CODE           ?PR?MAC_HTRP_CTRL_INCREASE_CHANNEL_INDEX?MAC_HTRP_CONTROL
FF744EH   FF7499H   00004CH   BYTE   INSEG    CODE           ?PR?MAC_HTRP_TX_BURST_TX_DONE?MAC_HTRP_TX
FF749AH   FF755AH   0000C1H   BYTE   INSEG    CODE           ?PR?MAC_HTRP_TX_SET_RF_TASK?MAC_HTRP_TX
FF755BH   FF75DAH   000080H   BYTE   INSEG    CODE           ?PR?MAC_HTRP_TX_PERIOD_BURST_TX_DONE?MAC_HTRP_TX
FF75DBH   FF75E2H   000008H   BYTE   INSEG    CODE           ?PR?MAC_HTRP_TX_SLOT_TX_DONE?MAC_HTRP_TX
FF75E3H   FF75F1H   00000FH   BYTE   INSEG    CODE           ?PR?MAC_HTRP_SET_RX_QUEUE?MAC_HTRP_CONTROL
FF75F2H   FF7640H   00004FH   BYTE   INSEG    CODE           ?PR?MAC_HTRP_SET_RX_HW_QUEUE?MAC_HTRP_CONTROL
FF7641H   FF7701H   0000C1H   BYTE   INSEG    CODE           ?PR?MAC_HTRP_RX_SET_NEXT_TASK_AND_CHANNEL?MAC_HTRP_RX
FF7702H   FF7726H   000025H   BYTE   INSEG    CODE           ?PR?MAC_HTRP_RX_BURST_RX_DONE?MAC_HTRP_RX
FF7727H   FF77AEH   000088H   BYTE   INSEG    CODE           ?PR?MAC_HTRP_RX_CAL_DRIFT_TIME?MAC_HTRP_RX
FF77AFH   FF77B6H   000008H   BYTE   UNIT     CODE           ?L?COM0050
FF77B7H   FF77BEH   000008H   BYTE   INSEG    CODE           ?PR?MAC_HTRP_RX_SLOT_TX_DONE?MAC_HTRP_RX
FF77BFH   FF77E0H   000022H   BYTE   INSEG    CODE           ?PR?MAC_HTRP_CTRL_INCREASE_CUR_BLOCK?MAC_HTRP_CONTROL
FF77E1H   FF77FFH   00001FH   BYTE   INSEG    CODE           ?PR?BMU_LRXHWRXDONEBUFGET?BMU_RX
FF7800H   FF782DH   00002EH   BYTE   INSEG    CODE           ?PR?BMU_LRXSHAREQWOGET?BMU_RX
FF782EH   FF782FH   000002H   BYTE   INSEG    CODE           ?PR?MAC_HTRP_GET_RX_SW_QUEUE_WO_ADDR?MAC_HTRP_CONTROL
FF7830H   FF78B4H   000085H   BYTE   INSEG    CODE           ?PR?MAC_HTRP_RELAY_DATA_TO_SW_RXQ?MAC_HTRP_CONTROL
FF78B5H   FF78CEH   00001AH   BYTE   INSEG    CODE           ?PR?BMU_LRXSHAREQWOUPDATE?BMU_RX
FF78CFH   FF7944H   000076H   BYTE   INSEG    CODE           ?PR?MAC_HTRP_CLEAR_RX_QUEUE?MAC_HTRP_CONTROL
FF7945H   FF7994H   000050H   BYTE   INSEG    CODE           ?PR?BMU_LRXSHAREQISFULL?BMU_RX
FF7995H   FF79E5H   000051H   BYTE   INSEG    CODE           ?PR?MAC_HTRP_CHECK_RX_VALID?MAC_HTRP_CONTROL
FF79E6H   FF7A3FH   00005AH   BYTE   INSEG    CODE           ?PR?MAC_HTRP_RX_PERIOD_RX_DONE?MAC_HTRP_RX
FF7A40H   FF7AA1H   000062H   BYTE   INSEG    CODE           ?PR?MAC_HTRP_CTRL_INCREASE_PKT_CNT?MAC_HTRP_CONTROL
FF7AA2H   FF7CC1H   000220H   BYTE   INSEG    CODE           ?PR?MAC_HTRP_RX_SET_PERIOD_NEXT_TASK?MAC_HTRP_RX
FF7CC2H   FF7CE3H   000022H   BYTE   INSEG    CODE           ?PR?BMU_LOCALTXQSTARTADDGET?BMU_TX
FF7CE4H   FF7D06H   000023H   BYTE   INSEG    CODE           ?PR?BMU_TXQSTARTADDGET?BMU_TX
FF7D07H   FF7D2AH   000024H   BYTE   INSEG    CODE           ?PR?BMU_TXQSTATUSRECOVERY?BMU_TX
FF7D2BH   FF7D62H   000038H   BYTE   INSEG    CODE           ?PR?BMU_TXQPKTSEARCH?BMU_TX
FF7D63H   FF7DFBH   000099H   BYTE   INSEG    CODE           ?PR?BMU_TXPKTLENGTHGET?BMU_TX
FF7DFCH   FF7E35H   00003AH   BYTE   INSEG    CODE           ?PR?BMU_LOCALTXQUEUEGET?BMU_TX
FF7E36H   FF7EA6H   000071H   BYTE   INSEG    CODE           ?PR?BMU_PRIVACYIRKCLR?BMU_BLE
FF7EA7H   FF7EDFH   000039H   BYTE   INSEG    CODE           ?PR?BMU_PRIVACYIRKSET?BMU_BLE
FF7EE0H   FF7F6DH   00008EH   BYTE   INSEG    CODE           ?PR?BMU_PRIVACYLOCALRPAGEN?BMU_BLE
FF7F6EH   FF7FA6H   000039H   BYTE   INSEG    CODE           ?PR?BMU_PRIVACYIRKSINGLESEARCH?BMU_BLE
FF7FA7H   FF7FDBH   000035H   BYTE   INSEG    CODE           ?PR?BMU_PRIVACYIRKGET?BMU_BLE
FF7FDCH   FF805DH   000082H   BYTE   INSEG    CODE           ?PR?BMU_PRIVACYIRKFULLSEARCH?BMU_BLE
FF805EH   FF8068H   00000BH   BYTE   INSEG    CODE           ?PR?MAC_TIMEOUTHDLR?MAC
FF8069H   FF808DH   000025H   BYTE   INSEG    CODE           ?PR?MAC_CHECKRXBUSY?MAC
FF808EH   FF8109H   00007CH   BYTE   INSEG    CODE           ?PR?MAC_CCASTATUSGET?MAC_TARSCHEDULE
FF810AH   FF81E3H   0000DAH   BYTE   INSEG    CODE           ?PR?MAC_TAR_SCHWAITCCADONEHDLR?MAC_TARSCHEDULE
FF81E4H   FF81F5H   000012H   BYTE   INSEG    CODE           ?PR?MAC_CHECKISRRXRECEIVED?MAC
FF81F6H   FF822BH   000036H   BYTE   INSEG    CODE           ?PR?MAC?MAC
FF822CH   FF823FH   000014H   BYTE   INSEG    CODE           ?PR?MAC_RAASCHEDULE?MAC_RAASCHEDULE
FF8240H   FF8253H   000014H   BYTE   INSEG    CODE           ?PR?MAC_TARSCHEDULE?MAC_TARSCHEDULE
FF8254H   FF8287H   000034H   BYTE   INSEG    CODE           ?PR?MAC_CHECKBMUERR?MAC
FF8288H   FF8293H   00000CH   BYTE   INSEG    CODE           ?PR?MAC_FUNEVENTQINIT?MAC
FF8294H   FF829FH   00000CH   BYTE   INSEG    CODE           ?PR?MAC_INTEVENTQINIT?MAC
FF82A0H   FF849EH   0001FFH   BYTE   INSEG    CODE           ?PR?MAC_TRXPAR_INIT?MAC
FF849FH   FF8544H   0000A6H   BYTE   INSEG    CODE           ?PR?PANIDPRESENT?MAC_FRAME_PARSE
FF8545H   FF873EH   0001FAH   BYTE   INSEG    CODE           ?PR?MAC_PARSEHDR?MAC_FRAME_PARSE
FF873FH   FF8748H   00000AH   BYTE   INSEG    CODE           ?PR?MAC_MHRPARSE?MAC_RAASCHEDULE
FF8749H   FF876DH   000025H   BYTE   INSEG    CODE           ?PR?MAC_ORG_RX_DONE_HANDLER?MAC_RAASCHEDULE
FF876EH   FF87FEH   000091H   BYTE   INSEG    CODE           ?PR?MAC_ISRHANDLER?MAC_ISR
FF87FFH   FF880AH   00000CH   BYTE   INSEG    CODE           ?PR?MAC_BMUISRINIT?MAC_ISR
FF880BH   FF8918H   00010EH   BYTE   INSEG    CODE           ?PR?PCI_SETRFFREQ?MAC_CMD_HDLR
FF8919H   FF8962H   00004AH   BYTE   INSEG    CODE           ?PR?PCI_SETRXTASKPARA?MAC_CMD_HDLR
FF8963H   FF89A0H   00003EH   BYTE   INSEG    CODE           ?PR?PCI_ENABLESINGLETONE?MAC_CMD_HDLR
FF89A1H   FF8A40H   0000A0H   BYTE   INSEG    CODE           ?PR?PCI_SETRFETXENABLECMD?MAC_CMD_HDLR
FF8A41H   FF8AFBH   0000BBH   BYTE   INSEG    CODE           ?PR?PCI_RFETXPARACHECK?MAC_CMD_HDLR
L251 LINKER/LOCATER V4.66.93.0                                                        04/08/2024  14:48:14  PAGE 12


FF8AFCH   FF8B11H   000016H   BYTE   INSEG    CODE           ?PR?PCI_SETRFETXDISABLECMD?MAC_CMD_HDLR
FF8B12H   FF8B30H   00001FH   BYTE   INSEG    CODE           ?PR?PCI_SETRFSLEEP?MAC_CMD_HDLR
FF8B31H   FF8B46H   000016H   BYTE   INSEG    CODE           ?PR?PCI_SETRFIDLE?MAC_CMD_HDLR
FF8B47H   FF8B92H   00004CH   BYTE   INSEG    CODE           ?PR?PCI_SETCLOCKMODE?MAC_CMD_HDLR
FF8B93H   FF8C0CH   00007AH   BYTE   INSEG    CODE           ?PR?PCI_SETRFBAUTOSTATE?MAC_CMD_HDLR
FF8C0DH   FF8C1FH   000013H   BYTE   INSEG    CODE           ?PR?PCI_SETGAUSSIANFILTERTYPE?MAC_CMD_HDLR
FF8C20H   FF8D22H   000103H   BYTE   INSEG    CODE           ?PR?PCI_SETWAKEONRADIO?MAC_CMD_HDLR
FF8D23H   FF8DB7H   000095H   BYTE   INSEG    CODE           ?PR?PCI_SET2CHSCANFREQ?MAC_CMD_HDLR
FF8DB8H   FF8DF9H   000042H   BYTE   INSEG    CODE           ?PR?PCI_SETFSKMODEM?MAC_CMD_HDLR
FF8DFAH   FF8E1CH   000023H   BYTE   INSEG    CODE           ?PR?PCI_BLECMDINITBLE?MAC_CMD_HDLR
FF8E1DH   FF8ECFH   0000B3H   BYTE   INSEG    CODE           ?PR?PCI_BLECMDSETBLEMODEM?MAC_CMD_HDLR
FF8ED0H   FF8EDBH   00000CH   BYTE   UNIT     CODE           ?L?COM003F
FF8EDCH   FF8F65H   00008AH   BYTE   INSEG    CODE           ?PR?HALRF_AGCSET2HW?HAL_RT569MP_RF
FF8F66H   FF8F78H   000013H   BYTE   UNIT     CODE           ?L?COM000A
FF8F79H   FF8F89H   000011H   BYTE   UNIT     CODE           ?L?COM0032
FF8F8AH   FF8F9BH   000012H   BYTE   INSEG    CODE           ?PR?HALRF_AGCSET?HAL_RF
FF8F9CH   FF8FE5H   00004AH   BYTE   INSEG    CODE           ?PR?HALRFK_RFGAINCFG?HAL_RT569MP_RFK
FF8FE6H   FF9089H   0000A4H   BYTE   INSEG    CODE           ?PR?PCI_BLEPHY_SETHTRP_PARA?MAC_CMD_HDLR
FF908AH   FF90C0H   000037H   BYTE   INSEG    CODE           ?PR?PCI_BLEPHY_SETHTRP_MAP_CHANNEL?MAC_CMD_HDLR
FF90C1H   FF910DH   00004DH   BYTE   INSEG    CODE           ?PR?MAC_HTRP_CTRL_SET_CHANNEL_MAP_FROM_BMU?MAC_HTRP_CONTRO
                                                             -L
FF910EH   FF913DH   000030H   BYTE   INSEG    CODE           ?PR?PCI_BLEPHY_SETHTRP_SEC?MAC_CMD_HDLR
FF913EH   FF915EH   000021H   BYTE   INSEG    CODE           ?PR?MAC_HTRP_SET_SEC_PARA?MAC_HTRP_CONTROL
FF915FH   FF9183H   000025H   BYTE   INSEG    CODE           ?PR?PCI_BLEPHY_SETHTRP_TX_ENABLE?MAC_CMD_HDLR
FF9184H   FF91A1H   00001EH   BYTE   INSEG    CODE           ?PR?PCI_BLEPHY_SETHTRP_RX_ENABLE?MAC_CMD_HDLR
FF91A2H   FF91B1H   000010H   BYTE   INSEG    CODE           ?PR?MAC_HTRP_RESET_RX_CONN_STATUS?MAC_HTRP_CONTROL
FF91B2H   FF91CFH   00001EH   BYTE   INSEG    CODE           ?PR?PCI_BLEPHY_SETHTRP_DISABLE?MAC_CMD_HDLR
FF91D0H   FF9212H   000043H   BYTE   INSEG    CODE           ?PR?PCI_BLEPHY_SETHTRP_INITIATE?MAC_CMD_HDLR
FF9213H   FF9285H   000073H   BYTE   INSEG    CODE           ?PR?PCI_INITZIGBEE?MAC_CMD_HDLR
FF9286H   FF92CEH   000049H   BYTE   INSEG    CODE           ?PR?PCI_PARSE15P4MACPIB?MAC_CMD_HDLR
FF92CFH   FF9307H   000039H   BYTE   INSEG    CODE           ?PR?PCI_PARSE15P4PHYPIB?MAC_CMD_HDLR
FF9308H   FF9319H   000012H   BYTE   INSEG    CODE           ?PR?PCI_PARSE15P4AUTOACK?MAC_CMD_HDLR
FF931AH   FF9326H   00000DH   BYTE   INSEG    CODE           ?PR?PCI_GET15P4CSLUNCERTAINTY?MAC_CMD_HDLR
FF9327H   FF9361H   00003BH   BYTE   INSEG    CODE           ?PR?PCI_UPDATE15P4CSLSAMPLETIME?MAC_CMD_HDLR
FF9362H   FF939FH   00003EH   BYTE   INSEG    CODE           ?PR?PCI_OQPSKCMDSETOQPSKMODEM?MAC_CMD_HDLR
FF93A0H   FF93EBH   00004CH   BYTE   INSEG    CODE           ?PR?PCI_RFERXPARACHECK?MAC_CMD_HDLR
FF93ECH   FF93FAH   00000FH   BYTE   INSEG    CODE           ?PR?PCI_PARSECMNSYSCMD?MAC_CMD_HDLR
FF93FBH   FF9430H   000036H   BYTE   INSEG    CODE           ?PR?RXTASK_ALWAYSON_SET?MAC_TASK_CTRL
FF9431H   FF95E1H   0001B1H   BYTE   INSEG    CODE           ?PR?MAC_RAA_SCHCONFIGHDLR?MAC_RAASCHEDULE
FF95E2H   FF9604H   000023H   BYTE   INSEG    CODE           ?PR?MAC_RXSCAN_TASKSTART?MAC_RX_SCAN
FF9605H   FF9651H   00004DH   BYTE   INSEG    CODE           ?PR?RXTASK_TIMEOUT_SET?MAC_TASK_CTRL
FF9652H   FF96B9H   000068H   BYTE   INSEG    CODE           ?PR?MAC_RXSCAN_HWINIT?MAC_RX_SCAN
FF96BAH   FF96C6H   00000DH   BYTE   INSEG    CODE           ?PR?MAC_RXSCAN_CONFIG?MAC_RX_SCAN
FF96C7H   FF96F1H   00002BH   BYTE   INSEG    CODE           ?PR?MAC_RXSCAN_PLLALWAYSON?MAC_RX_SCAN
FF96F2H   FF977EH   00008DH   BYTE   INSEG    CODE           ?PR?MAC_RXSCAN_HWREGBACKUP?MAC_RX_SCAN
FF977FH   FF978CH   00000EH   BYTE   INSEG    CODE           ?PR?RXTASK_RXTIMER_SET?MAC_TASK_CTRL
FF978DH   FF97FCH   000070H   BYTE   INSEG    CODE           ?PR?TXCONTTASK_SET?MAC_TASK_CTRL
FF97FDH   FF9841H   000045H   BYTE   INSEG    CODE           ?PR?TXTASK_SET?MAC_TASK_CTRL
FF9842H   FF9875H   000034H   BYTE   INSEG    CODE           ?PR?TXRTCTASK_SET?MAC_TASK_CTRL
FF9876H   FF9918H   0000A3H   BYTE   INSEG    CODE           ?PR?PCIDATACONTROLFIELDPARSE?RUCI_DATA_PARSE
FF9919H   FF9951H   000039H   BYTE   INSEG    CODE           ?PR?PCIHTRPCONNTOEVENTDONEEVENTSENDTOMSGQUEUE?MAC_EVENT_GE
                                                             -N
FF9952H   FF9952H   000001H   BYTE   INSEG    CODE           ?PR?MAC_RAA_SCHINITHDLR?MAC_RAASCHEDULE
FF9953H   FF99B2H   000060H   BYTE   INSEG    CODE           ?PR?MAC_RAA_SCHWAITRXDONEHDLR?MAC_RAASCHEDULE
FF99B3H   FF99E9H   000037H   BYTE   INSEG    CODE           ?PR?MAC_RXSCAN_TASKRESTART?MAC_RX_SCAN
FF99EAH   FF99EAH   000001H   BYTE   INSEG    CODE           ?PR?MAC_RAA_SCHWAITRESUMEHDLR?MAC_RAASCHEDULE
FF99EBH   FF9A39H   00004FH   BYTE   INSEG    CODE           ?PR?MAC_RAA_SCHENDHDLR?MAC_RAASCHEDULE
FF9A3AH   FF9A3AH   000001H   BYTE   INSEG    CODE           ?PR?MAC_RAA_SCHRESERVEDHDLR?MAC_RAASCHEDULE
FF9A3BH   FF9A57H   00001DH   BYTE   INSEG    CODE           ?PR?MAC_ORG_MHR_DONE_HANDLER?MAC_RAASCHEDULE
FF9A58H   FF9BA1H   00014AH   BYTE   INSEG    CODE           ?PR?MAC_RXQ_CPY?_?MAC_RAASCHEDULE
FF9BA2H   FF9C08H   000067H   BYTE   INSEG    CODE           ?PR?MAC_GENACKFRMCTRL?MAC_RAASCHEDULE
FF9C09H   FF9C13H   00000BH   BYTE   INSEG    CODE           ?PR?MOD_REPLACE?MAC_RAASCHEDULE
FF9C14H   FF9C54H   000041H   BYTE   INSEG    CODE           ?PR?MAC_GETCSLPHASE?MAC_RAASCHEDULE
FF9C55H   FF9CC5H   000071H   BYTE   INSEG    CODE           ?PR?MAC_NONCEGEN?MAC_RAASCHEDULE
FF9CC6H   FF9ED8H   000213H   BYTE   INSEG    CODE           ?PR?MAC_FILTER?_?MAC_RAASCHEDULE
L251 LINKER/LOCATER V4.66.93.0                                                        04/08/2024  14:48:14  PAGE 13


FF9ED9H   FF9ED9H   000001H   BYTE   INSEG    CODE           ?PR?MAC_TAR_SCHINITHDLR?MAC_TARSCHEDULE
FF9EDAH   FF9F09H   000030H   BYTE   INSEG    CODE           ?PR?MAC_TAR_SCHENDHDLR?MAC_TARSCHEDULE
FF9F0AH   FF9F0AH   000001H   BYTE   INSEG    CODE           ?PR?MAC_TAR_SCHRESERVEDHDLR?MAC_TARSCHEDULE
FF9F0BH   FF9F23H   000019H   BYTE   INSEG    CODE           ?PR?MAC_ORG_CCA_DONE_HANDLER?MAC_TARSCHEDULE
FF9F24H   FFA054H   000131H   BYTE   INSEG    CODE           ?PR?MAC_ACKFRAMECHECK?MAC_TARSCHEDULE
FFA055H   FFA110H   0000BCH   BYTE   INSEG    CODE           ?PR?MAC_TAR_CHECK_DATA_REQUST?MAC_TARSCHEDULE
FFA111H   FFA123H   000013H   BYTE   INSEG    CODE           ?PR?MAC_RFERXRPTGET?MAC_RFERX
FFA124H   FFA187H   000064H   BYTE   INSEG    CODE           ?PR?MAC_RFESECLBHWSET?MAC_RFERX
FFA188H   FFA1CEH   000047H   BYTE   INSEG    CODE           ?PR?MAC_RFETXTASKSET?MAC_RFETX
FFA1CFH   FFA241H   000073H   BYTE   INSEG    CODE           ?PR?MAC_RFETXPKTLENUPDATE?MAC_RFETX
FFA242H   FFA291H   000050H   BYTE   INSEG    CODE           ?PR?MAC_RFETXHWSECSET?MAC_RFETX
FFA292H   FFA32AH   000099H   BYTE   INSEG    CODE           ?PR?MAC_RFEDATAGEN?MAC_RFETX
FFA32BH   FFA335H   00000BH   BYTE   INSEG    CODE           ?PR?MAC_HTRP_CTRL_GET_CHANNEL?MAC_HTRP_CONTROL
FFA336H   FFA367H   000032H   BYTE   INSEG    CODE           ?PR?MAC_HTRP_CTRL_CLEAR_PKT_CNT?MAC_HTRP_CONTROL
FFA368H   FFA391H   00002AH   BYTE   INSEG    CODE           ?PR?MAC_HTRP_CTRL_SLOT_SYNC?MAC_HTRP_CONTROL
FFA392H   FFA3B5H   000024H   BYTE   INSEG    CODE           ?PR?MAC_HTRP_ISR_RX_DONE_HANDLER?MAC_HTRP_CONTROL
FFA3B6H   FFA3D4H   00001FH   BYTE   INSEG    CODE           ?PR?MAC_HTRP_CHECK_RX_CONN_STATUS?MAC_HTRP_CONTROL
FFA3D5H   FFA3F7H   000023H   BYTE   INSEG    CODE           ?PR?MAC_HTRP_CTRL_INIT?MAC_HTRP_CONTROL
FFA3F8H   FFA3FDH   000006H   BYTE   INSEG    CODE           ?PR?MAC_HTRP_RTC_ISR_HANDLER?MAC_HTRP_CONTROL
FFA3FEH   FFA426H   000029H   BYTE   INSEG    CODE           ?PR?MAC_HTRP_RX_INIT?MAC_HTRP_RX
FFA427H   FFA45AH   000034H   BYTE   INSEG    CODE           ?PR?MAC_HTRP_RX_SLOT_RX_DONE?MAC_HTRP_RX
FFA45BH   FFA462H   000008H   BYTE   UNIT     CODE           ?L?COM0042
FFA463H   FFA51DH   0000BBH   BYTE   INSEG    CODE           ?PR?MAC_SRCMATCH_LISTFINDEXTENDED?_?MAC_SRCMATCH
FFA51EH   FFA56CH   00004FH   BYTE   INSEG    CODE           ?PR?MAC_HTRP_RX_PERIOD_TX_DONE?MAC_HTRP_RX
FFA56DH   FFA58DH   000021H   BYTE   INSEG    CODE           ?PR?MAC_SRCMATCH_LISTFINDIDX?MAC_SRCMATCH
FFA58EH   FFA5F5H   000068H   BYTE   INSEG    CODE           ?PR?MAC_SRCMATCH_LISTINIT?MAC_SRCMATCH
FFA5F6H   FFA605H   000010H   BYTE   INSEG    CODE           ?PR?MAC_SRCMATCH_ENABLE?MAC_SRCMATCH
FFA606H   FFA88EH   000289H   BYTE   INSEG    CODE           ?PR?MAC_SRCMATCH_LISTCLEAR?MAC_SRCMATCH
FFA88FH   FFA8AFH   000021H   BYTE   INSEG    CODE           ?PR?MAC_SRCMATCH_LISTADD?MAC_SRCMATCH
FFA8B0H   FFA8CDH   00001EH   BYTE   INSEG    CODE           ?PR?MAC_SRCMATCH_LISTMODIFY?MAC_SRCMATCH
FFA8CEH   FFA962H   000095H   BYTE   INSEG    CODE           ?PR?MAC_SRCMATCH_LISTFINDSHORT?_?MAC_SRCMATCH
FFA963H   FFAA03H   0000A1H   BYTE   INSEG    CODE           ?PR?MAC_SRCMATCH_LISTADDSHORT?MAC_SRCMATCH
FFAA04H   FFAA74H   000071H   BYTE   INSEG    CODE           ?PR?MAC_SRCMATCH_LISTMODIFYSHORT?MAC_SRCMATCH
FFAA75H   FFAB18H   0000A4H   BYTE   INSEG    CODE           ?PR?MAC_SRCMATCH_LISTADDEXTENDED?MAC_SRCMATCH
FFAB19H   FFAB89H   000071H   BYTE   INSEG    CODE           ?PR?MAC_SRCMATCH_LISTMODIFYEXTENDED?MAC_SRCMATCH
FFAB8AH   FFAC0BH   000082H   BYTE   INSEG    CODE           ?PR?MAC_RXSCAN_GETSCANRESULT?MAC_RX_SCAN
FFAC0CH   FFAC56H   00004BH   BYTE   INSEG    CODE           ?PR?MSG_ISR?_?MSG_CTRL
FFAC57H   FFAC67H   000011H   BYTE   INSEG    CODE           ?PR?MSG_OUTMSGFORCEHANDLE?MSG_CTRL
FFAC68H   FFAC7CH   000015H   BYTE   INSEG    CODE           ?PR?HAL_ISWISUNHW?HAL
FFAC7DH   FFAC91H   000015H   BYTE   INSEG    CODE           ?PR?HAL_ISZIGBEEHW?HAL
FFAC92H   FFAEFDH   00026CH   BYTE   INSEG    CODE           ?PR?HAL_HWINIT?HAL_RT569MP_INIT
FFAEFEH   FFAF3FH   000042H   BYTE   INSEG    CODE           ?PR?HALRF_TXPWRSET2HW?HAL_RT569MP_RF
FFAF40H   FFAFA9H   00006AH   BYTE   INSEG    CODE           ?PR?HALRF_TXGAINTABLECFG?HAL_RT569MP_RF
FFAFAAH   FFAFB5H   00000CH   BYTE   UNIT     CODE           ?L?COM0041
FFAFB6H   FFAFE7H   000032H   BYTE   INSEG    CODE           ?PR?HALRF_ALLPATHDISABLE?HAL_RF
FFAFE8H   FFAFF6H   00000FH   BYTE   INSEG    CODE           ?PR?HAL_IS2GRF?HAL
FFAFF7H   FFB03EH   000048H   BYTE   INSEG    CODE           ?PR?HAL_CLKMODESET?HAL
FFB03FH   FFB03FH   000001H   BYTE   INSEG    CODE           ?PR?HAL_WATCHDOG?HAL
FFB040H   FFB0A4H   000065H   BYTE   INSEG    CODE           ?PR?HAL_PKTTYPESET?HAL
FFB0A5H   FFB15CH   0000B8H   BYTE   INSEG    CODE           ?PR?HALMAC_RXSFDSET?HAL_MAC
FFB15DH   FFB168H   00000CH   BYTE   INSEG    CODE           ?PR?HALMAC_RXMHRRPTLENSET?HAL_MAC
FFB169H   FFB187H   00001FH   BYTE   INSEG    CODE           ?PR?HALMAC_RXMAXPKTLENSET?HAL_MAC
FFB188H   FFB1B1H   00002AH   BYTE   INSEG    CODE           ?PR?HALMAC_PKTBITENDIANSET?HAL_MAC
FFB1B2H   FFB1BAH   000009H   BYTE   INSEG    CODE           ?PR?HALMAC_WHITENDFTGET?HAL_MAC
FFB1BBH   FFB1D1H   000017H   BYTE   INSEG    CODE           ?PR?HALMAC_SFDDFTGET?HAL_MAC
FFB1D2H   FFB22AH   000059H   BYTE   INSEG    CODE           ?PR?HALMAC_RXPAYLOADLENGET?HAL_MAC
FFB22BH   FFB28CH   000062H   BYTE   INSEG    CODE           ?PR?HALMAC_IFST2T?HAL_MAC
FFB28DH   FFB2B6H   00002AH   BYTE   INSEG    CODE           ?PR?HALTCON_TXTAILDELAYGET?HAL_RT569MP_TCON
FFB2B7H   FFB318H   000062H   BYTE   INSEG    CODE           ?PR?HALMAC_IFST2R?HAL_MAC
FFB319H   FFB34DH   000035H   BYTE   INSEG    CODE           ?PR?HALMAC_IFSR2R?HAL_MAC
FFB34EH   FFB39AH   00004DH   BYTE   INSEG    CODE           ?PR?HALTCON_RXTAILDELAYGET?HAL_RT569MP_TCON
FFB39BH   FFB3CFH   000035H   BYTE   INSEG    CODE           ?PR?HALMAC_IFSR2T?HAL_MAC
FFB3D0H   FFB448H   000079H   BYTE   INSEG    CODE           ?PR?HALPHY_DFESET?HAL_PHY
FFB449H   FFB5E6H   00019EH   BYTE   INSEG    CODE           ?PR?HALPHY_PARASET?HAL_PHY
FFB5E7H   FFB600H   00001AH   BYTE   INSEG    CODE           ?PR?HALPHY_RXDISABLE?HAL_PHY
L251 LINKER/LOCATER V4.66.93.0                                                        04/08/2024  14:48:14  PAGE 14


FFB601H   FFB63EH   00003EH   BYTE   INSEG    CODE           ?PR?HALPHY_RXENABLE?HAL_PHY
FFB63FH   FFB6ADH   00006FH   BYTE   INSEG    CODE           ?PR?HALRF_PLLCFG?HAL_RT569MP_RF
FFB6AEH   FFB884H   0001D7H   BYTE   INSEG    CODE           ?PR?HALPHY_TXENABLE?HAL_PHY
FFB885H   FFBB40H   0002BCH   BYTE   INSEG    CODE           ?PR?HALPHY_TXBWSET?HAL_PHY
FFBB41H   FFBF09H   0003C9H   BYTE   INSEG    CODE           ?PR?HALPHY_RXBWSET?HAL_PHY
FFBF0AH   FFBF5DH   000054H   BYTE   INSEG    CODE           ?PR?HALPHY_BLERXPARASET?HAL_PHY
FFBF5EH   FFBF7EH   000021H   BYTE   INSEG    CODE           ?PR?HALPHY_MODIDXSET?HAL_PHY
FFBF7FH   FFBFACH   00002EH   BYTE   UNIT     CODE           ?L?COM0006
FFBFADH   FFBFE7H   00003BH   BYTE   INSEG    CODE           ?PR?HALPHY_FSKRXPARASET?HAL_PHY
FFBFE8H   FFC072H   00008BH   BYTE   INSEG    CODE           ?PR?HALPHY_INPUTPWRGET?HAL_PHY
FFC073H   FFC0B4H   000042H   BYTE   INSEG    CODE           ?PR?HALRF_TXPWRSET?HAL_RF
FFC0B5H   FFC0BDH   000009H   BYTE   UNIT     CODE           ?L?COM0048
FFC0BEH   FFC128H   00006BH   BYTE   INSEG    CODE           ?PR?HALRF_TXPWRRPTGET?HAL_RF
FFC129H   FFC17AH   000052H   BYTE   INSEG    CODE           ?PR?HALRF_TXPWRCOMPCHUPDAT?HAL_RF
FFC17BH   FFC23AH   0000C0H   BYTE   INSEG    CODE           ?PR?HALRF_FREQ2GCFG?HAL_RT569MP_RF
FFC23BH   FFC2A4H   00006AH   BYTE   INSEG    CODE           ?PR?HALRF_FREQ2GCAL?HAL_RT569MP_RF
FFC2A5H   FFC343H   00009FH   BYTE   INSEG    CODE           ?PR?HALRF_IFCHECK?HAL_RT569MP_RF
FFC344H   FFC4F7H   0001B4H   BYTE   INSEG    CODE           ?PR?HALRF_FREQSUBGCFG?HAL_RT569MP_RF
FFC4F8H   FFC50EH   000017H   BYTE   INSEG    CODE           ?PR?HALRF_TEMPERATURERPTGET?HAL_RF
FFC50FH   FFC525H   000017H   BYTE   INSEG    CODE           ?PR?HALRF_VOLTAGERPTGET?HAL_RF
FFC526H   FFC53CH   000017H   BYTE   INSEG    CODE           ?PR?HALRF_RSSIOFFSETSET?HAL_RF
FFC53DH   FFC566H   00002AH   BYTE   INSEG    CODE           ?PR?HALSEC_AESLEVELONLYSET?HAL_SEC
FFC567H   FFC5DEH   000078H   BYTE   INSEG    CODE           ?PR?HALSEC_AESSET?HAL_SEC
FFC5DFH   FFC5F9H   00001BH   BYTE   INSEG    CODE           ?PR?HALSEC_AESTXSET?HAL_SEC
FFC5FAH   FFC6A1H   0000A8H   BYTE   INSEG    CODE           ?PR?HALRFK_CALIBRATION?HAL_RFK
FFC6A2H   FFC6AEH   00000DH   BYTE   INSEG    CODE           ?PR?HALRFK_SINGLETONEDISABLE?HAL_RT569MP_RFK
FFC6AFH   FFC6CCH   00001EH   BYTE   INSEG    CODE           ?PR?HALRFK_LBTRXDISABLE?HAL_RT569MP_RFK
FFC6CDH   FFC6EDH   000021H   BYTE   INSEG    CODE           ?PR?HALRFK_SINGLETONEENABLE?HAL_RT569MP_RFK
FFC6EEH   FFC70DH   000020H   BYTE   INSEG    CODE           ?PR?HALRFK_PLLFORLOKSET?HAL_RT569MP_RFK
FFC70EH   FFC72DH   000020H   BYTE   INSEG    CODE           ?PR?HALRFK_PLLFORSIDEBANDKSET?HAL_RT569MP_RFK
FFC72EH   FFC781H   000054H   BYTE   INSEG    CODE           ?PR?HALRFK_PLLFORFILTKSET?HAL_RT569MP_RFK
FFC782H   FFC7ECH   00006BH   BYTE   INSEG    CODE           ?PR?HALRFK_RFPLLCFG?HAL_RT569MP_RFK
FFC7EDH   FFC8B0H   0000C4H   BYTE   INSEG    CODE           ?PR?HALRFK_RFTXCFG?HAL_RT569MP_RFK
FFC8B1H   FFC93BH   00008BH   BYTE   INSEG    CODE           ?PR?HALRFK_PARARECOVER?HAL_RT569MP_RFK
FFC93CH   FFC953H   000018H   BYTE   UNIT     CODE           ?L?COM001A
FFC954H   FFCA09H   0000B6H   BYTE   INSEG    CODE           ?PR?HALRFK_LBPATHENABLE?HAL_RT569MP_RFK
FFCA0AH   FFCAF9H   0000F0H   BYTE   INSEG    CODE           ?PR?HALRFK_RINGPLLSET?HAL_RT569MP_RFK
FFCAFAH   FFCB51H   000058H   BYTE   INSEG    CODE           ?PR?HALRFK_KVALUESET?_?HAL_RFK
FFCB52H   FFCBDEH   00008DH   BYTE   INSEG    CODE           ?PR?HALRFK_KVALUESET2HW?HAL_RFK
FFCBDFH   FFCC32H   000054H   BYTE   INSEG    CODE           ?PR?HALRFK_KVALUEGET?_?HAL_RFK
FFCC33H   FFCC5FH   00002DH   BYTE   INSEG    CODE           ?PR?HALIO_DIOSET?HAL_IO
FFCC60H   FFCD48H   0000E9H   BYTE   INSEG    CODE           ?PR?HAL_PARAINIT?HAL_INIT
FFCD49H   FFCD69H   000021H   BYTE   INSEG    CODE           ?PR?HAL_COLDINIT?HAL_INIT
FFCD6AH   FFCD8AH   000021H   BYTE   INSEG    CODE           ?PR?HAL_DFTPARAGET?HAL_INIT
FFCD8BH   FFCE86H   0000FCH   BYTE   INSEG    CODE           ?PR?HALRFK_PARABACKUP?HAL_RT569MP_RFK
FFCE87H   FFCEFBH   000075H   BYTE   INSEG    CODE           ?PR?HALRFK_RXBWCFG?HAL_RT569MP_RFK
FFCEFCH   FFCF7EH   000083H   BYTE   INSEG    CODE           ?PR?HALRFK_TXLOK?HAL_RT569MP_RFK
FFCF7FH   FFCFF6H   000078H   BYTE   INSEG    CODE           ?PR?HALRFK_RSSIGET?HAL_RT569MP_RFK
FFCFF7H   FFD0C4H   0000CEH   BYTE   INSEG    CODE           ?PR?HALRFK_TXSBK?HAL_RT569MP_RFK
FFD0C5H   FFD0EBH   000027H   BYTE   INSEG    CODE           ?PR?HALRFK_LBPATHDISABLE?HAL_RT569MP_RFK
FFD0ECH   FFD193H   0000A8H   BYTE   INSEG    CODE           ?PR?HALRFK_RXFILTK?HAL_RT569MP_RFK
FFD194H   FFD203H   000070H   BYTE   INSEG    CODE           ?PR?HALRFK_RXPATHENABLE?HAL_RT569MP_RFK
FFD204H   FFD22EH   00002BH   BYTE   INSEG    CODE           ?PR?HALRFK_RXPATHDISABLE?HAL_RT569MP_RFK
FFD22FH   FFD2ADH   00007FH   BYTE   INSEG    CODE           ?PR?HALRFK_RXENABLE?HAL_RT569MP_RFK
FFD2AEH   FFD2CBH   00001EH   BYTE   INSEG    CODE           ?PR?HALRFK_RXDISABLE?HAL_RT569MP_RFK
FFD2CCH   FFD336H   00006BH   BYTE   INSEG    CODE           ?PR?HALRF_AGCINIT?HAL_RT569MP_RF
FFD337H   FFD337H   000001H   BYTE   INSEG    CODE           ?PR?HALRF_TEMPERATUREMEASURE?HAL_RT569MP_RF
FFD338H   FFD338H   000001H   BYTE   INSEG    CODE           ?PR?HALRF_VOLTAGEMEASURE?HAL_RT569MP_RF
FFD339H   FFD339H   000001H   BYTE   INSEG    CODE           ?PR?HALRF_EXTFEMINIT?HAL_RT569MP_RF
FFD33AH   FFD463H   00012AH   BYTE   INSEG    CODE           ?PR?HALTCON_INIT?HAL_RT569MP_TCON
FFD464H   FFD4B8H   000055H   BYTE   INSEG    CODE           ?PR?HALTCON_PRETXTIMESET?HAL_RT569MP_TCON
FFD4B9H   FFD4E5H   00002DH   BYTE   INSEG    CODE           ?PR?HALPMU_PWRMODESET?HAL_RT569MP_PMU
FFD4E6H   FFD502H   00001DH   BYTE   INSEG    CODE           ?PR?HALPMU_PWRMODEGET?HAL_RT569MP_PMU
FFD503H   FFD51FH   00001DH   BYTE   UNIT     CODE           ?L?COM001F
FFD520H   FFD52BH   00000CH   BYTE   UNIT     CODE           ?L?COM0046
L251 LINKER/LOCATER V4.66.93.0                                                        04/08/2024  14:48:14  PAGE 15





PUBLIC SYMBOLS OF MODULE:  .\obj\RT569 (?C_START)


      VALUE       CLASS    TYPE      PUBLIC SYMBOL NAME
      =================================================
      000000FFH   NUMBER   ---       ?C?CODESEG
      00FF0123H   CODE     ---       ?C?INITEDATA
      00FF0FEBH   HCONST   WORD      ?C?INITEDATA_END
      00FF0051H   CODE     ---       ?C?LIMUL
      00FF0040H   CODE     ---       ?C?LMUL
      00FF000EH   CODE     ---       ?C?SIDIV
      00FF0000H   CODE     ---       ?C?STARTUP
      00FF005CH   CODE     NEAR LAB  ?C?ULDIV
      00FF005AH   CODE     NEAR LAB  ?C?ULIDIV
      00000001H   NUMBER   ---       ?C?XDATASEG
      00FF0000H   CODE     ---       ?C_STARTUP
      0000B62CH   EDATA    BYTE      ?HALRF_IfCheck?BYTE
      0000B641H   EDATA    BYTE      ?HALRFK_RingPllSet?BYTE
      0000B61BH   EDATA    BYTE      ?HALSEC_AesSet?BYTE
      0000B46EH   EDATA    BYTE      ?RUCI_endianConvert?BYTE
      0000B401H   EDATA    BYTE      ?T2RTask_Set?BYTE
*SFR* 000000D0H.6 DATA     BIT       AC
*SFR* 000000E0H   DATA     BYTE      ACC
*SFR* 0000009DH   DATA     BYTE      ACON
      00FF0008H   CODE     ---       AllTask_Stop
      00FF00ADH   CODE     ---       ASM_MEMCPY
      00FF014FH   CODE     ---       ASM_MEMSET
*SFR* 000000F0H   DATA     BYTE      B
      00FF6D7EH   CODE     ---       BMU_FreqFlowCtrlSet
      00FF6DC8H   CODE     ---       BMU_H2MCmdGet
      00FF6CC5H   CODE     ---       BMU_HwInit
      00FF6C38H   CODE     ---       BMU_HwReset
      00FF70E0H   CODE     ---       BMU_LocalRxqStartAddGet
      00FF7124H   CODE     ---       BMU_LocalRxQueueGet
      00FF7CC2H   CODE     ---       BMU_LocalTxqStartAddGet
      00FF7DFCH   CODE     ---       BMU_LocalTxQueueGet
      00FF5DFAH   CODE     ---       BMU_LocalTxQueueSet
      00FF6B8DH   CODE     ---       BMU_LrxHwBufConfig
      00FF728CH   CODE     ---       BMU_LrxHwBufSet
      00FF7287H   CODE     ---       BMU_LrxHwBufStatusUpdate
      00FF77E1H   CODE     ---       BMU_LrxHwRxDoneBufGet
      00FF6BB5H   CODE     ---       BMU_LrxShareQConfig
      00FF7945H   CODE     ---       BMU_LrxShareQIsFull
      00FF7800H   CODE     ---       BMU_LrxShareQWoGet
      00FF78B5H   CODE     ---       BMU_LrxShareQWoUpdate
      00FF6E40H   CODE     ---       BMU_M2HCmdSet
      00FF6AC1H   CODE     ---       BMU_MemAllocate
      00FF7E36H   CODE     ---       BMU_PrivacyIrkClr
      00FF7FDCH   CODE     ---       BMU_PrivacyIrkFullSearch
      00FF7FA7H   CODE     ---       BMU_PrivacyIrkGet
      00FF7EA7H   CODE     ---       BMU_PrivacyIrkSet
      00FF7F6EH   CODE     ---       BMU_PrivacyIrkSingleSearch
      00FF7EE0H   CODE     ---       BMU_PrivacyLocalRpaGen
      00FF2DF5H   CODE     ---       BMU_RxConfig
      00FF7102H   CODE     ---       BMU_RxqStartAddGet
      00FF3E46H   CODE     ---       BMU_RxQueueGet
      00FF3DF8H   CODE     ---       BMU_RxQueueSet
      00FF6EC4H   CODE     ---       BMU_TrxQueueGet
      00FF6FD2H   CODE     ---       BMU_TrxQueueSet
      00FF5A34H   CODE     ---       BMU_TxConfig
      00FF7D63H   CODE     ---       BMU_TxPktLengthGet
      00FF7D2BH   CODE     ---       BMU_TxqPktSearch
L251 LINKER/LOCATER V4.66.93.0                                                        04/08/2024  14:48:14  PAGE 16


      00FF7CE4H   CODE     ---       BMU_TxqStartAddGet
      00FF7D07H   CODE     ---       BMU_TxqStatusRecovery
      00FF6D67H   CODE     ---       BMU_TxqStatusUpd
      00FF598EH   CODE     ---       BMU_TxQueueClear
      00FF5924H   CODE     ---       BMU_TxQueueGet
      0000B5ADH   EDATA    BYTE      bmuLrxManualCfg
      0000B5A8H   EDATA    ---       bmuLrxSwqCtrl
      00FF13B3H   HCONST   ---       bmuMemSizeHwRxq
      00FF13BBH   HCONST   ---       bmuMemSizeHwSwRxq
*SFR* 000000C8H.1 DATA     BIT       C_T2
*SFR* 000000CEH   DATA     BYTE      CCEN
*SFR* 000000D8H.0 DATA     BIT       CCF0
*SFR* 000000D8H.1 DATA     BIT       CCF1
*SFR* 000000D8H.2 DATA     BIT       CCF2
*SFR* 000000D8H.3 DATA     BIT       CCF3
*SFR* 000000D8H.4 DATA     BIT       CCF4
*SFR* 000000C3H   DATA     BYTE      CCH1
*SFR* 000000C5H   DATA     BYTE      CCH2
*SFR* 000000C7H   DATA     BYTE      CCH3
*SFR* 000000C2H   DATA     BYTE      CCL1
*SFR* 000000C4H   DATA     BYTE      CCL2
*SFR* 000000C6H   DATA     BYTE      CCL3
*SFR* 00000090H.3 DATA     BIT       CEX0
*SFR* 00000090H.4 DATA     BIT       CEX1
*SFR* 00000090H.5 DATA     BIT       CEX2
*SFR* 00000090H.6 DATA     BIT       CEX3
*SFR* 00000090H.7 DATA     BIT       CEX4
*SFR* 000000D8H.7 DATA     BIT       CF
*SFR* 0000008EH   DATA     BYTE      CKCON
      00FF67CDH   CODE     ---       CMD_CnfEventSend
      00FF698BH   CODE     ---       CMN_CmdHal_GetTemperatureRpt
      00FF6998H   CODE     ---       CMN_CmdHal_GetVoltageRpt
      00FF67AAH   CODE     ---       CMN_CmdHal_SetAgc
      00FF6814H   CODE     ---       CMN_CmdHal_SetCalibrationEnable
      00FF6A21H   CODE     ---       CMN_CmdHal_SetCalibrationSetting
      00FF6981H   CODE     ---       CMN_CmdHal_SetPmuMpkSetting
      00FF69A5H   CODE     ---       CMN_CmdHal_SetPmuOpMode
      00FF69BFH   CODE     ---       CMN_CmdHal_SetRssiOffset
      00FF6A55H   CODE     ---       CMN_CmdHal_SetTxPower
      00FF69FBH   CODE     ---       CMN_CmdHal_SetTxPowerBy
      00FF6A8AH   CODE     ---       CMN_CmdHal_SetTxPowerOqpsk
      00FF68A0H   CODE     ---       CMN_CmdHal_SetTxPwrChComp
      00FF68B6H   CODE     ---       CMN_CmdHal_SetTxPwrChSegment
      00FF68CCH   CODE     ---       CMN_CmdHal_SetTxPwrComp
      00FF47DAH   CODE     ---       CMN_CmdSys_GetRfbFwVer
      00FF45FFH   CODE     ---       CMN_GetFwVerEventSend
      00FF4547H   CODE     ---       CMN_GetTemperatureRptEventSend
      00FF44EEH   CODE     ---       CMN_GetVoltageRptEventSend
      00FF47FCH   CODE     ---       CMN_SetCalibrationEnableEventSend
      00FF1489H   CODE     ---       common_isr_init
      00FF58A9H   CODE     ---       common_isrBmuCheckTx
      00FF67A0H   CODE     ---       common_isrBmuHandler
      00FF602DH   CODE     ---       Common_IsrBmuTxQAdd?_
      00FF623CH   CODE     ---       Common_IsrBmuTxQDeleteAllByCondition?_
      00FF63ABH   CODE     ---       Common_IsrBmuTxQDeleteByPtr?_
      00FF60EBH   CODE     ---       Common_IsrBmuTxQGetByHandle?_
      00FF6730H   CODE     ---       Common_IsrBmuTxQInit
      00FF61A3H   CODE     ---       Common_IsrBmuTxQPciGet
*SFR* 000000C8H.0 DATA     BIT       CP_RL2
*SFR* 000000D8H.7 DATA     BIT       CPUSRF
*SFR* 000000D8H.6 DATA     BIT       CR
*SFR* 000000CBH   DATA     BYTE      CRCH
*SFR* 000000CAH   DATA     BYTE      CRCL
*SFR* 000000D0H.7 DATA     BIT       CY
*SFR* 000000CFH   DATA     BYTE      DEVICR
L251 LINKER/LOCATER V4.66.93.0                                                        04/08/2024  14:48:14  PAGE 17


*SFR* 0000008FH   DATA     BYTE      DMAIR
*SFR* 00000083H   DATA     BYTE      DPH
*SFR* 00000083H   DATA     BYTE      DPH1
*SFR* 00000082H   DATA     BYTE      DPL
*SFR* 00000082H   DATA     BYTE      DPL1
*SFR* 00000086H   DATA     BYTE      DPS
*SFR* 00000084H   DATA     BYTE      DPX1
*SFR* 00000084H   DATA     BYTE      DPXL
*SFR* 000000A8H.7 DATA     BIT       EA
*SFR* 000000A8H.6 DATA     BIT       EC
*SFR* 00000090H.2 DATA     BIT       ECI
*SFR* 000000E8H   DATA     BYTE      EIE
*SFR* 00000091H   DATA     BYTE      EIF
*SFR* 000000F8H   DATA     BYTE      EIP
*SFR* 000000B6H   DATA     BYTE      EIPH
*SFR* 000000B6H   DATA     BYTE      EIPH0
*SFR* 000000F8H   DATA     BYTE      EIPL
*SFR* 000000A8H.4 DATA     BIT       ES
*SFR* 000000A8H.4 DATA     BIT       ES0
*SFR* 000000A8H.6 DATA     BIT       ES1
*SFR* 000000A8H.1 DATA     BIT       ET0
*SFR* 000000A8H.3 DATA     BIT       ET1
*SFR* 000000A8H.5 DATA     BIT       ET2
*SFR* 000000D8H.1 DATA     BIT       EWT
*SFR* 000000A8H.0 DATA     BIT       EX0
*SFR* 000000A8H.2 DATA     BIT       EX1
*SFR* 000000C8H.3 DATA     BIT       EXEN2
*SFR* 000000C8H.6 DATA     BIT       EXF2
*SFR* 000000D0H.5 DATA     BIT       F0
*SFR* 00000098H.7 DATA     BIT       FE
      0000B2FFH   EDATA    BYTE      first_scan_enable
      0000B3CFH   EDATA    ---       g15p4Mac
      0000B3E2H   EDATA    ---       g15p4Phy
      0000B0C2H   EDATA    ---       g_mac_htrp_ctrl
      0000B1F4H   EDATA    BYTE      g_mac_htrp_rx_commit_type
      0000B648H   EDATA    BYTE      g_mac_htrp_rx_set_ch_time
      0000B647H   EDATA    BYTE      g_mac_htrp_rx_state
      0000B649H   EDATA    BYTE      g_mac_htrp_rx_sync_time
      0000B1F5H   EDATA    ---       g_mac_htrp_tx_local_data
      0000B662H   EDATA    BYTE      g_mac_htrp_tx_set_ch_time
      0000B661H   EDATA    BYTE      g_mac_htrp_tx_state
      0000B5B0H   EDATA    ---       g_mac_isr_cb_handle
      0000A91FH   EDATA    BYTE      gBackoffExpIdx
      0000B215H   EDATA    ---       gBmuDataList
      0000B211H   EDATA    ---       gBmuDataListHead
      0000B213H   EDATA    ---       gBmuDataListTail
      0000B206H   EDATA    ---       gBmuDataTxCtrlField
      0000B1FFH   EDATA    ---       gBmuDataTxQList
      00FF124EH   HCONST   ---       gCmnHalCmdLen
      00FF124CH   HCONST   ---       gCmnSysCmdLen
      0000A91EH   EDATA    BYTE      gCsmacaRetry
      00FF35E1H   CODE     ---       get_pan_number
      0000B486H   EDATA    ---       gIntrRegMask
      0000B48EH   EDATA    ---       gIntrRfHdlrTable
      0000B5D7H   EDATA    DWORD     gLastWakeTick
      0000B614H   EDATA    DWORD     gMac_Frame_Pending_Rx_Time
      0000B1FDH   EDATA    ---       gMac_htrp_rx_done_hdl
      0000B1FBH   EDATA    ---       gMac_htrp_tx_done_hdl
      0000A0E0H   EDATA    ---       gMacBuf
      0000B310H   EDATA    ---       gMacFunCtrl
      0000B311H   EDATA    ---       gMacFunEventQ
      0000A09DH   EDATA    ---       gMacHdr
      0000B32BH   EDATA    ---       gMacIntEventQ
      0000B28FH   EDATA    ---       gMacPib
      0000B28DH   EDATA    INT       gMacRaaState
L251 LINKER/LOCATER V4.66.93.0                                                        04/08/2024  14:48:14  PAGE 18


      0000B3FCH   EDATA    ---       gMacRfeRpt
      0000B3EDH   EDATA    ---       gMacRfeRxCtrl
      0000B3EBH   EDATA    INT       gMacRfeRxState
      0000B466H   EDATA    ---       gMacRfeTxCtrl
      0000B464H   EDATA    INT       gMacRfeTxState
      0000A024H   EDATA    ---       gMacRxPar
      0000B36AH   EDATA    ---       gMacRxScanCtrl
      0000A934H   EDATA    ---       gMacSrcCtrl
      0000A000H   EDATA    INT       gMacTarState
      0000A002H   EDATA    ---       gMacTxPar
      00FF123BH   HCONST   ---       gPci15p4MacCmdLen
      00FF1230H   HCONST   ---       gPciBleCmdLen
      00FF120BH   HCONST   ---       gPciCommonCmdLen
      00FF122AH   HCONST   ---       gPciFskCmdLen
      00FF1248H   HCONST   ---       gPciOqpskCmdLen
      0000A918H   EDATA    ---       gPhyStatus
      0000B300H   EDATA    ---       gRaa_Sch_Handler_Entry
      0000A91DH   EDATA    BYTE      gRetransmissionCount
      0000B3CEH   EDATA    BYTE      gSleepEnable
      0000B5DBH   EDATA    ---       gSysEntry_Sleep
      0000B5E9H   EDATA    ---       gSysRtcHdlrTable
      0000A920H   EDATA    ---       gTar_ScheHandler_Entry
      0000B5F5H   EDATA    BYTE      gTaskMask
      0000B5F6H   EDATA    ---       gTaskTable
      00FFAFF7H   CODE     ---       HAL_ClkModeSet
      00FFCD49H   CODE     ---       HAL_ColdInit
      00FFCD6AH   CODE     ---       HAL_DftParaGet
      00FFAC92H   CODE     ---       HAL_HwInit
      00FF5FD3H   CODE     ---       HAL_HwModeGet
      00FF4E2FH   CODE     ---       HAL_HwModeInit?_
      00FFAFE8H   CODE     ---       HAL_Is2gRf
      00FF2FBFH   CODE     ---       HAL_IsBleHw
      00FF4C09H   CODE     ---       HAL_IsSubgRf
      00FFAC68H   CODE     ---       HAL_IsWisunHw
      00FFAC7DH   CODE     ---       HAL_IsZigbeeHw
      00FFCC60H   CODE     ---       HAL_ParaInit
      00FFB040H   CODE     ---       HAL_PktTypeSet
      00FFB03FH   CODE     ---       HAL_Watchdog
      00FFCC33H   CODE     ---       HALIO_dioSet
      00FF4CC4H   CODE     ---       HALMAC_CrcInitDftGet
      00FF5F2EH   CODE     ---       HALMAC_CrcLenCfgGet
      00FF4CFEH   CODE     ---       HALMAC_CrcSet
      00FFB319H   CODE     ---       HALMAC_IfsR2R
      00FFB39BH   CODE     ---       HALMAC_IfsR2T
      00FFB2B7H   CODE     ---       HALMAC_IfsT2R
      00FFB22BH   CODE     ---       HALMAC_IfsT2T
      00FF2E80H   CODE     ---       HALMAC_MaxPayloadDftGet
      00FF5FA9H   CODE     ---       HALMAC_MaxPayloadLenGet
      00FF7265H   CODE     ---       HALMAC_PhrLenCfgGet
      00FF2571H   CODE     ---       HALMAC_PhrSet
      00FFB188H   CODE     ---       HALMAC_PktBitEndianSet
      00FFB169H   CODE     ---       HALMAC_RxMaxPktLenSet
      00FFB15DH   CODE     ---       HALMAC_RxMhrRptLenSet
      00FFB1D2H   CODE     ---       HALMAC_RxPayloadLenGet
      00FF4FF7H   CODE     ---       HALMAC_RxPreambleSet
      00FFB0A5H   CODE     ---       HALMAC_RxSfdSet
      00FFB1BBH   CODE     ---       HALMAC_SfdDftGet
      00FF4FE8H   CODE     ---       HALMAC_TxPreambleSet
      00FF357DH   CODE     ---       HALMAC_TxSfdSet
      00FF5CD0H   CODE     ---       HALMAC_TxTypeSet
      00FFB1B2H   CODE     ---       HALMAC_WhitenDftGet
      00FF4C67H   CODE     ---       HALMAC_WhitenInitDftGet
      00FF4CDBH   CODE     ---       HALMAC_WhitenSet
      00FFBF0AH   CODE     ---       HALPHY_BleRxParaSet
      00FFB3D0H   CODE     ---       HALPHY_DfeSet
L251 LINKER/LOCATER V4.66.93.0                                                        04/08/2024  14:48:14  PAGE 19


      00FFBFADH   CODE     ---       HALPHY_FskRxParaSet
      00FF4AA4H   CODE     ---       HALPHY_GaussianFiltSet
      00FFBFE8H   CODE     ---       HALPHY_InputPwrGet
      00FFBF5EH   CODE     ---       HALPHY_ModIdxSet
      00FFB449H   CODE     ---       HALPHY_ParaSet
      00FF4AD8H   CODE     ---       HALPHY_PreamNumSet
      00FFBB41H   CODE     ---       HALPHY_RxBwSet
      00FFB5E7H   CODE     ---       HALPHY_RxDisable
      00FFB601H   CODE     ---       HALPHY_RxEnable
      00FFB885H   CODE     ---       HALPHY_TxBwSet
      00FFB6AEH   CODE     ---       HALPHY_TxEnable
      00FF3D84H   CODE     ---       HALPKT_PhyStatusGet
      00FF2877H   CODE     ---       HALPKT_RxqDoneSet
      00FF259BH   CODE     ---       HALPKT_TxqDoneSet
      00FFD4E6H   CODE     ---       HALPMU_PwrModeGet
      00FFD4B9H   CODE     ---       HALPMU_PwrModeSet
      00FFD2CCH   CODE     ---       HALRF_AgcInit
      00FF8F8AH   CODE     ---       HALRF_AgcSet
      00FF8EDCH   CODE     ---       HALRF_AgcSet2Hw
      00FFAFB6H   CODE     ---       HALRF_AllPathDisable
      00FFD339H   CODE     ---       HALRF_ExtFemInit
      00FFC23BH   CODE     ---       HALRF_Freq2gCal
      00FFC17BH   CODE     ---       HALRF_Freq2gCfg
      00FFC344H   CODE     ---       HALRF_FreqSubgCfg
      00FFC2A5H   CODE     ---       HALRF_IfCheck
      00FFB63FH   CODE     ---       HALRF_PllCfg
      00FFC526H   CODE     ---       HALRF_RssiOffsetSet
      00FFD337H   CODE     ---       HALRF_TemperatureMeasure
      00FFC4F8H   CODE     ---       HALRF_TemperatureRptGet
      00FFAF40H   CODE     ---       HALRF_TxGainTableCfg
      00FF6958H   CODE     ---       HALRF_TxPwrChCompSet
      00FF69DBH   CODE     ---       HALRF_TxPwrChSegSet
      00FFC129H   CODE     ---       HALRF_TxPwrCompChUpdat
      00FF68EAH   CODE     ---       HALRF_TxPwrCompSet
      00FF4B98H   CODE     ---       HALRF_TxPwrCompSet2Hw
      00FF690DH   CODE     ---       HALRF_TxPwrCompUpdate
      00FFC0BEH   CODE     ---       HALRF_TxPwrRptGet
      00FFC073H   CODE     ---       HALRF_TxPwrSet
      00FFAEFEH   CODE     ---       HALRF_TxPwrSet2Hw
      00FFD338H   CODE     ---       HALRF_VoltageMeasure
      00FFC50FH   CODE     ---       HALRF_VoltageRptGet
      00FFC5FAH   CODE     ---       HALRFK_Calibration
      00FFCBDFH   CODE     ---       HALRFK_kValueGet?_
      00FFCB52H   CODE     ---       HALRFK_kValueSet2Hw
      00FFCAFAH   CODE     ---       HALRFK_kValueSet?_
      00FFD0C5H   CODE     ---       HALRFK_LbPathDisable
      00FFC954H   CODE     ---       HALRFK_LbPathEnable
      00FFC6AFH   CODE     ---       HALRFK_LbTrxDisable
      00FF2EF9H   CODE     ---       HALRFK_LbTrxEnable
      00FFCD8BH   CODE     ---       HALRFK_ParaBackUp
      00FFC8B1H   CODE     ---       HALRFK_ParaRecover
      00FFC72EH   CODE     ---       HALRFK_PllForFiltKSet
      00FFC6EEH   CODE     ---       HALRFK_PllForLokSet
      00FFC70EH   CODE     ---       HALRFK_PllForSideBandKSet
      00FF8FA3H   CODE     ---       HALRFK_RfGainCfg
      00FFC782H   CODE     ---       HALRFK_RfPllCfg
      00FFC801H   CODE     ---       HALRFK_RfTxCfg
      00FFCA0AH   CODE     ---       HALRFK_RingPllSet
      00FFCF8BH   CODE     ---       HALRFK_RssiGet
      00FFCE87H   CODE     ---       HALRFK_RxBwCfg
      00FFD2AEH   CODE     ---       HALRFK_RxDisable
      00FFD22FH   CODE     ---       HALRFK_RxEnable
      00FFD0ECH   CODE     ---       HALRFK_RxFiltK
      00FFD204H   CODE     ---       HALRFK_RxPathDisable
      00FFD194H   CODE     ---       HALRFK_RxPathEnable
L251 LINKER/LOCATER V4.66.93.0                                                        04/08/2024  14:48:14  PAGE 20


      00FFC6A2H   CODE     ---       HALRFK_SingleToneDisable
      00FFC6D1H   CODE     ---       HALRFK_SingleToneEnable
      00FFCEFCH   CODE     ---       HALRFK_TxLok
      00FFCFF7H   CODE     ---       HALRFK_TxSbk
      00FF3D69H   CODE     ---       HALSEC_AesKeyOnlySet
      00FF365EH   CODE     ---       HALSEC_AesKeySet
      00FFC53DH   CODE     ---       HALSEC_AesLevelOnlySet
      00FFC567H   CODE     ---       HALSEC_AesSet
      00FFC5DFH   CODE     ---       HALSEC_AesTxSet
      00FF3D5CH   CODE     ---       HALSEC_NonceOnlySet
      00FFD33AH   CODE     ---       HALTCON_Init
      00FFD464H   CODE     ---       HALTCON_PreTxTimeSet
      00FFB352H   CODE     ---       HALTCON_RxTailDelayGet
      00FFB28DH   CODE     ---       HALTCON_TxTailDelayGet
      00FF01AFH   CODE     ---       hmemcpy?_
*SFR* 000000F6H   DATA     BYTE      I2CM_BUF
*SFR* 000000F5H   DATA     BYTE      I2CM_CR
*SFR* 000000F4H   DATA     BYTE      I2CM_SA
*SFR* 000000F7H   DATA     BYTE      I2CM_TP
*SFR* 000000F1H   DATA     BYTE      I2CS_ADDR
*SFR* 000000F3H   DATA     BYTE      I2CS_BUF
*SFR* 000000F2H   DATA     BYTE      I2CS_CR
*SFR* 000000C8H.5 DATA     BIT       I2FR
*SFR* 000000C8H.6 DATA     BIT       I3FR
*SFR* 000000A8H   DATA     BYTE      IE
*SFR* 00000088H.1 DATA     BIT       IE0
*SFR* 00000088H.1 DATA     BIT       IE0_
*SFR* 00000088H.3 DATA     BIT       IE1
*SFR* 00000088H.3 DATA     BIT       IE1_
*SFR* 000000B1H   DATA     BYTE      IEH
*SFR* 000000A8H   DATA     BYTE      IEL
*SFR* 000000B0H.2 DATA     BIT       INT0
*SFR* 000000B0H.3 DATA     BIT       INT1
      00FF1FFBH   CODE     ---       INTR_Clear
      00FF2024H   CODE     ---       INTR_ClearRtcGrp
      00FF17E9H   CODE     ---       INTR_Enable
      00FF2035H   CODE     ---       INTR_Rf_Hdlr
      00FF143CH   CODE     ---       INTR_Rf_Register
*SFR* 000000B8H   DATA     BYTE      IP
*SFR* 000000B7H   DATA     BYTE      IPH
*SFR* 000000B7H   DATA     BYTE      IPH0
*SFR* 000000B8H   DATA     BYTE      IPL
*SFR* 000000B8H   DATA     BYTE      IPL0
      00FF2044H   CODE     ---       ISR_0_Hdlr
      00FF3805H   CODE     ---       ISR_1_Hdlr
      00FF2857H   CODE     ---       ISR_CLEAR_MAC_STATUS
      00FF37F6H   CODE     ---       ISR_GET_MAC_STATUS
*SFR* 00000088H.0 DATA     BIT       IT0
*SFR* 00000088H.2 DATA     BIT       IT1
      00FF81F6H   CODE     ---       mac
      00FF9F24H   CODE     ---       MAC_AckFrameCheck
      00FF5D49H   CODE     ---       MAC_AckSet
      00FF3048H   CODE     ---       MAC_BackoffTimeCal
      00FF87FFH   CODE     ---       mac_BmuIsrInit
      00FF2FEDH   CODE     ---       MAC_CcaStart
      00FF808EH   CODE     ---       MAC_CcaStatusGet
      00FF8254H   CODE     ---       mac_CheckBmuErr
      00FF81E4H   CODE     ---       mac_CheckIsrRxReceived
      00FF8069H   CODE     ---       mac_CheckRxBusy
      00FF48BAH   CODE     ---       MAC_CmdQueueParse
      00FF34FCH   CODE     ---       Mac_endianConvert
      00FF2868H   CODE     ---       mac_FatalClear
      00FF9CC6H   CODE     ---       mac_Filter?_
      00FF2732H   CODE     ---       mac_FunEventQAdd?_
      00FF249EH   CODE     ---       mac_FunEventQGet?_
L251 LINKER/LOCATER V4.66.93.0                                                        04/08/2024  14:48:14  PAGE 21


      00FF8288H   CODE     ---       mac_FunEventQInit
      00FF2E89H   CODE     ---       mac_FunEventQueueExist
      00FF5FE8H   CODE     ---       mac_genAck
      00FF9BA2H   CODE     ---       mac_genAckFrmCtrl
      00FF31AAH   CODE     ---       mac_genEnhAck
      00FF9C14H   CODE     ---       mac_getCslPhase
      00FFA3B6H   CODE     ---       mac_htrp_check_rx_conn_status
      00FF7995H   CODE     ---       mac_htrp_check_rx_valid
      00FF78D3H   CODE     ---       mac_htrp_clear_rx_queue
      00FF65CFH   CODE     ---       mac_htrp_clear_tx_queue
      00FF1FE3H   CODE     ---       mac_htrp_ctrl_channel_set
      00FFA343H   CODE     ---       mac_htrp_ctrl_clear_pkt_cnt
      00FFA32BH   CODE     ---       mac_htrp_ctrl_get_channel
      00FF742CH   CODE     ---       mac_htrp_ctrl_increase_channel_index
      00FF77BFH   CODE     ---       mac_htrp_ctrl_increase_cur_block
      00FF7A40H   CODE     ---       mac_htrp_ctrl_increase_pkt_cnt
      00FF733EH   CODE     ---       mac_htrp_ctrl_increase_slot_index
      00FFA3D5H   CODE     ---       mac_htrp_ctrl_init
      00FF90C1H   CODE     ---       mac_htrp_ctrl_set_channel_map_from_bmu
      00FFA368H   CODE     ---       mac_htrp_ctrl_slot_sync
      00FF782EH   CODE     ---       mac_htrp_get_rx_sw_queue_wo_addr
      00FF248BH   CODE     ---       mac_htrp_get_tx_data
      00FF276FH   CODE     ---       mac_htrp_is_allow_sleep_state
      00FFA392H   CODE     ---       mac_htrp_isr_rx_done_handler
      00FF26F5H   CODE     ---       mac_htrp_isr_tx_done_handler
      00FF3F82H   CODE     ---       mac_htrp_ready_to_sleep
      00FF2482H   CODE     ---       mac_htrp_reg_isr_cb
      00FF7830H   CODE     ---       mac_htrp_relay_data_to_sw_rxq
      00FF91A2H   CODE     ---       mac_htrp_reset_rx_conn_status
      00FFA3F8H   CODE     ---       mac_htrp_rtc_isr_handler
      00FF7702H   CODE     ---       mac_htrp_rx_burst_rx_done
      00FF7742H   CODE     ---       mac_htrp_rx_cal_drift_time
      00FF27ACH   CODE     ---       mac_htrp_rx_get_state
      00FF1BAEH   CODE     ---       mac_htrp_rx_handler
      00FFA3FEH   CODE     ---       mac_htrp_rx_init
      00FF79E6H   CODE     ---       mac_htrp_rx_period_rx_done
      00FFA51EH   CODE     ---       mac_htrp_rx_period_tx_done
      00FF7641H   CODE     ---       mac_htrp_rx_set_next_task_and_channel
      00FF7AA2H   CODE     ---       mac_htrp_rx_set_period_next_task
      00FF1AF5H   CODE     ---       mac_htrp_rx_set_rf_task
      00FF1F79H   CODE     ---       mac_htrp_rx_set_state
      00FFA427H   CODE     ---       mac_htrp_rx_slot_rx_done
      00FF77B7H   CODE     ---       mac_htrp_rx_slot_tx_done
      00FF65C4H   CODE     ---       mac_htrp_send_tx_done
      00FF27E2H   CODE     ---       mac_htrp_set_disable
      00FF75F2H   CODE     ---       mac_htrp_set_rx_hw_queue
      00FF75E7H   CODE     ---       mac_htrp_set_rx_queue
      00FF2FD2H   CODE     ---       mac_htrp_set_rx_sw_queue
      00FF913EH   CODE     ---       mac_htrp_set_sec_para
      00FF2394H   CODE     ---       mac_htrp_set_tx_queue
      00FF3DB7H   CODE     ---       mac_htrp_sleep_ctrl
      00FF587BH   CODE     ---       mac_htrp_sleep_init
      00FF744EH   CODE     ---       mac_htrp_tx_burst_tx_done
      00FF276AH   CODE     ---       mac_htrp_tx_get_state
      00FF2137H   CODE     ---       mac_htrp_tx_handler
      00FF17EEH   CODE     ---       mac_htrp_tx_init
      00FF735FH   CODE     ---       mac_htrp_tx_period_burst_rx_done
      00FF755BH   CODE     ---       mac_htrp_tx_period_burst_tx_done
      00FF749AH   CODE     ---       mac_htrp_tx_set_rf_task
      00FF238DH   CODE     ---       mac_htrp_tx_set_state
      00FF7298H   CODE     ---       mac_htrp_tx_slot_rx_done
      00FF75DBH   CODE     ---       mac_htrp_tx_slot_tx_done
      00FF7288H   CODE     ---       mac_htrp_update_lrx_buf_status
      00FF1498H   CODE     ---       mac_Init
      00FF2614H   CODE     ---       mac_IntEventQAdd?_
L251 LINKER/LOCATER V4.66.93.0                                                        04/08/2024  14:48:14  PAGE 22


      00FF27FBH   CODE     ---       mac_IntEventQGet?_
      00FF8294H   CODE     ---       mac_IntEventQInit
      00FF25DFH   CODE     ---       mac_IntEventQueueClearTxData
      00FF3F9DH   CODE     ---       mac_IntEventQueueExist
      00FF27C2H   CODE     ---       mac_IntEventQueueHandler
      00FF5FDBH   CODE     ---       mac_isr_reg_cb
      00FF876EH   CODE     ---       mac_IsrHandler
      00FF17DDH   CODE     ---       mac_IsrInit
      00FF873FH   CODE     ---       MAC_MhrParse
      00FF9C55H   CODE     ---       MAC_NonceGen
      00FF9F0BH   CODE     ---       mac_org_cca_done_handler
      00FF9A3BH   CODE     ---       mac_org_mhr_done_handler
      00FF8749H   CODE     ---       mac_org_rx_done_handler
      00FF27EBH   CODE     ---       mac_org_tx_done_handler
      00FF8545H   CODE     ---       mac_parseHdr
      00FF9431H   CODE     ---       mac_Raa_SchConfigHdlr
      00FF99EBH   CODE     ---       mac_Raa_SchEndHdlr
      00FF9952H   CODE     ---       mac_Raa_SchInitHdlr
      00FF9A3AH   CODE     ---       mac_Raa_SchReservedHdlr
      00FF24CBH   CODE     ---       mac_Raa_SchWaitMHRHdlr
      00FF99EAH   CODE     ---       mac_Raa_SchWaitResumeHdlr
      00FF9953H   CODE     ---       mac_Raa_SchWaitRxDoneHdlr
      00FF662CH   CODE     ---       mac_Raa_SchWaitTxDoneHdlr
      00FF6613H   CODE     ---       Mac_RaaClearAckQandGenRxData
      00FF3820H   CODE     ---       Mac_RaaRxDoneHandle?_
      00FF822CH   CODE     ---       MAC_RaaSchedule
      00FFA292H   CODE     ---       MAC_RfeDataGen
      00FF2FB1H   CODE     ---       MAC_RfeRxAonTaskDisable
      00FF719CH   CODE     ---       MAC_RfeRxDataConfirm
      00FF2F6AH   CODE     ---       MAC_RfeRxDisable
      00FF55DDH   CODE     ---       MAC_RfeRxParInit
      00FFA111H   CODE     ---       MAC_RfeRxRptGet
      00FF2A81H   CODE     ---       MAC_RfeRxSchedule
      00FFA124H   CODE     ---       MAC_RfeSecLbHwSet
      00FFA242H   CODE     ---       MAC_RfeTxHwSecSet
      00FF5E85H   CODE     ---       MAC_RfeTxParInit
      00FFA1CFH   CODE     ---       MAC_RfeTxPktLenUpdate
      00FF1514H   CODE     ---       MAC_RfeTxSchedule
      00FFA188H   CODE     ---       MAC_RfeTxTaskSet
      00FF354FH   CODE     ---       mac_RssiInfoCalc
      00FF3BB9H   CODE     ---       MAC_RxDoneEventGen?_
      00FF2D85H   CODE     ---       MAC_RxHwSet
      00FF9A58H   CODE     ---       MAC_RXQ_CPY?_
      00FF96BAH   CODE     ---       MAC_RxScan_Config
      00FFAB8AH   CODE     ---       MAC_RxScan_GetScanResult
      00FF37D4H   CODE     ---       MAC_RxScan_HwDeInit
      00FF9652H   CODE     ---       MAC_RxScan_HwInit
      00FF96F2H   CODE     ---       MAC_RxScan_HwRegBackup
      00FF36DDH   CODE     ---       MAC_RxScan_HwRegRestore
      00FF96C7H   CODE     ---       MAC_RxScan_PllAlwaysOn
      00FF30EBH   CODE     ---       MAC_RxScan_R2tTaskRestart
      00FF313FH   CODE     ---       MAC_RxScan_SwitchToNextFrequency
      00FF99B3H   CODE     ---       MAC_RxScan_TaskRestart
      00FF95E2H   CODE     ---       MAC_RxScan_TaskStart
      00FF2E98H   CODE     ---       MAC_ScanVco_Get
      00FF5F47H   CODE     ---       MAC_SecLbHwSet
      00FF3EA9H   CODE     ---       MAC_SleepCheck
      00FFA5F6H   CODE     ---       MAC_SrcMatch_Enable
      00FF3562H   CODE     ---       MAC_SrcMatch_EnableStatusGet
      00FFA88FH   CODE     ---       MAC_SrcMatch_ListAdd
      00FFAA75H   CODE     ---       MAC_SrcMatch_ListAddExtended
      00FFA963H   CODE     ---       MAC_SrcMatch_ListAddShort
      00FFA606H   CODE     ---       MAC_SrcMatch_ListClear
      00FF3590H   CODE     ---       MAC_SrcMatch_ListFind
      00FFA463H   CODE     ---       MAC_SrcMatch_ListFindExtended?_
L251 LINKER/LOCATER V4.66.93.0                                                        04/08/2024  14:48:14  PAGE 23


      00FFA56DH   CODE     ---       MAC_SrcMatch_ListFindIdx
      00FFA8CEH   CODE     ---       MAC_SrcMatch_ListFindShort?_
      00FFA58EH   CODE     ---       MAC_SrcMatch_ListInit
      00FFA8B0H   CODE     ---       MAC_SrcMatch_ListModify
      00FFAB19H   CODE     ---       MAC_SrcMatch_ListModifyExtended
      00FFAA04H   CODE     ---       MAC_SrcMatch_ListModifyShort
      00FF2FE9H   CODE     ---       mac_tar_cca_setup
      00FFA055H   CODE     ---       mac_tar_check_data_requst
      00FF5C1BH   CODE     ---       mac_Tar_SchConfigHdlr
      00FF9EDAH   CODE     ---       mac_Tar_SchEndHdlr
      00FF9ED9H   CODE     ---       mac_Tar_SchInitHdlr
      00FF9F0AH   CODE     ---       mac_Tar_SchReservedHdlr
      00FF28C8H   CODE     ---       mac_Tar_SchWaitAckRxDoneHdlr
      00FF665CH   CODE     ---       mac_Tar_SchWaitAckRxMHRHdlr
      00FF810AH   CODE     ---       mac_Tar_SchWaitCCADoneHdlr
      00FF65E3H   CODE     ---       mac_Tar_SchWaitNormalAckDoneHdlr
      00FF64CEH   CODE     ---       mac_Tar_SchWaitNormalRxMsgHdlr
      00FF66AEH   CODE     ---       mac_Tar_SchWaitTxDoneHdlr
      00FF27F1H   CODE     ---       MAC_TarParInit
      00FF8240H   CODE     ---       MAC_TarSchedule
      00FF805EH   CODE     ---       Mac_TimeoutHdlr
      00FF82A0H   CODE     ---       mac_TrxPar_Init
      00FF6454H   CODE     ---       MAC_TxDoneEventGen
      00FF264CH   CODE     ---       Mac_TxGetBmuData
      00FF5AD8H   CODE     ---       MAC_TxHwSet
      00FF5F1DH   CODE     ---       MAC_TxStart
      00FF5B6EH   CODE     ---       MAC_TxTaskSet
      00FF5B34H   CODE     ---       MAC_VCO_TxStart
      00FF3038H   CODE     ---       MAC_WaitforRxTaskReady
      00FF0FEDH   HCONST   ---       MACRfeDataType
      00FF0FF3H   HCONST   ---       MACRfePrbs9
      0000AC4DH   EDATA    ---       MacSrcAddEntry
      0000AC49H   EDATA    ---       MacSrcFindEntry
      0000AC51H   EDATA    ---       MacSrcModifyEntry
      00FF6435H   CODE     ---       MacTxFreeBmuData
      00FF13D1H   CODE     ---       MAIN
      00FF0190H   CODE     ---       memcpy?_
      00FF01CEH   CODE     ---       memset?_
      00FF9C09H   CODE     ---       mod_replace
      00FF4161H   CODE     ---       MSG_EventClr
      00FF414AH   CODE     ---       MSG_Hdlr
      00FF141DH   CODE     ---       MSG_HdlrInit
      00FF3F55H   CODE     ---       MSG_Idle
      00FF1785H   CODE     ---       MSG_InMsgProc
      00FFAC0CH   CODE     ---       MSG_Isr?_
      00FFAC57H   CODE     ---       MSG_OutMsgForceHandle
      00FF3FBDH   CODE     ---       MSG_OutMsgProc
      00FF4873H   CODE     ---       MSG_OutMsgToBmu
      00FF3FE8H   CODE     ---       MSG_OutStateSet
*SFR* 000000EAH   DATA     BYTE      MXAX
*SFR* 000000D1H.5 DATA     BIT       N_B
*SFR* 000000D0H.2 DATA     BIT       OV
*SFR* 000000D0H.0 DATA     BIT       P
*SFR* 00000080H   DATA     BYTE      P0
*SFR* 00000090H   DATA     BYTE      P1
*SFR* 000000A0H   DATA     BYTE      P2
*SFR* 000000B0H   DATA     BYTE      P3
      00FF849FH   CODE     ---       panIdPresent
      0000B5AEH   EDATA    ---       pBmuLrxShareQCtrl
      00FF0006H   HCONST   ---       pBmuMacIntrSts
      00FF8DFAH   CODE     ---       Pci_BleCmdInitBle
      00FF4D3DH   CODE     ---       Pci_BleCmdSetBleMac
      00FF8E1DH   CODE     ---       Pci_BleCmdSetBleModem
      00FF422EH   CODE     ---       Pci_BlePhy_GetHtrp_Status
      00FF91B2H   CODE     ---       Pci_BlePhy_SetHtrp_Disable
L251 LINKER/LOCATER V4.66.93.0                                                        04/08/2024  14:48:14  PAGE 24


      00FF91D0H   CODE     ---       Pci_BlePhy_SetHtrp_Initiate
      00FF908AH   CODE     ---       Pci_BlePhy_SetHtrp_Map_Channel
      00FF8FE6H   CODE     ---       Pci_BlePhy_SetHtrp_Para
      00FF9184H   CODE     ---       Pci_BlePhy_SetHtrp_Rx_Enable
      00FF910EH   CODE     ---       Pci_BlePhy_SetHtrp_Sec
      00FF915FH   CODE     ---       Pci_BlePhy_SetHtrp_Tx_Enable
      00FF8963H   CODE     ---       Pci_EnableSingleTone
      00FF47F1H   CODE     ---       Pci_Get15p4CslAccuracy
      00FF931AH   CODE     ---       Pci_Get15p4CslUncertainty
      00FF47E6H   CODE     ---       Pci_GetCrcCount
      00FF5795H   CODE     ---       Pci_GetPhyStatus
      00FF5721H   CODE     ---       Pci_GetRssi
      00FF4AEFH   CODE     ---       Pci_InitFsk
      00FF9213H   CODE     ---       Pci_InitZigbee
      00FF4B29H   CODE     ---       Pci_OqpskCmdInitOqpsk
      00FF4C70H   CODE     ---       Pci_OqpskCmdSetOqpskMac
      00FF9362H   CODE     ---       Pci_OqpskCmdSetOqpskModem
      00FF4B6AH   CODE     ---       Pci_ParaReset
      00FF5446H   CODE     ---       Pci_Parse15p4AddressFilter
      00FF9308H   CODE     ---       Pci_Parse15p4AutoAck
      00FF9286H   CODE     ---       Pci_Parse15p4MacPib
      00FF35B5H   CODE     ---       Pci_Parse15p4PendingBit
      00FF92CFH   CODE     ---       Pci_Parse15p4PhyPib
      00FF5392H   CODE     ---       Pci_Parse15p4SmEnable
      00FF5310H   CODE     ---       Pci_Parse15p4SwMacCmd
      00FF4DC2H   CODE     ---       Pci_ParseBleCmd
      00FF6827H   CODE     ---       Pci_ParseCmnHalCmd
      00FF93ECH   CODE     ---       Pci_ParseCmnSysCmd
      00FF564FH   CODE     ---       Pci_ParseCommonCmd
      00FF4A63H   CODE     ---       Pci_ParseFskCmd
      00FF4A48H   CODE     ---       Pci_ParseOqpskCmd
      00FF53A3H   CODE     ---       Pci_Parset15p4SmEntryCtrl
      00FF93A0H   CODE     ---       Pci_RfeRxParaCheck
      00FF8A41H   CODE     ---       Pci_RfeTxParaCheck
      00FF52A1H   CODE     ---       Pci_Set15p4CslReceiverCtrl
      00FF8D23H   CODE     ---       Pci_Set2ChScanFreq
      00FF8B47H   CODE     ---       Pci_SetClockMode
      00FF4C17H   CODE     ---       Pci_SetFskMac
      00FF8DB8H   CODE     ---       Pci_SetFskModem
      00FF4ABBH   CODE     ---       Pci_SetFskPreamble
      00FF3787H   CODE     ---       Pci_SetFskSfd
      00FF4A92H   CODE     ---       Pci_SetFskType
      00FF8C0DH   CODE     ---       Pci_SetGaussianFilterType
      00FF5B8FH   CODE     ---       Pci_SetPhr
      00FF8B93H   CODE     ---       Pci_SetRfbAutoState
      00FF578BH   CODE     ---       Pci_SetRfeMode
      00FF583BH   CODE     ---       Pci_SetRfeRxDisableCmd
      00FF5521H   CODE     ---       Pci_SetRfeRxEnableCmd
      00FF3618H   CODE     ---       Pci_SetRfeSecurityCmd
      00FF8AFCH   CODE     ---       Pci_SetRfeTxDisableCmd
      00FF89A1H   CODE     ---       Pci_SetRfeTxEnableCmd
      00FF880BH   CODE     ---       Pci_SetRfFreq
      00FF8B31H   CODE     ---       Pci_SetRfIdle
      00FF8B12H   CODE     ---       Pci_SetRfSleep
      00FF8919H   CODE     ---       Pci_SetRxTaskPara
      00FF8C20H   CODE     ---       Pci_SetWakeOnRadio
      00FF9327H   CODE     ---       Pci_Update15p4CslSampleTime
      00FF47ABH   CODE     ---       PciBurstTxdoneEventSendtoMsgQueue
      00FF41E8H   CODE     ---       PciCnfEventSendtoMsgQueue
      00FF475BH   CODE     ---       PciCslAccuracyEventSendtoMsgQueue
      00FF4783H   CODE     ---       PciCslUncertaintyEventSendtoMsgQueue
      00FF9876H   CODE     ---       PciDataControlFieldParse
      00FF45A2H   CODE     ---       PciGetCrcEventSendtoMsgQueue
      00FF57A1H   CODE     ---       PciGetPhyStatusEventSendtoMsgQueue
      00FF572DH   CODE     ---       PciGetRssiEventSendtoMsgQueue
L251 LINKER/LOCATER V4.66.93.0                                                        04/08/2024  14:48:14  PAGE 25


      00FF9919H   CODE     ---       PciHtrpConnToEventdoneEventSendtoMsgQueue
      00FF437BH   CODE     ---       PciHtrpFwStatusEventdoneEventSendtoMsgQueue
      00FF4272H   CODE     ---       PciHtrpGetRssiEventSendtoMsgQueue
      00FF4301H   CODE     ---       PciHtrpHwStatusEventdoneEventSendtoMsgQueue
      00FF42BEH   CODE     ---       PciHtrpPerEventdoneEventSendtoMsgQueue
      00FF27B1H   CODE     ---       pciQueueGetandMacIntQueueAdd
*SFR* 00000087H   DATA     BYTE      PCON
      0000AF0BH   EDATA    ---       pHalBmuMemSizeHwRxq
      0000AF0FH   EDATA    ---       pHalBmuMemSizeHwSwRxq
      0000AEEBH   EDATA    ---       pHalFwCfg
      0000AEF3H   EDATA    ---       pHalHwCfg
      0000AF13H   EDATA    ---       pHalHwPara
      0000AF17H   EDATA    ---       pHalHwTab
      0000AEF7H   EDATA    ---       pHalMdmDefaultCfg
      0000B078H   EDATA    ---       pHalPktCfg
      0000AF03H   EDATA    ---       pHalPmuDefaultCfg2G
      0000AF07H   EDATA    ---       pHalPmuDefaultCfgSubG
      0000B0BEH   EDATA    ---       pHalPrtclCfg
      0000AEEFH   EDATA    ---       pHalRegPatch
      0000AEFBH   EDATA    ---       pHalRfDefaultCfg2G
      0000AEFFH   EDATA    ---       pHalRfDefaultCfgSubG
      00FF074BH   HCONST   ---       phyConfig
      00FF082BH   HCONST   ---       phyTabBpFir15Tap
      00FF0833H   HCONST   ---       phyTabBpFir31Tap
      00FF0843H   HCONST   ---       phyTabIfMap
      00FF084BH   HCONST   ---       phyTabIfMapDclk
      0000B2AFH   EDATA    ---       pll_choice
      00FF1373H   HCONST   ---       pllFreqBandTab
      00FF13CFH   HCONST   ---       pMemMapBmuLinkTable
      00FF13CDH   HCONST   ---       pMemMapExtData
      00FF13CBH   HCONST   ---       pMemMapSharedBuffer
      00FF02B2H   HCONST   ---       pmuConfig
*SFR* 000000D8H.6 DATA     BIT       PORF
*SFR* 000000B8H.6 DATA     BIT       PPC
*SFR* 000000B8H.4 DATA     BIT       PS
*SFR* 000000B8H.4 DATA     BIT       PS0
*SFR* 000000B8H.6 DATA     BIT       PS1
*SFR* 000000D0H   DATA     BYTE      PSW
*SFR* 000000D1H   DATA     BYTE      PSW1
*SFR* 000000B8H.1 DATA     BIT       PT0
*SFR* 000000B8H.3 DATA     BIT       PT1
*SFR* 000000B8H.5 DATA     BIT       PT2
*SFR* 000000B8H.0 DATA     BIT       PX0
*SFR* 000000B8H.2 DATA     BIT       PX1
      00FF4172H   CODE     ---       Q_Init
      00FF41C4H   CODE     ---       Q_MemAlloc
      00FF4850H   CODE     ---       Q_MemFree
      00FF41AAH   CODE     ---       Q_MemFreeCount
      00FF42A6H   CODE     ---       Q_MemGet
      00FF501DH   CODE     ---       Q_QChageType
      00FF489DH   CODE     ---       Q_QFree
      00FF485DH   CODE     ---       Q_QGet
      00FF5007H   CODE     ---       Q_QLenGet
      00FF51B1H   CODE     ---       Q_QMoveBack
      00FF3FB0H   CODE     ---       Q_QNumGet
      00FF4427H   CODE     ---       Q_QPushBack
      00FF50F3H   CODE     ---       Q_QPushFront
      00FF5057H   CODE     ---       Q_QRemove
      0000B38BH   EDATA    BYTE      r2t_need_set
      00FF3081H   CODE     ---       R2tTask_Set
*SFR* 00000098H.2 DATA     BIT       RB8
*SFR* 000000C0H.2 DATA     BIT       RB81
*SFR* 000000CBH   DATA     BYTE      RCAP2H
*SFR* 000000CAH   DATA     BYTE      RCAP2L
*SFR* 000000C8H.5 DATA     BIT       RCLK
L251 LINKER/LOCATER V4.66.93.0                                                        04/08/2024  14:48:14  PAGE 26


*SFR* 000000B0H.7 DATA     BIT       RD
*SFR* 00000098H.4 DATA     BIT       REN
*SFR* 000000C0H.4 DATA     BIT       REN1
      00FF54FEH   CODE     ---       Reverse_Uint32cpy
      00FF14D2H   CODE     ---       RF_Task_AllStop
      00FF182AH   CODE     ---       RF_Task_En
      00FF190FH   CODE     ---       RF_Task_Set
      00FF01E2H   HCONST   ---       rfConfig
      00FF039AH   HCONST   ---       rfTabSideBnadK
*SFR* 00000098H.0 DATA     BIT       RI
*SFR* 000000C0H.0 DATA     BIT       RI1
*SFR* 000000CBH   DATA     BYTE      RLDH
*SFR* 000000CAH   DATA     BYTE      RLDL
*SFR* 000000D0H.3 DATA     BIT       RS0
*SFR* 000000D0H.4 DATA     BIT       RS1
      00FF1F7EH   CODE     ---       RTC_ClkGet?_
      00FF3688H   CODE     ---       RTC_Init
      00FF589CH   CODE     ---       RTC_IsrHdlr
      00FF585FH   CODE     ---       RTC_IsrHdlrInit
      0000B2AEH   EDATA    BYTE      rtc_q_cnt
      00FF1FAAH   CODE     ---       RTC_TickGapCount
      00FF5231H   CODE     ---       RTC_TimerConfig
      00FF5828H   CODE     ---       RTC_TimerWakeUpDisable
      00FF4113H   CODE     ---       RTC_TriggerWithinUs
      00FF2EDAH   CODE     ---       RTC_uDelay
      00FF5855H   CODE     ---       RTC_WaitForTriggered
*SFR* 000000D4H   DATA     BYTE      RTCCON
*SFR* 000000D7H   DATA     BYTE      RTCICR
*SFR* 000000D6H   DATA     BYTE      RTCREG
*SFR* 000000D5H   DATA     BYTE      RTCSEC
      00FF13AEH   HCONST   ---       Ruci_ElmtNum_GetCrcReportEvent
      00FF133DH   HCONST   ---       Ruci_ElmtNum_GetFwVerEvent
      00FF13A5H   HCONST   ---       Ruci_ElmtNum_GetRegEvent
      00FF134AH   HCONST   ---       Ruci_ElmtNum_GetTemperatureRptEvent
      00FF1354H   HCONST   ---       Ruci_ElmtNum_GetVoltageRptEvent
      00FF139BH   HCONST   ---       Ruci_ElmtNum_RxControlField
      00FF12A8H   HCONST   ---       Ruci_ElmtNum_Set15p4AddressFilter
      00FF12BAH   HCONST   ---       Ruci_ElmtNum_Set15p4MacPib
      00FF12CBH   HCONST   ---       Ruci_ElmtNum_Set15p4PhyPib
      00FF11C5H   HCONST   ---       Ruci_ElmtNum_Set2ChScanFrequency
      00FF12EBH   HCONST   ---       Ruci_ElmtNum_SetBleMac
      00FF12D7H   HCONST   ---       Ruci_ElmtNum_SetCslReceiverCtrl
      00FF11D0H   HCONST   ---       Ruci_ElmtNum_SetDutyCycle
      00FF13C7H   HCONST   ---       Ruci_ElmtNum_SetFskSfd
      00FF1300H   HCONST   ---       Ruci_ElmtNum_SetHtrpPara
      00FF1366H   HCONST   ---       Ruci_ElmtNum_SetPmuMpkSetting
      00FF11FEH   HCONST   ---       Ruci_ElmtNum_SetRfeRxEnable
      00FF11E3H   HCONST   ---       Ruci_ElmtNum_SetRfeTxEnable
      00FF11A7H   HCONST   ---       Ruci_ElmtNum_SetRfFrequency
      00FF11BBH   HCONST   ---       Ruci_ElmtNum_SetRxEnable
      00FF1390H   HCONST   ---       Ruci_ElmtNum_SetTxControlField
      00FF11B1H   HCONST   ---       Ruci_ElmtNum_SetWakeOnRadio
      00FF12E0H   HCONST   ---       Ruci_ElmtNum_UpdateCslSampleTime
      00FF13A9H   HCONST   ---       Ruci_ElmtType_GetCrcReportEvent
      00FF1335H   HCONST   ---       Ruci_ElmtType_GetFwVerEvent
      00FF13A1H   HCONST   ---       Ruci_ElmtType_GetRegEvent
      00FF1345H   HCONST   ---       Ruci_ElmtType_GetTemperatureRptEvent
      00FF134FH   HCONST   ---       Ruci_ElmtType_GetVoltageRptEvent
      00FF1395H   HCONST   ---       Ruci_ElmtType_RxControlField
      00FF12A0H   HCONST   ---       Ruci_ElmtType_Set15p4AddressFilter
      00FF12B0H   HCONST   ---       Ruci_ElmtType_Set15p4MacPib
      00FF12C4H   HCONST   ---       Ruci_ElmtType_Set15p4PhyPib
      00FF11BFH   HCONST   ---       Ruci_ElmtType_Set2ChScanFrequency
      00FF12E4H   HCONST   ---       Ruci_ElmtType_SetBleMac
      00FF12D2H   HCONST   ---       Ruci_ElmtType_SetCslReceiverCtrl
L251 LINKER/LOCATER V4.66.93.0                                                        04/08/2024  14:48:14  PAGE 27


      00FF11CBH   HCONST   ---       Ruci_ElmtType_SetDutyCycle
      00FF13C3H   HCONST   ---       Ruci_ElmtType_SetFskSfd
      00FF12F2H   HCONST   ---       Ruci_ElmtType_SetHtrpPara
      00FF1359H   HCONST   ---       Ruci_ElmtType_SetPmuMpkSetting
      00FF11F1H   HCONST   ---       Ruci_ElmtType_SetRfeRxEnable
      00FF11D5H   HCONST   ---       Ruci_ElmtType_SetRfeTxEnable
      00FF11A3H   HCONST   ---       Ruci_ElmtType_SetRfFrequency
      00FF11B7H   HCONST   ---       Ruci_ElmtType_SetRxEnable
      00FF138BH   HCONST   ---       Ruci_ElmtType_SetTxControlField
      00FF11ABH   HCONST   ---       Ruci_ElmtType_SetWakeOnRadio
      00FF12DCH   HCONST   ---       Ruci_ElmtType_UpdateCslSampleTime
      00FF4679H   CODE     ---       RUCI_endianConvert
*SFR* 000000D8H.0 DATA     BIT       RWT
*SFR* 000000B0H.0 DATA     BIT       RXD
      00FF93FBH   CODE     ---       RxTask_AlwaysOn_Set
      00FF977FH   CODE     ---       RxTask_RxTimer_Set
      00FF9605H   CODE     ---       RxTask_Timeout_Set
*SFR* 000000A9H   DATA     BYTE      SADDR
*SFR* 000000B9H   DATA     BYTE      SADEN
      0000B64FH   EDATA    ---       sBmuCtrlPara
*SFR* 00000099H   DATA     BYTE      SBUF
*SFR* 000000C1H   DATA     BYTE      SBUF1
*SFR* 00000098H   DATA     BYTE      SCON
*SFR* 000000C0H   DATA     BYTE      SCON1
      00FF29B9H   CODE     ---       SetRfIdle
      0000AF1BH   EDATA    ---       sHalCtrl
      0000B07AH   EDATA    ---       sHalFuncHdlr
      00FF10F3H   HCONST   ---       sHalFwCfg
      00FF1101H   HCONST   ---       sHalHwCfgBLE
      00FF1137H   HCONST   ---       sHalHwCfgWisun
      00FF116DH   HCONST   ---       sHalHwCfgZigbee
      00FF0851H   HCONST   ---       sHalHwPara
      00FF08CAH   HCONST   ---       sHalHwTab
      00FF125CH   HCONST   ---       sHalParaIndDefault
      0000B049H   EDATA    ---       sHalPktCfg
      00FF130EH   HCONST   ---       sHalPrtclCfg
      0000B62CH   EDATA    ---       sHalRfkCtrl
*SFR* 00000098H.7 DATA     BIT       SM0
*SFR* 000000C0H.7 DATA     BIT       SM01
*SFR* 00000098H.6 DATA     BIT       SM1
*SFR* 000000C0H.6 DATA     BIT       SM11
*SFR* 00000098H.5 DATA     BIT       SM2
*SFR* 000000C0H.5 DATA     BIT       SM21
      0000B5FFH   EDATA    ---       sMsgCtrl
*SFR* 00000081H   DATA     BYTE      SP
*SFR* 000000ECH   DATA     BYTE      SPCR
*SFR* 000000EEH   DATA     BYTE      SPDR
*SFR* 000000BEH   DATA     BYTE      SPH
*SFR* 000000EDH   DATA     BYTE      SPSR
      0000AC55H   EDATA    ---       sQCtrl
      0000AC61H   EDATA    ---       sQHeader
      0000ACD9H   EDATA    ---       sQPayload
*SFR* 000000EFH   DATA     BYTE      SSCR
      00FF3F11H   CODE     ---       SYS_EnterSleepCheck
      00FF3F40H   CODE     ---       SYS_EnterSleepGuard
      00FF4139H   CODE     ---       SYS_Idle_Task
      00FF1411H   CODE     ---       SYS_IdleTaskInit
      00FF1430H   CODE     ---       SYS_IdleTaskIntInit
      00FF20CCH   CODE     ---       SYS_InfoRegInit
      00FF13D8H   CODE     ---       SYS_Init
      00FF3811H   CODE     ---       SYS_isClkAPassOverClkB
      00FF3FF1H   CODE     ---       SYS_Rand
      00FF4099H   CODE     ---       SYS_Sleep
      00FF410EH   CODE     ---       SYS_SleepMinTimeGet
      00FF210CH   CODE     ---       SYS_Task_Block
L251 LINKER/LOCATER V4.66.93.0                                                        04/08/2024  14:48:14  PAGE 28


      00FF17F4H   CODE     ---       SYS_Task_Register
      00FF2828H   CODE     ---       SYS_Task_Run
      00FF1FBBH   CODE     ---       SYS_Task_UnBlock
      00FF4088H   CODE     ---       SYS_TimerInit
      00FF1743H   CODE     ---       SYS_TRAP
*SFR* 000000B0H.4 DATA     BIT       T0
*SFR* 000000B0H.5 DATA     BIT       T1
*SFR* 00000090H.0 DATA     BIT       T2
*SFR* 000000C8H.2 DATA     BIT       T2CM
*SFR* 000000C8H   DATA     BYTE      T2CON
*SFR* 00000090H.1 DATA     BIT       T2EX
*SFR* 000000C8H.0 DATA     BIT       T2I0
*SFR* 000000C8H.1 DATA     BIT       T2I1
*SFR* 000000C9H   DATA     BYTE      T2IF
*SFR* 000000C9H   DATA     BYTE      T2MOD
*SFR* 000000C8H.7 DATA     BIT       T2PS
*SFR* 000000C8H.3 DATA     BIT       T2R0
*SFR* 000000C8H.4 DATA     BIT       T2R1
      00FF19CDH   CODE     ---       T2RTask_Set
*SFR* 000000EBH   DATA     BYTE      TA
*SFR* 00000098H.3 DATA     BIT       TB8
*SFR* 000000C0H.3 DATA     BIT       TB81
*SFR* 0000009FH   DATA     BYTE      TB_SFR_REG
*SFR* 000000C8H.4 DATA     BIT       TCLK
*SFR* 00000088H   DATA     BYTE      TCON
*SFR* 00000088H.5 DATA     BIT       TF0
*SFR* 00000088H.7 DATA     BIT       TF1
*SFR* 000000C8H.7 DATA     BIT       TF2
*SFR* 0000008CH   DATA     BYTE      TH0
*SFR* 0000008DH   DATA     BYTE      TH1
*SFR* 000000CDH   DATA     BYTE      TH2
*SFR* 00000098H.1 DATA     BIT       TI
*SFR* 000000C0H.1 DATA     BIT       TI1
*SFR* 0000008AH   DATA     BYTE      TL0
*SFR* 0000008BH   DATA     BYTE      TL1
*SFR* 000000CCH   DATA     BYTE      TL2
*SFR* 00000089H   DATA     BYTE      TMOD
*SFR* 00000088H.4 DATA     BIT       TR0
*SFR* 00000088H.6 DATA     BIT       TR1
*SFR* 000000C8H.2 DATA     BIT       TR2
      00FF1865H   CODE     ---       TrtTask_Set
      00FF978DH   CODE     ---       TxContTask_Set
*SFR* 000000B0H.1 DATA     BIT       TXD
      0000B667H   EDATA    ---       txPwrCtrlArray
      00FF9842H   CODE     ---       TxRtcTask_Set
      00FF97FDH   CODE     ---       TxTask_Set
*SFR* 000000D0H.1 DATA     BIT       UD
*SFR* 00000096H   DATA     BYTE      USBADDR
*SFR* 00000097H   DATA     BYTE      USBDATA
      0000B2EFH   EDATA    ---       vco_choice
*SFR* 000000D8H   DATA     BYTE      WDCON
*SFR* 000000D8H.3 DATA     BIT       WDIF
*SFR* 000000A6H   DATA     BYTE      WDTRST
*SFR* 000000B0H.6 DATA     BIT       WR
*SFR* 000000D8H.2 DATA     BIT       WTRF
*SFR* 00000092H   DATA     BYTE      WTST
*SFR* 000000D1H.1 DATA     BIT       Z_B



LINKER CODE PACKING SYMBOLS OF MODULE:  .\obj\RT569 (?C_START)


      VALUE       CLASS    TYPE      SYMBOL NAME
      ==========================================
L251 LINKER/LOCATER V4.66.93.0                                                        04/08/2024  14:48:14  PAGE 29


      00FF42A2H   CODE     BEGIN     ?L?COM0001
      00FF2592H   CODE     BEGIN     ?L?COM0002
      00FF2592H   CODE     END       ?L?COM0003
      00FF644CH   CODE     BEGIN     ?L?COM0004
      00FF644CH   CODE     END       ?L?COM0005
      00FFBF7FH   CODE     PART      ?L?COM0006
      00FFBF7FH   CODE     END       ?L?COM0007
      00FF1FB1H   CODE     BEGIN     ?L?COM0008
      00FF1FB1H   CODE     END       ?L?COM0009
      00FF8F66H   CODE     PART      ?L?COM000A
      00FF8F66H   CODE     END       ?L?COM000B
      00FF7727H   CODE     BEGIN     ?L?COM000C
      00FF5A15H   CODE     BEGIN     ?L?COM000D
      00FF5A15H   CODE     END       ?L?COM000E
      00FF3763H   CODE     PART      ?L?COM000F
      00FF3763H   CODE     END       ?L?COM0010
      00FF319EH   CODE     PART      ?L?COM0011
      00FF319EH   CODE     END       ?L?COM0012
      00FF4AAFH   CODE     PART      ?L?COM0013
      00FFC7EDH   CODE     BEGIN     ?L?COM0014
      00FF4419H   CODE     BEGIN     ?L?COM0015
      00FF4419H   CODE     END       ?L?COM0016
      00FF4419H   CODE     END       ?L?COM0017
      00FF4BE7H   CODE     BEGIN     ?L?COM0018
      00FF2871H   CODE     BEGIN     ?L?COM0019
      00FFC93CH   CODE     PART      ?L?COM001A
      00FFC93CH   CODE     END       ?L?COM001B
      00FF5CC5H   CODE     BEGIN     ?L?COM001C
      00FF5CC5H   CODE     END       ?L?COM001D
      00FF5CC5H   CODE     END       ?L?COM001E
      00FFD503H   CODE     PART      ?L?COM001F
      00FF4AE3H   CODE     PART      ?L?COM0020
      00FF2ED2H   CODE     BEGIN     ?L?COM0021
      00FF2108H   CODE     BEGIN     ?L?COM0022
      00FF3F8FH   CODE     PART      ?L?COM0023
      00FF3F8FH   CODE     END       ?L?COM0024
      00FF5ACBH   CODE     BEGIN     ?L?COM0025
      00FF5ACBH   CODE     END       ?L?COM0026
      00FF1F99H   CODE     BEGIN     ?L?COM0027
      00FF5984H   CODE     PART      ?L?COM0028
      00FFCF7FH   CODE     BEGIN     ?L?COM0029
      00FFCF7FH   CODE     END       ?L?COM002A
      00FF377BH   CODE     PART      ?L?COM002B
      00FF36D1H   CODE     PART      ?L?COM002C
      00FF34F1H   CODE     BEGIN     ?L?COM002D
      00FF34F1H   CODE     END       ?L?COM002E
      00FF7339H   CODE     BEGIN     ?L?COM002F
      00FF41E3H   CODE     BEGIN     ?L?COM0030
      00FF2563H   CODE     BEGIN     ?L?COM0031
      00FF8F79H   CODE     PART      ?L?COM0032
      00FF741FH   CODE     BEGIN     ?L?COM0033
      00FF3D50H   CODE     BEGIN     ?L?COM0034
      00FFA336H   CODE     BEGIN     ?L?COM0035
      00FF6197H   CODE     BEGIN     ?L?COM0036
      00FF27D7H   CODE     BEGIN     ?L?COM0037
      00FF3806H   CODE     BEGIN     ?L?COM0038
      00FF466FH   CODE     BEGIN     ?L?COM0039
      00FF2392H   CODE     BEGIN     ?L?COM003A
      00FF2D82H   CODE     BEGIN     ?L?COM003B
      00FF3D7FH   CODE     BEGIN     ?L?COM003C
      00FF3D7FH   CODE     END       ?L?COM003D
      00FF37DEH   CODE     PART      ?L?COM003E
      00FF8ED0H   CODE     PART      ?L?COM003F
      00FF37EAH   CODE     PART      ?L?COM0040
      00FFAFAAH   CODE     PART      ?L?COM0041
L251 LINKER/LOCATER V4.66.93.0                                                        04/08/2024  14:48:14  PAGE 30


      00FFA45BH   CODE     PART      ?L?COM0042
      00FF75E3H   CODE     BEGIN     ?L?COM0043
      00FF1AF1H   CODE     BEGIN     ?L?COM0044
      00FF1823H   CODE     BEGIN     ?L?COM0045
      00FFD520H   CODE     PART      ?L?COM0046
      00FF8F9CH   CODE     BEGIN     ?L?COM0047
      00FFC0B5H   CODE     PART      ?L?COM0048
      00FF5B8AH   CODE     BEGIN     ?L?COM0049
      00FF173EH   CODE     BEGIN     ?L?COM004A
      00FF4B65H   CODE     BEGIN     ?L?COM004B
      00FFC6CDH   CODE     BEGIN     ?L?COM004C
      00FFB34EH   CODE     BEGIN     ?L?COM004D
      00FF37D6H   CODE     PART      ?L?COM004E
      00FF78CFH   CODE     BEGIN     ?L?COM004F
      00FF77AFH   CODE     PART      ?L?COM0050
      00FF2610H   CODE     BEGIN     ?L?COM0051
      00FF272EH   CODE     BEGIN     ?L?COM0052
      00FF3FACH   CODE     BEGIN     ?L?COM0053
      00FF4CC0H   CODE     BEGIN     ?L?COM0054
      00FF29B5H   CODE     BEGIN     ?L?COM0055
      00FF3F87H   CODE     PART      ?L?COM0056



SYMBOL TABLE OF MODULE:  .\obj\RT569 (?C_START)

      VALUE       REP       CLASS    TYPE      SYMBOL NAME
      ====================================================
      ---         MODULE    ---      ---       ?C_START
      00FF0000H   PUBLIC    CODE     ---       ?C?STARTUP
      00FF0000H   PUBLIC    CODE     ---       ?C_STARTUP
      000000D0H.6 SFRSYM    DATA     BIT       AC
      000000E0H   SFRSYM    DATA     BYTE      ACC
      0000009DH   SFRSYM    DATA     BYTE      ACON
      000000F0H   SFRSYM    DATA     BYTE      B
      000000CEH   SFRSYM    DATA     BYTE      CCEN
      000000C3H   SFRSYM    DATA     BYTE      CCH1
      000000C5H   SFRSYM    DATA     BYTE      CCH2
      000000C7H   SFRSYM    DATA     BYTE      CCH3
      000000C2H   SFRSYM    DATA     BYTE      CCL1
      000000C4H   SFRSYM    DATA     BYTE      CCL2
      000000C6H   SFRSYM    DATA     BYTE      CCL3
      00000090H.3 SFRSYM    DATA     BIT       CEX0
      00000090H.4 SFRSYM    DATA     BIT       CEX1
      00000090H.5 SFRSYM    DATA     BIT       CEX2
      00000090H.6 SFRSYM    DATA     BIT       CEX3
      00000090H.7 SFRSYM    DATA     BIT       CEX4
      0000008EH   SFRSYM    DATA     BYTE      CKCON
      000000D8H.7 SFRSYM    DATA     BIT       CPUSRF
      000000C8H.0 SFRSYM    DATA     BIT       CP_RL2
      000000CBH   SFRSYM    DATA     BYTE      CRCH
      000000CAH   SFRSYM    DATA     BYTE      CRCL
      000000D0H.7 SFRSYM    DATA     BIT       CY
      000000C8H.1 SFRSYM    DATA     BIT       C_T2
      000000CFH   SFRSYM    DATA     BYTE      DEVICR
      0000008FH   SFRSYM    DATA     BYTE      DMAIR
      00000083H   SFRSYM    DATA     BYTE      DPH
      00000083H   SFRSYM    DATA     BYTE      DPH1
      00000082H   SFRSYM    DATA     BYTE      DPL
      00000082H   SFRSYM    DATA     BYTE      DPL1
      00000086H   SFRSYM    DATA     BYTE      DPS
      00000084H   SFRSYM    DATA     BYTE      DPX1
      00000084H   SFRSYM    DATA     BYTE      DPXL
      000000A8H.7 SFRSYM    DATA     BIT       EA
      00000090H.2 SFRSYM    DATA     BIT       ECI
L251 LINKER/LOCATER V4.66.93.0                                                        04/08/2024  14:48:14  PAGE 31


      000000E8H   SFRSYM    DATA     BYTE      EIE
      00000091H   SFRSYM    DATA     BYTE      EIF
      000000F8H   SFRSYM    DATA     BYTE      EIP
      000000B6H   SFRSYM    DATA     BYTE      EIPH
      000000B6H   SFRSYM    DATA     BYTE      EIPH0
      000000F8H   SFRSYM    DATA     BYTE      EIPL
      000000A8H.4 SFRSYM    DATA     BIT       ES
      000000A8H.4 SFRSYM    DATA     BIT       ES0
      000000A8H.6 SFRSYM    DATA     BIT       ES1
      000000A8H.1 SFRSYM    DATA     BIT       ET0
      000000A8H.3 SFRSYM    DATA     BIT       ET1
      000000A8H.5 SFRSYM    DATA     BIT       ET2
      000000D8H.1 SFRSYM    DATA     BIT       EWT
      000000A8H.0 SFRSYM    DATA     BIT       EX0
      000000A8H.2 SFRSYM    DATA     BIT       EX1
      000000C8H.3 SFRSYM    DATA     BIT       EXEN2
      000000C8H.6 SFRSYM    DATA     BIT       EXF2
      000000D0H.5 SFRSYM    DATA     BIT       F0
      00000098H.7 SFRSYM    DATA     BIT       FE
      000000F6H   SFRSYM    DATA     BYTE      I2CM_BUF
      000000F5H   SFRSYM    DATA     BYTE      I2CM_CR
      000000F4H   SFRSYM    DATA     BYTE      I2CM_SA
      000000F7H   SFRSYM    DATA     BYTE      I2CM_TP
      000000F1H   SFRSYM    DATA     BYTE      I2CS_ADDR
      000000F3H   SFRSYM    DATA     BYTE      I2CS_BUF
      000000F2H   SFRSYM    DATA     BYTE      I2CS_CR
      000000C8H.5 SFRSYM    DATA     BIT       I2FR
      000000C8H.6 SFRSYM    DATA     BIT       I3FR
      000000A8H   SFRSYM    DATA     BYTE      IE
      00000088H.1 SFRSYM    DATA     BIT       IE0
      00000088H.3 SFRSYM    DATA     BIT       IE1
      000000B1H   SFRSYM    DATA     BYTE      IEH
      000000A8H   SFRSYM    DATA     BYTE      IEL
      000000B0H.2 SFRSYM    DATA     BIT       INT0
      000000B0H.3 SFRSYM    DATA     BIT       INT1
      000000B8H   SFRSYM    DATA     BYTE      IP
      000000B7H   SFRSYM    DATA     BYTE      IPH
      000000B7H   SFRSYM    DATA     BYTE      IPH0
      000000B8H   SFRSYM    DATA     BYTE      IPL
      000000B8H   SFRSYM    DATA     BYTE      IPL0
      00000088H.0 SFRSYM    DATA     BIT       IT0
      00000088H.2 SFRSYM    DATA     BIT       IT1
      000000EAH   SFRSYM    DATA     BYTE      MXAX
      000000D1H.5 SFRSYM    DATA     BIT       N_B
      000000D0H.2 SFRSYM    DATA     BIT       OV
      000000D0H.0 SFRSYM    DATA     BIT       P
      00000080H   SFRSYM    DATA     BYTE      P0
      00000090H   SFRSYM    DATA     BYTE      P1
      000000A0H   SFRSYM    DATA     BYTE      P2
      000000B0H   SFRSYM    DATA     BYTE      P3
      00000087H   SFRSYM    DATA     BYTE      PCON
      000000D8H.6 SFRSYM    DATA     BIT       PORF
      000000B8H.4 SFRSYM    DATA     BIT       PS
      000000B8H.4 SFRSYM    DATA     BIT       PS0
      000000B8H.6 SFRSYM    DATA     BIT       PS1
      000000D0H   SFRSYM    DATA     BYTE      PSW
      000000D1H   SFRSYM    DATA     BYTE      PSW1
      000000B8H.1 SFRSYM    DATA     BIT       PT0
      000000B8H.3 SFRSYM    DATA     BIT       PT1
      000000B8H.5 SFRSYM    DATA     BIT       PT2
      000000B8H.0 SFRSYM    DATA     BIT       PX0
      000000B8H.2 SFRSYM    DATA     BIT       PX1
      00000098H.2 SFRSYM    DATA     BIT       RB8
      000000C0H.2 SFRSYM    DATA     BIT       RB81
      000000CBH   SFRSYM    DATA     BYTE      RCAP2H
L251 LINKER/LOCATER V4.66.93.0                                                        04/08/2024  14:48:14  PAGE 32


      000000CAH   SFRSYM    DATA     BYTE      RCAP2L
      000000C8H.5 SFRSYM    DATA     BIT       RCLK
      000000B0H.7 SFRSYM    DATA     BIT       RD
      00000098H.4 SFRSYM    DATA     BIT       REN
      000000C0H.4 SFRSYM    DATA     BIT       REN1
      00000098H.0 SFRSYM    DATA     BIT       RI
      000000C0H.0 SFRSYM    DATA     BIT       RI1
      000000CBH   SFRSYM    DATA     BYTE      RLDH
      000000CAH   SFRSYM    DATA     BYTE      RLDL
      000000D0H.3 SFRSYM    DATA     BIT       RS0
      000000D0H.4 SFRSYM    DATA     BIT       RS1
      000000D4H   SFRSYM    DATA     BYTE      RTCCON
      000000D7H   SFRSYM    DATA     BYTE      RTCICR
      000000D6H   SFRSYM    DATA     BYTE      RTCREG
      000000D5H   SFRSYM    DATA     BYTE      RTCSEC
      000000D8H.0 SFRSYM    DATA     BIT       RWT
      000000B0H.0 SFRSYM    DATA     BIT       RXD
      000000A9H   SFRSYM    DATA     BYTE      SADDR
      000000B9H   SFRSYM    DATA     BYTE      SADEN
      00000099H   SFRSYM    DATA     BYTE      SBUF
      000000C1H   SFRSYM    DATA     BYTE      SBUF1
      00000098H   SFRSYM    DATA     BYTE      SCON
      000000C0H   SFRSYM    DATA     BYTE      SCON1
      00000098H.7 SFRSYM    DATA     BIT       SM0
      000000C0H.7 SFRSYM    DATA     BIT       SM01
      00000098H.6 SFRSYM    DATA     BIT       SM1
      000000C0H.6 SFRSYM    DATA     BIT       SM11
      00000098H.5 SFRSYM    DATA     BIT       SM2
      000000C0H.5 SFRSYM    DATA     BIT       SM21
      00000081H   SFRSYM    DATA     BYTE      SP
      000000ECH   SFRSYM    DATA     BYTE      SPCR
      000000EEH   SFRSYM    DATA     BYTE      SPDR
      000000BEH   SFRSYM    DATA     BYTE      SPH
      000000EDH   SFRSYM    DATA     BYTE      SPSR
      000000EFH   SFRSYM    DATA     BYTE      SSCR
      000000B0H.4 SFRSYM    DATA     BIT       T0
      000000B0H.5 SFRSYM    DATA     BIT       T1
      00000090H.0 SFRSYM    DATA     BIT       T2
      000000C8H.2 SFRSYM    DATA     BIT       T2CM
      000000C8H   SFRSYM    DATA     BYTE      T2CON
      00000090H.1 SFRSYM    DATA     BIT       T2EX
      000000C8H.0 SFRSYM    DATA     BIT       T2I0
      000000C8H.1 SFRSYM    DATA     BIT       T2I1
      000000C9H   SFRSYM    DATA     BYTE      T2IF
      000000C9H   SFRSYM    DATA     BYTE      T2MOD
      000000C8H.7 SFRSYM    DATA     BIT       T2PS
      000000C8H.3 SFRSYM    DATA     BIT       T2R0
      000000C8H.4 SFRSYM    DATA     BIT       T2R1
      000000EBH   SFRSYM    DATA     BYTE      TA
      00000098H.3 SFRSYM    DATA     BIT       TB8
      000000C0H.3 SFRSYM    DATA     BIT       TB81
      0000009FH   SFRSYM    DATA     BYTE      TB_SFR_REG
      000000C8H.4 SFRSYM    DATA     BIT       TCLK
      00000088H   SFRSYM    DATA     BYTE      TCON
      00000088H.5 SFRSYM    DATA     BIT       TF0
      00000088H.7 SFRSYM    DATA     BIT       TF1
      000000C8H.7 SFRSYM    DATA     BIT       TF2
      0000008CH   SFRSYM    DATA     BYTE      TH0
      0000008DH   SFRSYM    DATA     BYTE      TH1
      000000CDH   SFRSYM    DATA     BYTE      TH2
      00000098H.1 SFRSYM    DATA     BIT       TI
      000000C0H.1 SFRSYM    DATA     BIT       TI1
      0000008AH   SFRSYM    DATA     BYTE      TL0
      0000008BH   SFRSYM    DATA     BYTE      TL1
      000000CCH   SFRSYM    DATA     BYTE      TL2
L251 LINKER/LOCATER V4.66.93.0                                                        04/08/2024  14:48:14  PAGE 33


      00000089H   SFRSYM    DATA     BYTE      TMOD
      00000088H.4 SFRSYM    DATA     BIT       TR0
      00000088H.6 SFRSYM    DATA     BIT       TR1
      000000C8H.2 SFRSYM    DATA     BIT       TR2
      000000B0H.1 SFRSYM    DATA     BIT       TXD
      00000096H   SFRSYM    DATA     BYTE      USBADDR
      00000097H   SFRSYM    DATA     BYTE      USBDATA
      000000D8H   SFRSYM    DATA     BYTE      WDCON
      000000D8H.3 SFRSYM    DATA     BIT       WDIF
      000000A6H   SFRSYM    DATA     BYTE      WDTRST
      000000B0H.6 SFRSYM    DATA     BIT       WR
      000000D8H.2 SFRSYM    DATA     BIT       WTRF
      00000092H   SFRSYM    DATA     BYTE      WTST
      000000D1H.1 SFRSYM    DATA     BIT       Z_B
      00FF1FF8H   SYMBOL    NUMBER   ---       CFGADDR
      00FF1FFFH   SYMBOL    NUMBER   ---       CODEHIGH
      00002000H   SYMBOL    NUMBER   ---       EDATALEN
      00FF0117H   SYMBOL    CODE     ---       EDATALOOP
      0000A000H   SYMBOL    NUMBER   ---       EDATASTART
      00000001H   SYMBOL    NUMBER   ---       INTR
      00000010H   SYMBOL    NUMBER   ---       RTCACAP_B
      00000040H   SYMBOL    NUMBER   ---       RTCBSY_B
      00000040H   SYMBOL    NUMBER   ---       RTCCAP_B
      00000080H   SYMBOL    NUMBER   ---       RTCEN_B
      00000008H   SYMBOL    NUMBER   ---       RTCRLD_B
      00000020H   SYMBOL    NUMBER   ---       RTCRST_B
      00000008H   SYMBOL    NUMBER   ---       RTCSET_B
      00000001H   SYMBOL    NUMBER   ---       SRCM
      00000300H   SYMBOL    NUMBER   ---       STACKSIZE
      00FF010CH   SYMBOL    CODE     ---       STARTUP1
      00000000H   SYMBOL    NUMBER   ---       XDATALEN

      00FF0000H   BLOCK     CODE     NEAR LAB  LVL=0
      00FF0000H   LINE      CODE     ---       #86
      ---         BLOCKEND  ---      ---       LVL=0

      00FF010CH   BLOCK     CODE     NEAR LAB  LVL=0
      00FF010CH   LINE      CODE     ---       #92
      00FF010FH   LINE      CODE     ---       #95
      00FF0112H   LINE      CODE     ---       #96
      00FF0116H   LINE      CODE     ---       #97
      00FF0117H   LINE      CODE     ---       #99
      00FF0118H   LINE      CODE     ---       #100
      00FF0119H   LINE      CODE     ---       #101
      00FF011BH   LINE      CODE     ---       #102
      00FF011DH   LINE      CODE     ---       #115
      00FF011FH   LINE      CODE     ---       #116
      ---         BLOCKEND  ---      ---       LVL=0

      00FF014CH   BLOCK     CODE     NEAR LAB  LVL=0
      00FF014CH   LINE      CODE     ---       #121
      ---         BLOCKEND  ---      ---       LVL=0

      ---         MODULE    ---      ---       main
      00FF13D1H   PUBLIC    CODE     ---       main

      00FF13D1H   BLOCK     CODE     ---       LVL=0
      00FF13D1H   LINE      ---      ---       #24
      00FF13D1H   LINE      ---      ---       #26
      00FF13D3H   LINE      ---      ---       #27
      00FF13D3H   LINE      ---      ---       #29
      00FF13D6H   LINE      ---      ---       #30
      ---         BLOCKEND  ---      ---       LVL=0

      ---         MODULE    ---      ---       rf_task_ctrl
L251 LINKER/LOCATER V4.66.93.0                                                        04/08/2024  14:48:14  PAGE 34


      00FF182AH   PUBLIC    CODE     ---       RF_Task_En
      00FF14D2H   PUBLIC    CODE     ---       RF_Task_AllStop
      00FF190FH   PUBLIC    CODE     ---       RF_Task_Set

      00FF1823H   BLOCK     CODE     ---       LVL=0
      00FF182AH   LINE      ---      ---       #43
      00FF1823H   SYMBOL    CODE     NEAR LAB  ?L?COM0045
      R11         REGSYM    ---      BYTE      enTask
      R10         REGSYM    ---      BYTE      mode
      00FF182CH   BLOCK     CODE     NEAR LAB  LVL=1
      00FF182CH   LINE      ---      ---       #51
      00FF1840H   LINE      ---      ---       #57
      00FF1849H   LINE      ---      ---       #58
      00FF1853H   LINE      ---      ---       #63
      00FF1858H   LINE      ---      ---       #68
      00FF1864H   LINE      ---      ---       #69
      REG=4       REGSYM    ---      ---       pRegTaskCtrlByte
      ---         BLOCKEND  CODE     ---       LVL=1
      ---         BLOCKEND  CODE     ---       LVL=0

      00FF14D2H   BLOCK     CODE     ---       LVL=0
      00FF14D2H   LINE      ---      ---       #80
      00FF14D2H   LINE      ---      ---       #82
      00FF14DEH   LINE      ---      ---       #83
      00FF14E3H   LINE      ---      ---       #90
      00FF14EFH   LINE      ---      ---       #91
      00FF14FBH   LINE      ---      ---       #93
      00FF1507H   LINE      ---      ---       #94
      00FF1513H   LINE      ---      ---       #96
      ---         BLOCKEND  ---      ---       LVL=0

      00FF190FH   BLOCK     CODE     ---       LVL=0
      00FF190FH   LINE      ---      ---       #158
      REG=1       REGSYM    ---      ---       pTaskCtrl
      R10         REGSYM    ---      BYTE      taskNum
      00FF1913H   BLOCK     CODE     NEAR LAB  LVL=1
      00FF1913H   LINE      ---      ---       #166
      00FF191DH   LINE      ---      ---       #167
      00FF1920H   LINE      ---      ---       #168
      00FF1920H   LINE      ---      ---       #170
      00FF192AH   LINE      ---      ---       #172
      00FF1930H   LINE      ---      ---       #173
      00FF1930H   LINE      ---      ---       #208
      00FF1939H   LINE      ---      ---       #224
      00FF1948H   LINE      ---      ---       #225
      00FF1959H   LINE      ---      ---       #226
      00FF1961H   LINE      ---      ---       #227
      00FF196BH   LINE      ---      ---       #229
      00FF1977H   LINE      ---      ---       #230
      00FF1983H   LINE      ---      ---       #231
      00FF198FH   LINE      ---      ---       #232
      00FF199BH   LINE      ---      ---       #234
      00FF19A7H   LINE      ---      ---       #235
      00FF19B3H   LINE      ---      ---       #236
      00FF19BFH   LINE      ---      ---       #237
      00FF19CBH   LINE      ---      ---       #240
      REG=0       REGSYM    ---      ---       pRegTaskCtrlByte
      ---         BLOCKEND  CODE     ---       LVL=1
      00FF19CCH   LINE      ---      ---       #242
      00FF19CCH   LINE      CODE     ---       #242

      ---         MODULE    ---      ---       intr_rf
      00FF1FFBH   PUBLIC    CODE     ---       INTR_Clear
      00FF2024H   PUBLIC    CODE     ---       INTR_ClearRtcGrp
      00FF17E9H   PUBLIC    CODE     ---       INTR_Enable
L251 LINKER/LOCATER V4.66.93.0                                                        04/08/2024  14:48:14  PAGE 35


      00FF2035H   PUBLIC    CODE     ---       INTR_Rf_Hdlr
      00FF143CH   PUBLIC    CODE     ---       INTR_Rf_Register
      0000B486H   PUBLIC    EDATA    ---       gIntrRegMask
      0000B48EH   PUBLIC    EDATA    ---       gIntrRfHdlrTable
      000000A8H.0 SFRSYM    DATA     BIT       EX0
      000000A8H.7 SFRSYM    DATA     BIT       EA
      00FF20CBH   SYMBOL    CODE     ---       INTR_Rf_NullHdlr

      00FF20CBH   BLOCK     CODE     ---       LVL=0
      00FF20CBH   LINE      ---      ---       #40
      00FF20CBH   LINE      ---      ---       #41
      00FF20CBH   LINE      ---      ---       #42
      00FF20CBH   LINE      ---      ---       #43
      ---         BLOCKEND  ---      ---       LVL=0

      00FF1FFBH   BLOCK     CODE     ---       LVL=0
      00FF1FFBH   LINE      ---      ---       #49
      00FF1FFBH   LINE      ---      ---       #51
      00FF1FFDH   LINE      ---      ---       #52
      00FF2006H   LINE      ---      ---       #54
      00FF2015H   LINE      ---      ---       #55
      00FF2023H   LINE      ---      ---       #56
      ---         BLOCKEND  ---      ---       LVL=0

      00FF2024H   BLOCK     CODE     ---       LVL=0
      00FF2024H   LINE      ---      ---       #59
      00FF2024H   LINE      ---      ---       #62
      00FF2034H   LINE      ---      ---       #63
      ---         BLOCKEND  ---      ---       LVL=0

      00FF17E9H   BLOCK     CODE     ---       LVL=0
      00FF17E9H   LINE      ---      ---       #66
      00FF17E9H   LINE      ---      ---       #68
      00FF17EBH   LINE      ---      ---       #70
      00FF17EDH   LINE      ---      ---       #71
      ---         BLOCKEND  ---      ---       LVL=0

      00FF2035H   BLOCK     CODE     ---       LVL=0
      00FF2035H   LINE      ---      ---       #82
      00FF2037H   LINE      ---      ---       #83
      R6          REGSYM    ---      BYTE      intId
      R10         REGSYM    ---      BYTE      intSts
      ---         BLOCKEND  ---      ---       LVL=0

      00FF143CH   BLOCK     CODE     ---       LVL=0
      00FF143CH   LINE      ---      ---       #98
      00FF1440H   LINE      ---      ---       #101
      00FF1449H   LINE      ---      ---       #106
      00FF144CH   LINE      ---      ---       #107
      00FF144CH   LINE      ---      ---       #109
      00FF1454H   LINE      ---      ---       #110
      00FF1487H   LINE      ---      ---       #112
      00FF1488H   LINE      ---      ---       #113
      R1          REGSYM    ---      BYTE      intId
      WR30        REGSYM    ---      WORD      enMask
      REG=2       REGSYM    ---      ---       intHdlr
      ---         BLOCKEND  ---      ---       LVL=0

      ---         MODULE    ---      ---       sys_init
      00FF13D8H   PUBLIC    CODE     ---       SYS_Init
      00FF20CCH   PUBLIC    CODE     ---       SYS_InfoRegInit

      00FF20CCH   BLOCK     CODE     ---       LVL=0
      00FF20CCH   LINE      ---      ---       #101
      00FF20CCH   LINE      ---      ---       #104
L251 LINKER/LOCATER V4.66.93.0                                                        04/08/2024  14:48:14  PAGE 36


      00FF20D8H   LINE      ---      ---       #107
      00FF20E3H   LINE      ---      ---       #108
      00FF20ECH   LINE      ---      ---       #111
      00FF20F5H   LINE      ---      ---       #114
      00FF20FEH   LINE      ---      ---       #118
      00FF2107H   LINE      ---      ---       #122
      ---         BLOCKEND  ---      ---       LVL=0

      00FF13D8H   BLOCK     CODE     ---       LVL=0
      00FF13D8H   LINE      ---      ---       #132
      00FF13D8H   LINE      ---      ---       #135
      00FF13DBH   LINE      ---      ---       #154
      00FF13DEH   LINE      ---      ---       #158
      00FF13E1H   LINE      ---      ---       #165
      00FF13F7H   LINE      ---      ---       #169
      00FF13FCH   LINE      ---      ---       #173
      00FF13FEH   LINE      ---      ---       #174
      00FF1401H   LINE      ---      ---       #193
      00FF1403H   LINE      ---      ---       #197
      00FF1405H   LINE      ---      ---       #200
      00FF1407H   LINE      ---      ---       #204
      00FF1410H   LINE      ---      ---       #211
      ---         BLOCKEND  ---      ---       LVL=0

      ---         MODULE    ---      ---       sys_task
      00FF210CH   PUBLIC    CODE     ---       SYS_Task_Block
      00FF1FBBH   PUBLIC    CODE     ---       SYS_Task_UnBlock
      00FF17F4H   PUBLIC    CODE     ---       SYS_Task_Register
      00FF2828H   PUBLIC    CODE     ---       SYS_Task_Run
      0000B5F5H   PUBLIC    EDATA    BYTE      gTaskMask
      0000B5F6H   PUBLIC    EDATA    ---       gTaskTable
      00FF2856H   SYMBOL    CODE     ---       SYS_Null_Task

      00FF2856H   BLOCK     CODE     ---       LVL=0
      00FF2856H   LINE      ---      ---       #36
      00FF2856H   LINE      ---      ---       #37
      00FF2856H   LINE      ---      ---       #38
      ---         BLOCKEND  ---      ---       LVL=0

      00FF2108H   BLOCK     CODE     ---       LVL=0
      00FF210CH   LINE      ---      ---       #52
      00FF2110H   LINE      ---      ---       #55
      00FF2119H   LINE      ---      ---       #56
      00FF211CH   LINE      ---      ---       #57
      00FF211CH   LINE      ---      ---       #59
      00FF2134H   LINE      ---      ---       #61
      00FF2108H   SYMBOL    CODE     NEAR LAB  ?L?COM0022
      R11         REGSYM    ---      BYTE      hdlTask
      R15         REGSYM    ---      BYTE      blkTask
      ---         BLOCKEND  ---      ---       LVL=0

      00FF1FB1H   BLOCK     CODE     ---       LVL=0
      00FF1FBBH   LINE      ---      ---       #71
      00FF1FBFH   LINE      ---      ---       #74
      00FF1FC8H   LINE      ---      ---       #75
      00FF1FCBH   LINE      ---      ---       #76
      00FF1FCBH   LINE      ---      ---       #78
      00FF1FE0H   LINE      ---      ---       #80
      00FF1FB1H   SYMBOL    CODE     NEAR LAB  ?L?COM0008
      R11         REGSYM    ---      BYTE      hdlTask
      R15         REGSYM    ---      BYTE      blkTask
      ---         BLOCKEND  ---      ---       LVL=0

      00FF17F4H   BLOCK     CODE     ---       LVL=0
      00FF17F4H   LINE      ---      ---       #91
L251 LINKER/LOCATER V4.66.93.0                                                        04/08/2024  14:48:14  PAGE 37


      00FF17F8H   LINE      ---      ---       #92
      00FF1801H   LINE      ---      ---       #93
      00FF1804H   LINE      ---      ---       #94
      00FF1804H   LINE      ---      ---       #95
      00FF180CH   LINE      ---      ---       #96
      00FF1821H   LINE      ---      ---       #97
      00FF1822H   LINE      ---      ---       #98
      R5          REGSYM    ---      BYTE      taskId
      REG=4       REGSYM    ---      ---       taskFunc
      ---         BLOCKEND  ---      ---       LVL=0

      00FF2828H   BLOCK     CODE     ---       LVL=0
      00FF2828H   LINE      ---      ---       #107
      00FF2828H   BLOCK     CODE     NEAR LAB  LVL=1
      00FF2828H   LINE      ---      ---       #112
      00FF2828H   LINE      ---      ---       #113
      00FF282AH   LINE      ---      ---       #114
      00FF282AH   LINE      ---      ---       #115
      00FF2843H   LINE      ---      ---       #116
      00FF284DH   LINE      ---      ---       #117
      00FF284DH   LINE      ---      ---       #118
      00FF284FH   LINE      ---      ---       #119
      00FF2854H   LINE      ---      ---       #120
      R15         REGSYM    ---      BYTE      taskId
      ---         BLOCKEND  CODE     ---       LVL=1
      ---         BLOCKEND  CODE     ---       LVL=0

      ---         MODULE    ---      ---       isr_hdlr
      00FF2044H   PUBLIC    CODE     ---       ISR_0_Hdlr
      00FF2857H   PUBLIC    CODE     ---       ISR_CLEAR_MAC_STATUS
      00FF37F6H   PUBLIC    CODE     ---       ISR_GET_MAC_STATUS
      00FF3805H   PUBLIC    CODE     ---       ISR_1_Hdlr
      000000A8H.7 SFRSYM    DATA     BIT       EA

      00FF2044H   BLOCK     CODE     ---       LVL=0
      00FF2044H   LINE      ---      ---       #18
      00FF2059H   BLOCK     CODE     NEAR LAB  LVL=1
      00FF2059H   LINE      ---      ---       #27
      00FF205BH   LINE      ---      ---       #30
      00FF2068H   LINE      ---      ---       #31
      00FF206FH   LINE      ---      ---       #34
      00FF2075H   LINE      ---      ---       #35
      00FF207BH   LINE      ---      ---       #36
      00FF207BH   LINE      ---      ---       #39
      00FF2080H   LINE      ---      ---       #41
      00FF2086H   LINE      ---      ---       #42
      00FF2086H   LINE      ---      ---       #46
      00FF208DH   LINE      ---      ---       #47
      00FF2090H   LINE      ---      ---       #48
      00FF2090H   LINE      ---      ---       #51
      00FF2097H   LINE      ---      ---       #52
      00FF209BH   LINE      ---      ---       #53
      00FF209BH   LINE      ---      ---       #61
      00FF20A8H   LINE      ---      ---       #62
      00FF20B6H   LINE      ---      ---       #65
      R14         REGSYM    ---      BYTE      bmuStatus
      R15         REGSYM    ---      BYTE      macStatus
      ---         BLOCKEND  CODE     ---       LVL=1
      00FF20B8H   LINE      ---      ---       #67
      00FF20B8H   LINE      CODE     ---       #67

      00FF2857H   BLOCK     CODE     ---       LVL=0
      00FF2857H   LINE      ---      ---       #69
      00FF2859H   LINE      ---      ---       #71
      00FF2867H   LINE      ---      ---       #72
L251 LINKER/LOCATER V4.66.93.0                                                        04/08/2024  14:48:14  PAGE 38


      R0          REGSYM    ---      BYTE      status
      ---         BLOCKEND  ---      ---       LVL=0

      00FF37F6H   BLOCK     CODE     ---       LVL=0
      00FF37F6H   LINE      ---      ---       #74
      00FF37F6H   LINE      ---      ---       #76
      00FF3804H   LINE      ---      ---       #77
      ---         BLOCKEND  ---      ---       LVL=0

      00FF3805H   BLOCK     CODE     ---       LVL=0
      00FF3805H   LINE      ---      ---       #81
      00FF3805H   LINE      ---      ---       #96
      ---         BLOCKEND  ---      ---       LVL=0

      ---         MODULE    ---      ---       sys_ctrl
      00FF1743H   PUBLIC    CODE     ---       SYS_TRAP
      00FF3811H   PUBLIC    CODE     ---       SYS_isClkAPassOverClkB
      00FF3FF1H   PUBLIC    CODE     ---       SYS_Rand
      00FF1411H   PUBLIC    CODE     ---       SYS_IdleTaskInit
      00FF4088H   PUBLIC    CODE     ---       SYS_TimerInit
      00FF4099H   PUBLIC    CODE     ---       SYS_Sleep
      00FF3F40H   PUBLIC    CODE     ---       SYS_EnterSleepGuard
      00FF3F11H   PUBLIC    CODE     ---       SYS_EnterSleepCheck
      00FF410EH   PUBLIC    CODE     ---       SYS_SleepMinTimeGet
      00FF4139H   PUBLIC    CODE     ---       SYS_Idle_Task
      00FF1430H   PUBLIC    CODE     ---       SYS_IdleTaskIntInit
      0000B5D7H   PUBLIC    EDATA    DWORD     gLastWakeTick
      0000B5DBH   PUBLIC    EDATA    ---       gSysEntry_Sleep
      000000A8H.1 SFRSYM    DATA     BIT       ET0
      000000A8H.7 SFRSYM    DATA     BIT       EA
      00000088H.4 SFRSYM    DATA     BIT       TR0
      0000008EH   SFRSYM    DATA     BYTE      CKCON
      0000008CH   SFRSYM    DATA     BYTE      TH0
      0000008AH   SFRSYM    DATA     BYTE      TL0
      00000089H   SFRSYM    DATA     BYTE      TMOD
      00000087H   SFRSYM    DATA     BYTE      PCON
      000000BEH   SFRSYM    DATA     BYTE      SPH
      00000081H   SFRSYM    DATA     BYTE      SP
      00000080H   SFRSYM    DATA     BYTE      P0

      00FF3F40H   BLOCK     CODE     ---       LVL=0
      00FF3F40H   LINE      ---      ---       #66
      00FF3F40H   LINE      ---      ---       #67
      ---         BLOCKEND  ---      ---       LVL=0

      00FF3F11H   BLOCK     CODE     ---       LVL=0
      00FF3F11H   LINE      ---      ---       #70
      00FF3F13H   BLOCK     CODE     NEAR LAB  LVL=1
      00FF3F13H   LINE      ---      ---       #72
      00FF3F15H   LINE      ---      ---       #75
      00FF3F23H   LINE      ---      ---       #76
      00FF3F26H   LINE      ---      ---       #77
      00FF3F26H   LINE      ---      ---       #85
      00FF3F2AH   LINE      ---      ---       #86
      00FF3F2DH   LINE      ---      ---       #87
      00FF3F2DH   LINE      ---      ---       #90
      00FF3F31H   LINE      ---      ---       #91
      00FF3F34H   LINE      ---      ---       #92
      00FF3F34H   LINE      ---      ---       #94
      R15         REGSYM    ---      BYTE      check
      ---         BLOCKEND  CODE     ---       LVL=1
      00FF3F3DH   LINE      ---      ---       #95
      00FF3F3DH   LINE      CODE     ---       #95

      00FF410EH   BLOCK     CODE     ---       LVL=0
L251 LINKER/LOCATER V4.66.93.0                                                        04/08/2024  14:48:14  PAGE 39


      00FF410EH   LINE      ---      ---       #105
      00FF410EH   LINE      ---      ---       #117
      00FF4112H   LINE      ---      ---       #119
      ---         BLOCKEND  ---      ---       LVL=0

      00FF4099H   BLOCK     CODE     ---       LVL=0
      00FF4099H   LINE      ---      ---       #129
      00FF4099H   LINE      ---      ---       #131
      00FF40A6H   LINE      ---      ---       #136
      00FF40A8H   LINE      ---      ---       #137
      00FF40ADH   LINE      ---      ---       #139
      00FF40B0H   LINE      ---      ---       #141
      00FF40BBH   LINE      ---      ---       #142
      00FF40BBH   LINE      ---      ---       #143
      00FF40BDH   LINE      ---      ---       #144
      00FF40C0H   LINE      ---      ---       #146
      00FF40C6H   LINE      ---      ---       #148
      00FF40C9H   LINE      ---      ---       #149
      00FF40D8H   LINE      ---      ---       #150
      00FF40DAH   LINE      ---      ---       #154
      00FF4103H   LINE      ---      ---       #155
      00FF4103H   LINE      ---      ---       #156
      00FF4103H   LINE      ---      ---       #158
      00FF410AH   LINE      ---      ---       #159
      00FF410BH   LINE      ---      ---       #161
      00FF410DH   LINE      ---      ---       #162
      ---         BLOCKEND  ---      ---       LVL=0

      00FF4139H   BLOCK     CODE     ---       LVL=0
      00FF4139H   LINE      ---      ---       #173
      00FF4139H   LINE      ---      ---       #176
      00FF413BH   LINE      ---      ---       #188
      00FF413EH   LINE      ---      ---       #192
      00FF4144H   LINE      ---      ---       #195
      ---         BLOCKEND  ---      ---       LVL=0

      00FF1430H   BLOCK     CODE     ---       LVL=0
      00FF1430H   LINE      ---      ---       #213
      00FF1430H   LINE      ---      ---       #217
      ---         BLOCKEND  ---      ---       LVL=0

      00FF1411H   BLOCK     CODE     ---       LVL=0
      00FF1411H   LINE      ---      ---       #229
      00FF1411H   LINE      ---      ---       #231
      00FF1419H   LINE      ---      ---       #232
      00FF141BH   LINE      ---      ---       #236
      ---         BLOCKEND  ---      ---       LVL=0

      00FF4088H   BLOCK     CODE     ---       LVL=0
      00FF4088H   LINE      ---      ---       #250
      00FF4088H   LINE      ---      ---       #265
      00FF408BH   LINE      ---      ---       #266
      00FF408EH   LINE      ---      ---       #267
      00FF4091H   LINE      ---      ---       #268
      00FF4094H   LINE      ---      ---       #269
      00FF4096H   LINE      ---      ---       #270
      00FF4098H   LINE      ---      ---       #275
      ---         BLOCKEND  ---      ---       LVL=0

      00FF3806H   BLOCK     CODE     ---       LVL=0
      00FF3811H   LINE      ---      ---       #285
      00FF3813H   LINE      ---      ---       #287
      00FF381FH   LINE      ---      ---       #288
      00FF3806H   SYMBOL    CODE     NEAR LAB  ?L?COM0038
      DR4         REGSYM    ---      DWORD     clkA
L251 LINKER/LOCATER V4.66.93.0                                                        04/08/2024  14:48:14  PAGE 40


      DR8         REGSYM    ---      DWORD     clkB
      ---         BLOCKEND  ---      ---       LVL=0

      00FF173EH   BLOCK     CODE     ---       LVL=0
      00FF1743H   LINE      ---      ---       #323
      00FF1743H   LINE      ---      ---       #324
      00FF173EH   SYMBOL    CODE     NEAR LAB  ?L?COM004A
      00FF1743H   BLOCK     CODE     NEAR LAB  LVL=1
      00FF1743H   LINE      ---      ---       #328
      00FF1751H   LINE      ---      ---       #329
      00FF1755H   LINE      ---      ---       #331
      00FF1763H   LINE      ---      ---       #333
      00FF176CH   LINE      ---      ---       #335
      00FF176CH   LINE      ---      ---       #337
      00FF176FH   LINE      ---      ---       #338
      00FF1772H   LINE      ---      ---       #339
      00FF1777H   LINE      ---      ---       #340
      00FF177AH   LINE      ---      ---       #341
      00FF1780H   LINE      ---      ---       #342
      00FF1783H   LINE      ---      ---       #343
      REG=3       REGSYM    ---      ---       stackPtr
      REG=1       REGSYM    ---      ---       assertReportPtr
      ---         BLOCKEND  CODE     ---       LVL=1
      ---         BLOCKEND  CODE     ---       LVL=0

      00FF3FF1H   BLOCK     CODE     ---       LVL=0
      00FF3FF1H   LINE      ---      ---       #348
      00FF3FF9H   LINE      ---      ---       #349
      REG=1       REGSYM    ---      ---       seed
      REG=7       REGSYM    ---      ---       output
      R13         REGSYM    ---      BYTE      outputLen
      00FF3FF9H   BLOCK     CODE     NEAR LAB  LVL=1
      00FF3FF9H   LINE      ---      ---       #354
      00FF3FFEH   LINE      ---      ---       #355
      00FF4001H   LINE      ---      ---       #361
      00FF4014H   LINE      ---      ---       #362
      00FF4023H   LINE      ---      ---       #365
      00FF402BH   LINE      ---      ---       #367
      00FF402FH   LINE      ---      ---       #378
      00FF404AH   LINE      ---      ---       #381
      00FF4054H   LINE      ---      ---       #382
      00FF4068H   LINE      ---      ---       #383
      00FF406AH   LINE      ---      ---       #385
      00FF407FH   LINE      ---      ---       #386
      00FF407FH   LINE      ---      ---       #387
      0000B5DDH   SYMBOL    EDATA    DWORD     seed2
      R12         REGSYM    ---      BYTE      i
      0000B5E1H   SYMBOL    EDATA    ---       pSeed
      ---         BLOCKEND  CODE     ---       LVL=1
      00FF4085H   LINE      ---      ---       #388
      00FF4085H   LINE      CODE     ---       #388

      ---         MODULE    ---      ---       SYS_MEM
      00FF014FH   PUBLIC    CODE     ---       ASM_MEMSET
      000000D0H.6 SFRSYM    DATA     BIT       AC
      000000D8H.0 SFRSYM    DATA     BIT       CCF0
      000000D8H.1 SFRSYM    DATA     BIT       CCF1
      000000D8H.2 SFRSYM    DATA     BIT       CCF2
      000000D8H.3 SFRSYM    DATA     BIT       CCF3
      000000D8H.4 SFRSYM    DATA     BIT       CCF4
      00000090H.3 SFRSYM    DATA     BIT       CEX0
      00000090H.4 SFRSYM    DATA     BIT       CEX1
      00000090H.5 SFRSYM    DATA     BIT       CEX2
      00000090H.6 SFRSYM    DATA     BIT       CEX3
      00000090H.7 SFRSYM    DATA     BIT       CEX4
L251 LINKER/LOCATER V4.66.93.0                                                        04/08/2024  14:48:14  PAGE 41


      000000D8H.7 SFRSYM    DATA     BIT       CF
      000000C8H.0 SFRSYM    DATA     BIT       CP_RL2
      000000D8H.6 SFRSYM    DATA     BIT       CR
      000000D0H.7 SFRSYM    DATA     BIT       CY
      000000C8H.1 SFRSYM    DATA     BIT       C_T2
      000000A8H.7 SFRSYM    DATA     BIT       EA
      000000A8H.6 SFRSYM    DATA     BIT       EC
      00000090H.2 SFRSYM    DATA     BIT       ECI
      000000A8H.4 SFRSYM    DATA     BIT       ES
      000000A8H.1 SFRSYM    DATA     BIT       ET0
      000000A8H.3 SFRSYM    DATA     BIT       ET1
      000000A8H.5 SFRSYM    DATA     BIT       ET2
      000000A8H.0 SFRSYM    DATA     BIT       EX0
      000000A8H.2 SFRSYM    DATA     BIT       EX1
      000000C8H.3 SFRSYM    DATA     BIT       EXEN2
      000000C8H.6 SFRSYM    DATA     BIT       EXF2
      000000D0H.5 SFRSYM    DATA     BIT       F0
      00000098H.7 SFRSYM    DATA     BIT       FE
      00000088H.1 SFRSYM    DATA     BIT       IE0_
      00000088H.3 SFRSYM    DATA     BIT       IE1_
      000000B0H.2 SFRSYM    DATA     BIT       INT0
      000000B0H.3 SFRSYM    DATA     BIT       INT1
      00000088H.0 SFRSYM    DATA     BIT       IT0
      00000088H.2 SFRSYM    DATA     BIT       IT1
      000000D0H.2 SFRSYM    DATA     BIT       OV
      000000D0H.0 SFRSYM    DATA     BIT       P
      000000B8H.6 SFRSYM    DATA     BIT       PPC
      000000B8H.4 SFRSYM    DATA     BIT       PS
      000000B8H.1 SFRSYM    DATA     BIT       PT0
      000000B8H.3 SFRSYM    DATA     BIT       PT1
      000000B8H.5 SFRSYM    DATA     BIT       PT2
      000000B8H.0 SFRSYM    DATA     BIT       PX0
      000000B8H.2 SFRSYM    DATA     BIT       PX1
      00000098H.2 SFRSYM    DATA     BIT       RB8
      000000C8H.5 SFRSYM    DATA     BIT       RCLK
      000000B0H.7 SFRSYM    DATA     BIT       RD
      00000098H.4 SFRSYM    DATA     BIT       REN
      00000098H.0 SFRSYM    DATA     BIT       RI
      000000D0H.3 SFRSYM    DATA     BIT       RS0
      000000D0H.4 SFRSYM    DATA     BIT       RS1
      000000B0H.0 SFRSYM    DATA     BIT       RXD
      00000098H.7 SFRSYM    DATA     BIT       SM0
      00000098H.6 SFRSYM    DATA     BIT       SM1
      00000098H.5 SFRSYM    DATA     BIT       SM2
      000000B0H.4 SFRSYM    DATA     BIT       T0
      000000B0H.5 SFRSYM    DATA     BIT       T1
      00000090H.0 SFRSYM    DATA     BIT       T2
      00000090H.1 SFRSYM    DATA     BIT       T2EX
      00000098H.3 SFRSYM    DATA     BIT       TB8
      000000C8H.4 SFRSYM    DATA     BIT       TCLK
      00000088H.5 SFRSYM    DATA     BIT       TF0
      00000088H.7 SFRSYM    DATA     BIT       TF1
      000000C8H.7 SFRSYM    DATA     BIT       TF2
      00000098H.1 SFRSYM    DATA     BIT       TI
      00000088H.4 SFRSYM    DATA     BIT       TR0
      00000088H.6 SFRSYM    DATA     BIT       TR1
      000000C8H.2 SFRSYM    DATA     BIT       TR2
      000000B0H.1 SFRSYM    DATA     BIT       TXD
      000000D0H.1 SFRSYM    DATA     BIT       UD
      000000B0H.6 SFRSYM    DATA     BIT       WR
      000000E0H   SYMBOL    NUMBER   ---       ACC
      00FF0163H   SYMBOL    CODE     ---       ASM_MEMSET?0
      00FF016CH   SYMBOL    CODE     ---       ASM_MEMSET?1
      00FF0172H   SYMBOL    CODE     ---       ASM_MEMSET?2
      00FF018CH   SYMBOL    CODE     ---       ASM_MEMSET?DEAD?0
L251 LINKER/LOCATER V4.66.93.0                                                        04/08/2024  14:48:14  PAGE 42


      00FF018BH   SYMBOL    CODE     ---       ASM_MEMSET?DONE?
      000000F0H   SYMBOL    NUMBER   ---       B
      000000FAH   SYMBOL    NUMBER   ---       CCAP0H
      000000EAH   SYMBOL    NUMBER   ---       CCAP0L
      000000FBH   SYMBOL    NUMBER   ---       CCAP1H
      000000EBH   SYMBOL    NUMBER   ---       CCAP1L
      000000FCH   SYMBOL    NUMBER   ---       CCAP2H
      000000ECH   SYMBOL    NUMBER   ---       CCAP2L
      000000FDH   SYMBOL    NUMBER   ---       CCAP3H
      000000EDH   SYMBOL    NUMBER   ---       CCAP3L
      000000FEH   SYMBOL    NUMBER   ---       CCAP4H
      000000EEH   SYMBOL    NUMBER   ---       CCAP4L
      000000DAH   SYMBOL    NUMBER   ---       CCAPM0
      000000DBH   SYMBOL    NUMBER   ---       CCAPM1
      000000DCH   SYMBOL    NUMBER   ---       CCAPM2
      000000DDH   SYMBOL    NUMBER   ---       CCAPM3
      000000DEH   SYMBOL    NUMBER   ---       CCAPM4
      000000D8H   SYMBOL    NUMBER   ---       CCON
      000000F9H   SYMBOL    NUMBER   ---       CH
      000000E9H   SYMBOL    NUMBER   ---       CL
      000000D9H   SYMBOL    NUMBER   ---       CMOD
      00000083H   SYMBOL    NUMBER   ---       DPH
      00000082H   SYMBOL    NUMBER   ---       DPL
      00000084H   SYMBOL    NUMBER   ---       DPXL
      000000A8H   SYMBOL    NUMBER   ---       IE0
      000000B7H   SYMBOL    NUMBER   ---       IPH0
      000000B8H   SYMBOL    NUMBER   ---       IPL0
      00000080H   SYMBOL    NUMBER   ---       P0
      00000090H   SYMBOL    NUMBER   ---       P1
      000000A0H   SYMBOL    NUMBER   ---       P2
      000000B0H   SYMBOL    NUMBER   ---       P3
      00000087H   SYMBOL    NUMBER   ---       PCON
      000000D0H   SYMBOL    NUMBER   ---       PSW
      000000D1H   SYMBOL    NUMBER   ---       PSW1
      000000CBH   SYMBOL    NUMBER   ---       RCAP2H
      000000CAH   SYMBOL    NUMBER   ---       RCAP2L
      000000A9H   SYMBOL    NUMBER   ---       SADDR
      000000B9H   SYMBOL    NUMBER   ---       SADEN
      00000099H   SYMBOL    NUMBER   ---       SBUF
      00000098H   SYMBOL    NUMBER   ---       SCON
      00000081H   SYMBOL    NUMBER   ---       SP
      000000BEH   SYMBOL    NUMBER   ---       SPH
      000000C8H   SYMBOL    NUMBER   ---       T2CON
      000000C9H   SYMBOL    NUMBER   ---       T2MOD
      00000088H   SYMBOL    NUMBER   ---       TCON
      0000008CH   SYMBOL    NUMBER   ---       TH0
      0000008DH   SYMBOL    NUMBER   ---       TH1
      000000CDH   SYMBOL    NUMBER   ---       TH2
      0000008AH   SYMBOL    NUMBER   ---       TL0
      0000008BH   SYMBOL    NUMBER   ---       TL1
      000000CCH   SYMBOL    NUMBER   ---       TL2
      00000089H   SYMBOL    NUMBER   ---       TMOD
      000000A7H   SYMBOL    NUMBER   ---       WCON
      000000A6H   SYMBOL    NUMBER   ---       WDTRST

      00FF014FH   BLOCK     CODE     NEAR LAB  LVL=0
      00FF014FH   LINE      CODE     ---       #22
      00FF0151H   LINE      CODE     ---       #23
      00FF0153H   LINE      CODE     ---       #24
      00FF0155H   LINE      CODE     ---       #25
      00FF0157H   LINE      CODE     ---       #26
      00FF015BH   LINE      CODE     ---       #27
      00FF015DH   LINE      CODE     ---       #28
      00FF015FH   LINE      CODE     ---       #29
      00FF0161H   LINE      CODE     ---       #30
L251 LINKER/LOCATER V4.66.93.0                                                        04/08/2024  14:48:14  PAGE 43


      00FF0163H   LINE      CODE     ---       #32
      00FF0166H   LINE      CODE     ---       #33
      00FF0168H   LINE      CODE     ---       #34
      00FF016AH   LINE      CODE     ---       #35
      00FF016CH   LINE      CODE     ---       #37
      00FF016EH   LINE      CODE     ---       #38
      00FF0170H   LINE      CODE     ---       #39
      00FF0172H   LINE      CODE     ---       #41
      00FF0175H   LINE      CODE     ---       #42
      00FF0179H   LINE      CODE     ---       #43
      00FF017DH   LINE      CODE     ---       #44
      00FF0181H   LINE      CODE     ---       #45
      00FF0185H   LINE      CODE     ---       #46
      00FF0189H   LINE      CODE     ---       #47
      00FF018BH   LINE      CODE     ---       #49
      00FF018CH   LINE      CODE     ---       #52
      00FF018EH   LINE      CODE     ---       #53
      ---         BLOCKEND  ---      ---       LVL=0

      ---         MODULE    ---      ---       SYS_MEM2
      00FF00ADH   PUBLIC    CODE     ---       ASM_MEMCPY
      000000D0H.6 SFRSYM    DATA     BIT       AC
      000000D8H.0 SFRSYM    DATA     BIT       CCF0
      000000D8H.1 SFRSYM    DATA     BIT       CCF1
      000000D8H.2 SFRSYM    DATA     BIT       CCF2
      000000D8H.3 SFRSYM    DATA     BIT       CCF3
      000000D8H.4 SFRSYM    DATA     BIT       CCF4
      00000090H.3 SFRSYM    DATA     BIT       CEX0
      00000090H.4 SFRSYM    DATA     BIT       CEX1
      00000090H.5 SFRSYM    DATA     BIT       CEX2
      00000090H.6 SFRSYM    DATA     BIT       CEX3
      00000090H.7 SFRSYM    DATA     BIT       CEX4
      000000D8H.7 SFRSYM    DATA     BIT       CF
      000000C8H.0 SFRSYM    DATA     BIT       CP_RL2
      000000D8H.6 SFRSYM    DATA     BIT       CR
      000000D0H.7 SFRSYM    DATA     BIT       CY
      000000C8H.1 SFRSYM    DATA     BIT       C_T2
      000000A8H.7 SFRSYM    DATA     BIT       EA
      000000A8H.6 SFRSYM    DATA     BIT       EC
      00000090H.2 SFRSYM    DATA     BIT       ECI
      000000A8H.4 SFRSYM    DATA     BIT       ES
      000000A8H.1 SFRSYM    DATA     BIT       ET0
      000000A8H.3 SFRSYM    DATA     BIT       ET1
      000000A8H.5 SFRSYM    DATA     BIT       ET2
      000000A8H.0 SFRSYM    DATA     BIT       EX0
      000000A8H.2 SFRSYM    DATA     BIT       EX1
      000000C8H.3 SFRSYM    DATA     BIT       EXEN2
      000000C8H.6 SFRSYM    DATA     BIT       EXF2
      000000D0H.5 SFRSYM    DATA     BIT       F0
      00000098H.7 SFRSYM    DATA     BIT       FE
      00000088H.1 SFRSYM    DATA     BIT       IE0_
      00000088H.3 SFRSYM    DATA     BIT       IE1_
      000000B0H.2 SFRSYM    DATA     BIT       INT0
      000000B0H.3 SFRSYM    DATA     BIT       INT1
      00000088H.0 SFRSYM    DATA     BIT       IT0
      00000088H.2 SFRSYM    DATA     BIT       IT1
      000000D0H.2 SFRSYM    DATA     BIT       OV
      000000D0H.0 SFRSYM    DATA     BIT       P
      000000B8H.6 SFRSYM    DATA     BIT       PPC
      000000B8H.4 SFRSYM    DATA     BIT       PS
      000000B8H.1 SFRSYM    DATA     BIT       PT0
      000000B8H.3 SFRSYM    DATA     BIT       PT1
      000000B8H.5 SFRSYM    DATA     BIT       PT2
      000000B8H.0 SFRSYM    DATA     BIT       PX0
      000000B8H.2 SFRSYM    DATA     BIT       PX1
L251 LINKER/LOCATER V4.66.93.0                                                        04/08/2024  14:48:14  PAGE 44


      00000098H.2 SFRSYM    DATA     BIT       RB8
      000000C8H.5 SFRSYM    DATA     BIT       RCLK
      000000B0H.7 SFRSYM    DATA     BIT       RD
      00000098H.4 SFRSYM    DATA     BIT       REN
      00000098H.0 SFRSYM    DATA     BIT       RI
      000000D0H.3 SFRSYM    DATA     BIT       RS0
      000000D0H.4 SFRSYM    DATA     BIT       RS1
      000000B0H.0 SFRSYM    DATA     BIT       RXD
      00000098H.7 SFRSYM    DATA     BIT       SM0
      00000098H.6 SFRSYM    DATA     BIT       SM1
      00000098H.5 SFRSYM    DATA     BIT       SM2
      000000B0H.4 SFRSYM    DATA     BIT       T0
      000000B0H.5 SFRSYM    DATA     BIT       T1
      00000090H.0 SFRSYM    DATA     BIT       T2
      00000090H.1 SFRSYM    DATA     BIT       T2EX
      00000098H.3 SFRSYM    DATA     BIT       TB8
      000000C8H.4 SFRSYM    DATA     BIT       TCLK
      00000088H.5 SFRSYM    DATA     BIT       TF0
      00000088H.7 SFRSYM    DATA     BIT       TF1
      000000C8H.7 SFRSYM    DATA     BIT       TF2
      00000098H.1 SFRSYM    DATA     BIT       TI
      00000088H.4 SFRSYM    DATA     BIT       TR0
      00000088H.6 SFRSYM    DATA     BIT       TR1
      000000C8H.2 SFRSYM    DATA     BIT       TR2
      000000B0H.1 SFRSYM    DATA     BIT       TXD
      000000D0H.1 SFRSYM    DATA     BIT       UD
      000000B0H.6 SFRSYM    DATA     BIT       WR
      000000E0H   SYMBOL    NUMBER   ---       ACC
      00FF00C5H   SYMBOL    CODE     ---       ASM_MEMCPY?0
      00FF00D3H   SYMBOL    CODE     ---       ASM_MEMCPY?1
      00FF00D7H   SYMBOL    CODE     ---       ASM_MEMCPY?2
      00FF0104H   SYMBOL    CODE     ---       ASM_MEMCPY?DEAD?0
      00FF0108H   SYMBOL    CODE     ---       ASM_MEMCPY?DEAD?1
      00FF0103H   SYMBOL    CODE     ---       ASM_MEMCPY?DONE?
      000000F0H   SYMBOL    NUMBER   ---       B
      000000FAH   SYMBOL    NUMBER   ---       CCAP0H
      000000EAH   SYMBOL    NUMBER   ---       CCAP0L
      000000FBH   SYMBOL    NUMBER   ---       CCAP1H
      000000EBH   SYMBOL    NUMBER   ---       CCAP1L
      000000FCH   SYMBOL    NUMBER   ---       CCAP2H
      000000ECH   SYMBOL    NUMBER   ---       CCAP2L
      000000FDH   SYMBOL    NUMBER   ---       CCAP3H
      000000EDH   SYMBOL    NUMBER   ---       CCAP3L
      000000FEH   SYMBOL    NUMBER   ---       CCAP4H
      000000EEH   SYMBOL    NUMBER   ---       CCAP4L
      000000DAH   SYMBOL    NUMBER   ---       CCAPM0
      000000DBH   SYMBOL    NUMBER   ---       CCAPM1
      000000DCH   SYMBOL    NUMBER   ---       CCAPM2
      000000DDH   SYMBOL    NUMBER   ---       CCAPM3
      000000DEH   SYMBOL    NUMBER   ---       CCAPM4
      000000D8H   SYMBOL    NUMBER   ---       CCON
      000000F9H   SYMBOL    NUMBER   ---       CH
      000000E9H   SYMBOL    NUMBER   ---       CL
      000000D9H   SYMBOL    NUMBER   ---       CMOD
      00000083H   SYMBOL    NUMBER   ---       DPH
      00000082H   SYMBOL    NUMBER   ---       DPL
      00000084H   SYMBOL    NUMBER   ---       DPXL
      000000A8H   SYMBOL    NUMBER   ---       IE0
      000000B7H   SYMBOL    NUMBER   ---       IPH0
      000000B8H   SYMBOL    NUMBER   ---       IPL0
      00000080H   SYMBOL    NUMBER   ---       P0
      00000090H   SYMBOL    NUMBER   ---       P1
      000000A0H   SYMBOL    NUMBER   ---       P2
      000000B0H   SYMBOL    NUMBER   ---       P3
      00000087H   SYMBOL    NUMBER   ---       PCON
L251 LINKER/LOCATER V4.66.93.0                                                        04/08/2024  14:48:14  PAGE 45


      000000D0H   SYMBOL    NUMBER   ---       PSW
      000000D1H   SYMBOL    NUMBER   ---       PSW1
      000000CBH   SYMBOL    NUMBER   ---       RCAP2H
      000000CAH   SYMBOL    NUMBER   ---       RCAP2L
      000000A9H   SYMBOL    NUMBER   ---       SADDR
      000000B9H   SYMBOL    NUMBER   ---       SADEN
      00000099H   SYMBOL    NUMBER   ---       SBUF
      00000098H   SYMBOL    NUMBER   ---       SCON
      00000081H   SYMBOL    NUMBER   ---       SP
      000000BEH   SYMBOL    NUMBER   ---       SPH
      000000C8H   SYMBOL    NUMBER   ---       T2CON
      000000C9H   SYMBOL    NUMBER   ---       T2MOD
      00000088H   SYMBOL    NUMBER   ---       TCON
      0000008CH   SYMBOL    NUMBER   ---       TH0
      0000008DH   SYMBOL    NUMBER   ---       TH1
      000000CDH   SYMBOL    NUMBER   ---       TH2
      0000008AH   SYMBOL    NUMBER   ---       TL0
      0000008BH   SYMBOL    NUMBER   ---       TL1
      000000CCH   SYMBOL    NUMBER   ---       TL2
      00000089H   SYMBOL    NUMBER   ---       TMOD
      000000A7H   SYMBOL    NUMBER   ---       WCON
      000000A6H   SYMBOL    NUMBER   ---       WDTRST

      00FF00ADH   BLOCK     CODE     NEAR LAB  LVL=0
      00FF00ADH   LINE      CODE     ---       #25
      00FF00AFH   LINE      CODE     ---       #26
      00FF00B1H   LINE      CODE     ---       #28
      00FF00B3H   LINE      CODE     ---       #29
      00FF00B5H   LINE      CODE     ---       #31
      00FF00B7H   LINE      CODE     ---       #32
      00FF00B9H   LINE      CODE     ---       #33
      00FF00BDH   LINE      CODE     ---       #34
      00FF00BFH   LINE      CODE     ---       #35
      00FF00C1H   LINE      CODE     ---       #36
      00FF00C3H   LINE      CODE     ---       #45
      00FF00C5H   LINE      CODE     ---       #48
      00FF00C8H   LINE      CODE     ---       #49
      00FF00CBH   LINE      CODE     ---       #50
      00FF00CDH   LINE      CODE     ---       #51
      00FF00CFH   LINE      CODE     ---       #52
      00FF00D1H   LINE      CODE     ---       #53
      00FF00D3H   LINE      CODE     ---       #56
      00FF00D5H   LINE      CODE     ---       #57
      00FF00D7H   LINE      CODE     ---       #60
      00FF00DAH   LINE      CODE     ---       #61
      00FF00DDH   LINE      CODE     ---       #62
      00FF00E1H   LINE      CODE     ---       #63
      00FF00E5H   LINE      CODE     ---       #64
      00FF00E9H   LINE      CODE     ---       #65
      00FF00EDH   LINE      CODE     ---       #66
      00FF00F1H   LINE      CODE     ---       #67
      00FF00F5H   LINE      CODE     ---       #68
      00FF00F9H   LINE      CODE     ---       #69
      00FF00FDH   LINE      CODE     ---       #70
      00FF0101H   LINE      CODE     ---       #71
      00FF0103H   LINE      CODE     ---       #74
      00FF0104H   LINE      CODE     ---       #77
      00FF0106H   LINE      CODE     ---       #78
      00FF0108H   LINE      CODE     ---       #80
      00FF010AH   LINE      CODE     ---       #81
      ---         BLOCKEND  ---      ---       LVL=0

      ---         MODULE    ---      ---       sys_qctrl
      00FF4172H   PUBLIC    CODE     ---       Q_Init
      00FF41AAH   PUBLIC    CODE     ---       Q_MemFreeCount
L251 LINKER/LOCATER V4.66.93.0                                                        04/08/2024  14:48:14  PAGE 46


      00FF41C4H   PUBLIC    CODE     ---       Q_MemAlloc
      00FF4850H   PUBLIC    CODE     ---       Q_MemFree
      00FF42A6H   PUBLIC    CODE     ---       Q_MemGet
      00FF485DH   PUBLIC    CODE     ---       Q_QGet
      00FF3FB0H   PUBLIC    CODE     ---       Q_QNumGet
      00FF5007H   PUBLIC    CODE     ---       Q_QLenGet
      00FF489DH   PUBLIC    CODE     ---       Q_QFree
      00FF4427H   PUBLIC    CODE     ---       Q_QPushBack
      00FF50F3H   PUBLIC    CODE     ---       Q_QPushFront
      00FF51B1H   PUBLIC    CODE     ---       Q_QMoveBack
      00FF501DH   PUBLIC    CODE     ---       Q_QChageType
      00FF5057H   PUBLIC    CODE     ---       Q_QRemove
      0000AC55H   PUBLIC    EDATA    ---       sQCtrl
      0000AC61H   PUBLIC    EDATA    ---       sQHeader
      0000ACD9H   PUBLIC    EDATA    ---       sQPayload
      000000A8H.7 SFRSYM    DATA     BIT       EA

      00FF4172H   BLOCK     CODE     ---       LVL=0
      00FF4172H   LINE      ---      ---       #32
      00FF4172H   LINE      ---      ---       #33
      00FF4172H   BLOCK     CODE     NEAR LAB  LVL=1
      00FF4172H   LINE      ---      ---       #38
      00FF4174H   LINE      ---      ---       #40
      00FF417DH   LINE      ---      ---       #41
      00FF4182H   LINE      ---      ---       #42
      00FF4186H   LINE      ---      ---       #43
      00FF418BH   LINE      ---      ---       #44
      00FF4192H   LINE      ---      ---       #47
      00FF419EH   LINE      ---      ---       #50
      REG=4       REGSYM    ---      ---       pQCtrl
      R7          REGSYM    ---      BYTE      qType
      ---         BLOCKEND  CODE     ---       LVL=1
      ---         BLOCKEND  CODE     ---       LVL=0

      00FF41AAH   BLOCK     CODE     ---       LVL=0
      00FF41AAH   LINE      ---      ---       #54
      00FF41AAH   LINE      ---      ---       #55
      00FF41AAH   BLOCK     CODE     NEAR LAB  LVL=1
      00FF41AAH   LINE      ---      ---       #57
      00FF41ACH   LINE      ---      ---       #60
      00FF41AEH   LINE      ---      ---       #62
      00FF41B8H   LINE      ---      ---       #64
      00FF41BAH   LINE      ---      ---       #65
      00FF41C1H   LINE      ---      ---       #68
      R6          REGSYM    ---      BYTE      qIdx
      R7          REGSYM    ---      BYTE      freeCnt
      ---         BLOCKEND  CODE     ---       LVL=1
      00FF41C3H   LINE      ---      ---       #69
      00FF41C3H   LINE      CODE     ---       #69

      00FF41C4H   BLOCK     CODE     ---       LVL=0
      00FF41C4H   LINE      ---      ---       #72
      00FF41C4H   LINE      ---      ---       #73
      00FF41C4H   BLOCK     CODE     NEAR LAB  LVL=1
      00FF41C4H   LINE      ---      ---       #77
      00FF41C6H   LINE      ---      ---       #79
      00FF41D1H   LINE      ---      ---       #81
      00FF41D7H   LINE      ---      ---       #82
      00FF41D9H   LINE      ---      ---       #83
      00FF41E0H   LINE      ---      ---       #89
      R7          REGSYM    ---      BYTE      qIdx
      ---         BLOCKEND  CODE     ---       LVL=1
      00FF41E2H   LINE      ---      ---       #90
      00FF41E2H   LINE      CODE     ---       #90

L251 LINKER/LOCATER V4.66.93.0                                                        04/08/2024  14:48:14  PAGE 47


      00FF4850H   BLOCK     CODE     ---       LVL=0
      00FF4850H   LINE      ---      ---       #92
      00FF4852H   LINE      ---      ---       #97
      00FF485CH   LINE      ---      ---       #98
      R5          REGSYM    ---      BYTE      qIdx
      ---         BLOCKEND  ---      ---       LVL=0

      00FF42A2H   BLOCK     CODE     ---       LVL=0
      00FF42A6H   LINE      ---      ---       #100
      00FF42AAH   LINE      ---      ---       #104
      00FF42B2H   LINE      ---      ---       #106
      00FF42BBH   LINE      ---      ---       #107
      00FF42A2H   SYMBOL    CODE     NEAR LAB  ?L?COM0001
      R15         REGSYM    ---      BYTE      qIdx
      ---         BLOCKEND  ---      ---       LVL=0

      00FF485DH   BLOCK     CODE     ---       LVL=0
      00FF485DH   LINE      ---      ---       #109
      00FF485FH   LINE      ---      ---       #114
      00FF4872H   LINE      ---      ---       #115
      WR2         REGSYM    ---      INT       qType
      ---         BLOCKEND  ---      ---       LVL=0

      00FF3FACH   BLOCK     CODE     ---       LVL=0
      00FF3FB0H   LINE      ---      ---       #117
      00FF3FB2H   LINE      ---      ---       #122
      00FF3FBCH   LINE      ---      ---       #123
      00FF3FACH   SYMBOL    CODE     NEAR LAB  ?L?COM0053
      WR2         REGSYM    ---      INT       qType
      ---         BLOCKEND  ---      ---       LVL=0

      00FF5007H   BLOCK     CODE     ---       LVL=0
      00FF5007H   LINE      ---      ---       #125
      00FF5009H   LINE      ---      ---       #129
      00FF501CH   LINE      ---      ---       #130
      WR2         REGSYM    ---      INT       qType
      ---         BLOCKEND  ---      ---       LVL=0

      00FF5057H   BLOCK     CODE     ---       LVL=0
      00FF5057H   LINE      ---      ---       #132
      00FF505BH   LINE      ---      ---       #136
      WR2         REGSYM    ---      INT       qType
      R1          REGSYM    ---      BYTE      bKeepMem
      00FF505BH   BLOCK     CODE     NEAR LAB  LVL=1
      00FF505BH   LINE      ---      ---       #137
      00FF5067H   LINE      ---      ---       #138
      00FF5073H   LINE      ---      ---       #141
      00FF5075H   LINE      ---      ---       #145
      00FF5083H   LINE      ---      ---       #146
      00FF5088H   LINE      ---      ---       #147
      00FF5096H   LINE      ---      ---       #150
      00FF50A5H   LINE      ---      ---       #152
      00FF50B6H   LINE      ---      ---       #153
      00FF50C4H   LINE      ---      ---       #157
      00FF50C8H   LINE      ---      ---       #158
      00FF50D6H   LINE      ---      ---       #161
      00FF50E1H   LINE      ---      ---       #162
      00FF50E4H   LINE      ---      ---       #163
      00FF50EAH   LINE      ---      ---       #164
      00FF50F0H   LINE      ---      ---       #165
      REG=4       REGSYM    ---      ---       pQCtrl
      REG=2       REGSYM    ---      ---       pQHeader
      R0          REGSYM    ---      BYTE      nextNode
      ---         BLOCKEND  CODE     ---       LVL=1
      00FF50F2H   LINE      ---      ---       #166
L251 LINKER/LOCATER V4.66.93.0                                                        04/08/2024  14:48:14  PAGE 48


      00FF50F2H   LINE      CODE     ---       #166

      00FF489DH   BLOCK     CODE     ---       LVL=0
      00FF489DH   LINE      ---      ---       #168
      00FF489FH   LINE      ---      ---       #171
      WR2         REGSYM    ---      INT       qType
      00FF489FH   BLOCK     CODE     NEAR LAB  LVL=1
      00FF489FH   LINE      ---      ---       #172
      00FF48ABH   LINE      ---      ---       #175
      00FF48B3H   LINE      ---      ---       #176
      00FF48B3H   LINE      ---      ---       #179
      REG=0       REGSYM    ---      ---       pQCtrl
      ---         BLOCKEND  CODE     ---       LVL=1
      00FF48B9H   LINE      ---      ---       #180
      00FF48B9H   LINE      CODE     ---       #180

      00FF4419H   BLOCK     CODE     ---       LVL=0
      00FF4427H   LINE      ---      ---       #182
      00FF4433H   LINE      ---      ---       #187
      00FF4419H   SYMBOL    CODE     NEAR LAB  ?L?COM0015
      WR12        REGSYM    ---      INT       qType
      R15         REGSYM    ---      BYTE      qIdx
      0000B5A0H   SYMBOL    EDATA    WORD      dataLen
      00FF4433H   BLOCK     CODE     NEAR LAB  LVL=1
      00FF4433H   LINE      ---      ---       #188
      00FF4441H   LINE      ---      ---       #189
      00FF4455H   LINE      ---      ---       #190
      00FF4462H   LINE      ---      ---       #193
      00FF446AH   LINE      ---      ---       #198
      00FF4476H   LINE      ---      ---       #200
      00FF4478H   LINE      ---      ---       #201
      00FF4481H   LINE      ---      ---       #202
      00FF4491H   LINE      ---      ---       #203
      00FF449BH   LINE      ---      ---       #208
      00FF44A8H   LINE      ---      ---       #209
      00FF44B9H   LINE      ---      ---       #212
      00FF44C1H   LINE      ---      ---       #213
      00FF44CBH   LINE      ---      ---       #214
      00FF44CEH   LINE      ---      ---       #217
      00FF44DAH   LINE      ---      ---       #219
      00FF44E7H   LINE      ---      ---       #220
      0000B5A2H   SYMBOL    EDATA    ---       pQCtrl
      0000B5A4H   SYMBOL    EDATA    ---       pQHeader
      0000B5A6H   SYMBOL    EDATA    ---       pQ_PAYLOAD
      ---         BLOCKEND  CODE     ---       LVL=1
      00FF44E9H   LINE      ---      ---       #221
      00FF44E9H   LINE      CODE     ---       #221

      00FF50F3H   BLOCK     CODE     ---       LVL=0
      00FF50F3H   LINE      ---      ---       #224
      00FF50FDH   LINE      ---      ---       #229
      WR8         REGSYM    ---      INT       qType
      R15         REGSYM    ---      BYTE      qIdx
      WR12        REGSYM    ---      WORD      dataLen
      00FF50FDH   BLOCK     CODE     NEAR LAB  LVL=1
      00FF50FDH   LINE      ---      ---       #230
      00FF510DH   LINE      ---      ---       #231
      00FF5121H   LINE      ---      ---       #232
      00FF512EH   LINE      ---      ---       #235
      00FF5136H   LINE      ---      ---       #240
      00FF5142H   LINE      ---      ---       #242
      00FF5144H   LINE      ---      ---       #243
      00FF514DH   LINE      ---      ---       #244
      00FF5157H   LINE      ---      ---       #245
      00FF5166H   LINE      ---      ---       #250
L251 LINKER/LOCATER V4.66.93.0                                                        04/08/2024  14:48:14  PAGE 49


      00FF5172H   LINE      ---      ---       #251
      00FF517FH   LINE      ---      ---       #254
      00FF518CH   LINE      ---      ---       #255
      00FF5193H   LINE      ---      ---       #256
      00FF519EH   LINE      ---      ---       #257
      00FF51A2H   LINE      ---      ---       #260
      00FF51AAH   LINE      ---      ---       #261
      0000B5E3H   SYMBOL    EDATA    ---       pQCtrl
      0000B5E5H   SYMBOL    EDATA    ---       pQHeader
      0000B5E7H   SYMBOL    EDATA    ---       pQ_PAYLOAD
      ---         BLOCKEND  CODE     ---       LVL=1
      00FF51ACH   LINE      ---      ---       #262
      00FF51ACH   LINE      CODE     ---       #262

      00FF51B1H   BLOCK     CODE     ---       LVL=0
      00FF51B1H   LINE      ---      ---       #264
      00FF51B3H   LINE      ---      ---       #267
      WR2         REGSYM    ---      INT       qType
      00FF51B3H   BLOCK     CODE     NEAR LAB  LVL=1
      00FF51B3H   LINE      ---      ---       #268
      00FF51BFH   LINE      ---      ---       #269
      00FF51CBH   LINE      ---      ---       #273
      00FF51D3H   LINE      ---      ---       #274
      00FF51D3H   LINE      ---      ---       #279
      00FF51DEH   LINE      ---      ---       #280
      00FF51E3H   LINE      ---      ---       #281
      00FF51F1H   LINE      ---      ---       #286
      00FF5203H   LINE      ---      ---       #287
      00FF5214H   LINE      ---      ---       #292
      00FF5226H   LINE      ---      ---       #295
      00FF522DH   LINE      ---      ---       #296
      REG=0       REGSYM    ---      ---       pQCtrl
      REG=1       REGSYM    ---      ---       pQHeader
      R7          REGSYM    ---      BYTE      nextNode
      ---         BLOCKEND  CODE     ---       LVL=1
      00FF5230H   LINE      ---      ---       #297
      00FF5230H   LINE      CODE     ---       #297

      00FF501DH   BLOCK     CODE     ---       LVL=0
      00FF501DH   LINE      ---      ---       #299
      00FF5023H   LINE      ---      ---       #303
      WR12        REGSYM    ---      INT       qTypeDest
      WR14        REGSYM    ---      INT       qTypeSrc
      00FF5023H   BLOCK     CODE     NEAR LAB  LVL=1
      00FF5023H   LINE      ---      ---       #304
      00FF502DH   LINE      ---      ---       #309
      00FF5035H   LINE      ---      ---       #310
      00FF5035H   LINE      ---      ---       #313
      00FF5039H   LINE      ---      ---       #314
      00FF5041H   LINE      ---      ---       #317
      00FF5047H   LINE      ---      ---       #320
      REG=3       REGSYM    ---      ---       pQSrcCtrl
      0000B638H   SYMBOL    EDATA    BYTE      qIdx
      0000B639H   SYMBOL    EDATA    WORD      qLen
      ---         BLOCKEND  CODE     ---       LVL=1
      00FF5054H   LINE      ---      ---       #321
      00FF5054H   LINE      CODE     ---       #321

      ---         MODULE    ---      ---       sys_rtc
      00FF1F7EH   PUBLIC    CODE     ---       RTC_ClkGet?_
      00FF2EDAH   PUBLIC    CODE     ---       RTC_uDelay
      00FF1FAAH   PUBLIC    CODE     ---       RTC_TickGapCount
      00FF5231H   PUBLIC    CODE     ---       RTC_TimerConfig
      00FF5828H   PUBLIC    CODE     ---       RTC_TimerWakeUpDisable
      00FF5855H   PUBLIC    CODE     ---       RTC_WaitForTriggered
L251 LINKER/LOCATER V4.66.93.0                                                        04/08/2024  14:48:14  PAGE 50


      00FF4113H   PUBLIC    CODE     ---       RTC_TriggerWithinUs
      00FF585FH   PUBLIC    CODE     ---       RTC_IsrHdlrInit
      00FF3688H   PUBLIC    CODE     ---       RTC_Init
      00FF589CH   PUBLIC    CODE     ---       RTC_IsrHdlr
      0000B5E9H   PUBLIC    EDATA    ---       gSysRtcHdlrTable
      00FF589BH   SYMBOL    CODE     ---       Rtc_NullHdlr
      0000B5EBH   SYMBOL    EDATA    DWORD     rtcNextAnchor

      00FF589BH   BLOCK     CODE     ---       LVL=0
      00FF589BH   LINE      ---      ---       #39
      00FF589BH   LINE      ---      ---       #40
      00FF589BH   LINE      ---      ---       #41
      ---         BLOCKEND  ---      ---       LVL=0

      00FF589CH   BLOCK     CODE     ---       LVL=0
      00FF589CH   LINE      ---      ---       #44
      00FF589CH   LINE      ---      ---       #47
      00FF589CH   LINE      ---      ---       #49
      00FF58A2H   LINE      ---      ---       #52
      00FF58A8H   LINE      ---      ---       #55
      ---         BLOCKEND  ---      ---       LVL=0

      00FF2ED2H   BLOCK     CODE     ---       LVL=0
      00FF2EDAH   LINE      ---      ---       #62
      00FF2ED2H   SYMBOL    CODE     NEAR LAB  ?L?COM0021
      DR12        REGSYM    ---      DWORD     delayUs
      00FF2EDEH   BLOCK     CODE     NEAR LAB  LVL=1
      00FF2EDEH   LINE      ---      ---       #95
      00FF2EE3H   LINE      ---      ---       #96
      00FF2EE3H   LINE      ---      ---       #97
      00FF2EECH   LINE      ---      ---       #98
      0000B604H   SYMBOL    EDATA    DWORD     clkA
      DR12        REGSYM    ---      DWORD     clkB
      ---         BLOCKEND  CODE     ---       LVL=1
      00FF2EF6H   LINE      ---      ---       #100
      00FF2EF6H   LINE      CODE     ---       #100

      00FF1F99H   BLOCK     CODE     ---       LVL=0
      00FF1FAAH   LINE      ---      ---       #104
      00FF1FACH   LINE      ---      ---       #113
      00FF1FB0H   LINE      ---      ---       #115
      00FF1F99H   SYMBOL    CODE     NEAR LAB  ?L?COM0027
      DR4         REGSYM    ---      DWORD     clkA
      DR8         REGSYM    ---      DWORD     clkB
      ---         BLOCKEND  ---      ---       LVL=0

      00FF5231H   BLOCK     CODE     ---       LVL=0
      00FF5231H   LINE      ---      ---       #118
      00FF5237H   LINE      ---      ---       #121
      00FF5251H   LINE      ---      ---       #124
      00FF525CH   LINE      ---      ---       #127
      00FF5261H   LINE      ---      ---       #128
      00FF526CH   LINE      ---      ---       #129
      00FF526CH   LINE      ---      ---       #132
      00FF5278H   LINE      ---      ---       #135
      00FF5290H   LINE      ---      ---       #137
      00FF529CH   LINE      ---      ---       #138
      00FF52A0H   LINE      ---      ---       #139
      R10         REGSYM    ---      BYTE      mode
      DR28        REGSYM    ---      DWORD     rtcValue
      DR24        REGSYM    ---      DWORD     rtcInterval
      ---         BLOCKEND  ---      ---       LVL=0

      00FF5828H   BLOCK     CODE     ---       LVL=0
      00FF5828H   LINE      ---      ---       #144
L251 LINKER/LOCATER V4.66.93.0                                                        04/08/2024  14:48:14  PAGE 51


      00FF5828H   LINE      ---      ---       #146
      00FF5834H   LINE      ---      ---       #149
      00FF583AH   LINE      ---      ---       #151
      ---         BLOCKEND  ---      ---       LVL=0

      00FF5855H   BLOCK     CODE     ---       LVL=0
      00FF5855H   LINE      ---      ---       #155
      00FF5855H   LINE      ---      ---       #157
      00FF5855H   LINE      ---      ---       #158
      00FF5856H   LINE      ---      ---       #159
      00FF585EH   LINE      ---      ---       #160
      ---         BLOCKEND  ---      ---       LVL=0

      00FF4113H   BLOCK     CODE     ---       LVL=0
      00FF4113H   LINE      ---      ---       #163
      00FF4117H   LINE      ---      ---       #165
      00FF4136H   LINE      ---      ---       #166
      DR12        REGSYM    ---      DWORD     Time
      ---         BLOCKEND  ---      ---       LVL=0

      00FF585FH   BLOCK     CODE     ---       LVL=0
      00FF585FH   LINE      ---      ---       #170
      00FF5863H   LINE      ---      ---       #172
      00FF5867H   LINE      ---      ---       #174
      00FF5874H   LINE      ---      ---       #175
      00FF5878H   LINE      ---      ---       #176
      REG=7       REGSYM    ---      ---       intHdlr
      ---         BLOCKEND  ---      ---       LVL=0

      00FF3688H   BLOCK     CODE     ---       LVL=0
      00FF3688H   LINE      ---      ---       #181
      00FF368CH   LINE      ---      ---       #192
      00FF3697H   LINE      ---      ---       #193
      00FF369AH   LINE      ---      ---       #195
      00FF36A9H   LINE      ---      ---       #199
      00FF36B1H   LINE      ---      ---       #202
      00FF36BDH   LINE      ---      ---       #206
      00FF36C9H   LINE      ---      ---       #207
      00FF36CEH   LINE      ---      ---       #213
      R15         REGSYM    ---      BYTE      rtcUnit
      ---         BLOCKEND  ---      ---       LVL=0

      00FF1F7EH   BLOCK     CODE     ---       LVL=0
      00FF1F7EH   LINE      ---      ---       #232
      00FF1F7EH   LINE      ---      ---       #233
      00FF1F7EH   BLOCK     CODE     NEAR LAB  LVL=1
      00FF1F7EH   LINE      ---      ---       #236
      00FF1F8AH   LINE      ---      ---       #238
      00FF1F8AH   LINE      ---      ---       #240
      00FF1F91H   LINE      ---      ---       #241
      00FF1F98H   LINE      ---      ---       #243
      DR4         REGSYM    ---      DWORD     rtc1
      ---         BLOCKEND  CODE     ---       LVL=1
      00FF1F98H   LINE      ---      ---       #244
      00FF1F98H   LINE      CODE     ---       #244

      ---         MODULE    ---      ---       common_isr
      00FF58A9H   PUBLIC    CODE     ---       common_isrBmuCheckTx
      00FF1489H   PUBLIC    CODE     ---       common_isr_init
      00FF602DH   PUBLIC    CODE     ---       Common_IsrBmuTxQAdd?_
      00FF60EBH   PUBLIC    CODE     ---       Common_IsrBmuTxQGetByHandle?_
      00FF61A3H   PUBLIC    CODE     ---       Common_IsrBmuTxQPciGet
      00FF623CH   PUBLIC    CODE     ---       Common_IsrBmuTxQDeleteAllByCondition?_
      00FF63ABH   PUBLIC    CODE     ---       Common_IsrBmuTxQDeleteByPtr?_
      00FF6730H   PUBLIC    CODE     ---       Common_IsrBmuTxQInit
L251 LINKER/LOCATER V4.66.93.0                                                        04/08/2024  14:48:14  PAGE 52


      00FF67A0H   PUBLIC    CODE     ---       common_isrBmuHandler
      0000B1FFH   PUBLIC    EDATA    ---       gBmuDataTxQList
      0000B206H   PUBLIC    EDATA    ---       gBmuDataTxCtrlField
      0000B211H   PUBLIC    EDATA    ---       gBmuDataListHead
      0000B213H   PUBLIC    EDATA    ---       gBmuDataListTail
      0000B215H   PUBLIC    EDATA    ---       gBmuDataList
      000000A8H.7 SFRSYM    DATA     BIT       EA
      00000080H   SFRSYM    DATA     BYTE      P0
      0000B28CH   SYMBOL    EDATA    BYTE      gCommon_isrGetBmu

      00FF67A0H   BLOCK     CODE     ---       LVL=0
      00FF67A0H   LINE      ---      ---       #122
      00FF67A0H   LINE      ---      ---       #129
      00FF67A3H   LINE      ---      ---       #130
      00FF67A9H   LINE      ---      ---       #131
      R11         REGSYM    ---      BYTE      isrStatus
      ---         BLOCKEND  ---      ---       LVL=0

      00FF58A9H   BLOCK     CODE     ---       LVL=0
      00FF58A9H   LINE      ---      ---       #174
      00FF58ABH   LINE      ---      ---       #175
      00FF58ABH   BLOCK     CODE     NEAR LAB  LVL=1
      00FF58ABH   LINE      ---      ---       #176
      00FF58B0H   LINE      ---      ---       #179
      00FF58BBH   LINE      ---      ---       #181
      00FF58BDH   LINE      ---      ---       #182
      00FF58C3H   LINE      ---      ---       #183
      00FF58CEH   LINE      ---      ---       #184
      00FF58D3H   LINE      ---      ---       #185
      00FF58D3H   LINE      ---      ---       #188
      00FF58D7H   LINE      ---      ---       #189
      00FF58EBH   LINE      ---      ---       #201
      00FF58F2H   LINE      ---      ---       #203
      0000B533H   SYMBOL    EDATA    BYTE      qNum
      R15         REGSYM    ---      BYTE      count
      0000B534H   SYMBOL    EDATA    ---       dataField
      00FF58F2H   BLOCK     CODE     NEAR LAB  LVL=2
      00FF58F2H   LINE      ---      ---       #204
      00FF58F6H   LINE      ---      ---       #205
      00FF58FEH   LINE      ---      ---       #206
      00FF5902H   LINE      ---      ---       #210
      00FF5912H   LINE      ---      ---       #212
      R14         REGSYM    ---      BYTE      tempData
      ---         BLOCKEND  CODE     ---       LVL=2
      00FF5915H   LINE      ---      ---       #214
      00FF5915H   LINE      ---      ---       #217
      00FF591FH   LINE      ---      ---       #219
      00FF591FH   LINE      CODE     ---       #219
      ---         BLOCKEND  CODE     ---       LVL=0

      00FF1489H   BLOCK     CODE     ---       LVL=0
      00FF1489H   LINE      ---      ---       #222
      00FF1489H   LINE      ---      ---       #224
      00FF148EH   LINE      ---      ---       #228
      ---         BLOCKEND  ---      ---       LVL=0

      00FF602DH   BLOCK     CODE     ---       LVL=0
      00FF602DH   LINE      ---      ---       #238
      R14         REGSYM    ---      BYTE      qId
      REG=2       REGSYM    ---      ---       pCtrlField
      R15         REGSYM    ---      BYTE      type
      00FF6037H   BLOCK     CODE     NEAR LAB  LVL=1
      00FF6037H   LINE      ---      ---       #240
      00FF6039H   LINE      ---      ---       #257
      00FF6039H   LINE      ---      ---       #258
L251 LINKER/LOCATER V4.66.93.0                                                        04/08/2024  14:48:14  PAGE 53


      00FF6049H   LINE      ---      ---       #260
      00FF604DH   LINE      ---      ---       #269
      00FF6052H   LINE      ---      ---       #270
      00FF6064H   LINE      ---      ---       #271
      00FF6064H   LINE      ---      ---       #277
      00FF606CH   LINE      ---      ---       #278
      00FF6077H   LINE      ---      ---       #281
      00FF607FH   LINE      ---      ---       #282
      00FF608CH   LINE      ---      ---       #283
      00FF6090H   LINE      ---      ---       #284
      00FF6092H   LINE      ---      ---       #287
      00FF60A3H   LINE      ---      ---       #288
      00FF60AFH   LINE      ---      ---       #291
      00FF60BCH   LINE      ---      ---       #292
      00FF60C2H   LINE      ---      ---       #295
      00FF60C2H   LINE      ---      ---       #298
      00FF60C8H   LINE      ---      ---       #299
      00FF60D1H   LINE      ---      ---       #302
      00FF60D3H   LINE      ---      ---       #303
      00FF60D3H   LINE      ---      ---       #304
      00FF60D5H   LINE      ---      ---       #305
      00FF60DCH   LINE      ---      ---       #310
      R13         REGSYM    ---      BYTE      i
      ---         BLOCKEND  CODE     ---       LVL=1
      00FF60E6H   LINE      ---      ---       #311
      00FF60E6H   LINE      CODE     ---       #311

      00FF60EBH   BLOCK     CODE     ---       LVL=0
      00FF60EBH   LINE      ---      ---       #375
      WR8         REGSYM    ---      WORD      connHdl
      REG=15      REGSYM    ---      ---       qId
      REG=1       REGSYM    ---      ---       hciHdr
      REG=0       REGSYM    ---      ---       qCnt
      FFFFFFFBH   STKSYM    ---      ---       retPtr
      00FF60F1H   BLOCK     CODE     NEAR LAB  LVL=1
      00FF60F1H   LINE      ---      ---       #376
      00FF60F5H   LINE      ---      ---       #382
      00FF60F8H   LINE      ---      ---       #384
      00FF60FBH   LINE      ---      ---       #386
      00FF6100H   LINE      ---      ---       #387
      00FF6104H   LINE      ---      ---       #388
      00FF6104H   LINE      ---      ---       #391
      00FF6106H   LINE      ---      ---       #393
      REG=14      REGSYM    ---      ---       pCurr
      WR6         REGSYM    ---      WORD      oldestSn
      WR4         REGSYM    ---      WORD      cmpSn
      R10         REGSYM    ---      BYTE      ret
      00FF6108H   BLOCK     CODE     NEAR LAB  LVL=2
      00FF6108H   LINE      ---      ---       #395
      00FF6122H   LINE      ---      ---       #397
      00FF6138H   LINE      ---      ---       #398
      00FF613CH   LINE      ---      ---       #399
      00FF6143H   LINE      ---      ---       #401
      00FF6154H   LINE      ---      ---       #407
      00FF6156H   LINE      ---      ---       #408
      00FF6159H   LINE      ---      ---       #409
      00FF6162H   LINE      ---      ---       #410
      00FF6169H   LINE      ---      ---       #411
      00FF6169H   LINE      ---      ---       #413
      FFFFFFFFH   STKSYM    ---      WORD      cmp
      ---         BLOCKEND  CODE     ---       LVL=2
      00FF616DH   LINE      ---      ---       #414
      00FF6171H   LINE      ---      ---       #417
      00FF6173H   LINE      ---      ---       #419
      00FF617AH   LINE      ---      ---       #420
L251 LINKER/LOCATER V4.66.93.0                                                        04/08/2024  14:48:14  PAGE 54


      00FF6187H   LINE      ---      ---       #421
      00FF6187H   LINE      ---      ---       #423
      00FF618AH   LINE      ---      ---       #425
      00FF618AH   LINE      CODE     ---       #425
      ---         BLOCKEND  CODE     ---       LVL=0

      00FF6197H   BLOCK     CODE     ---       LVL=0
      00FF61A3H   LINE      ---      ---       #437
      00FF6197H   SYMBOL    CODE     NEAR LAB  ?L?COM0036
      REG=4       REGSYM    ---      ---       qId
      REG=1       REGSYM    ---      ---       PciHdr
      REG=0       REGSYM    ---      ---       retPtr
      00FF61A9H   BLOCK     CODE     NEAR LAB  LVL=1
      00FF61A9H   LINE      ---      ---       #438
      00FF61ADH   LINE      ---      ---       #439
      00FF61B3H   LINE      ---      ---       #442
      00FF61B8H   LINE      ---      ---       #445
      00FF61BBH   LINE      ---      ---       #447
      00FF61C0H   LINE      ---      ---       #450
      00FF61C2H   LINE      ---      ---       #452
      00FF61C4H   LINE      ---      ---       #453
      00FF61D2H   LINE      ---      ---       #455
      00FF61DAH   LINE      ---      ---       #456
      00FF61F4H   LINE      ---      ---       #458
      00FF61FCH   LINE      ---      ---       #459
      00FF6203H   LINE      ---      ---       #460
      00FF620AH   LINE      ---      ---       #461
      00FF620DH   LINE      ---      ---       #462
      00FF620DH   LINE      ---      ---       #471
      00FF6211H   LINE      ---      ---       #472
      00FF6215H   LINE      ---      ---       #475
      00FF621CH   LINE      ---      ---       #477
      00FF6225H   LINE      ---      ---       #478
      00FF6225H   LINE      ---      ---       #481
      00FF622CH   LINE      ---      ---       #484
      00FF622EH   LINE      ---      ---       #486
      REG=3       REGSYM    ---      ---       pCurr
      0000B63BH   SYMBOL    EDATA    BYTE      ret
      0000B63CH   SYMBOL    EDATA    BYTE      sn
      0000B63DH   SYMBOL    EDATA    BYTE      oldest_sn
      ---         BLOCKEND  CODE     ---       LVL=1
      00FF623BH   LINE      ---      ---       #488
      00FF623BH   LINE      CODE     ---       #488

      00FF623CH   BLOCK     CODE     ---       LVL=0
      00FF623CH   LINE      ---      ---       #498
      R13         REGSYM    ---      BYTE      type
      WR14        REGSYM    ---      WORD      connHdl
      00FF6246H   BLOCK     CODE     NEAR LAB  LVL=1
      00FF6246H   LINE      ---      ---       #506
      00FF6248H   LINE      ---      ---       #508
      00FF6250H   LINE      ---      ---       #509
      00FF6256H   LINE      ---      ---       #510
      00FF6258H   LINE      ---      ---       #513
      FFFFFFFFH   STKSYM    ---      ---       pCurr
      FFFFFFFDH   STKSYM    ---      ---       pPrev
      FFFFFFFBH   STKSYM    ---      ---       pNext
      R12         REGSYM    ---      BYTE      ret
      00FF625AH   BLOCK     CODE     NEAR LAB  LVL=2
      00FF625AH   LINE      ---      ---       #514
      00FF625FH   LINE      ---      ---       #516
      FFFFFFFAH   STKSYM    ---      BYTE      condition
      00FF6270H   BLOCK     CODE     NEAR LAB  LVL=3
      00FF6270H   LINE      ---      ---       #517
      00FF6280H   LINE      ---      ---       #518
L251 LINKER/LOCATER V4.66.93.0                                                        04/08/2024  14:48:14  PAGE 55


      00FF6287H   LINE      ---      ---       #519
      00FF6296H   LINE      ---      ---       #520
      00FF629CH   LINE      ---      ---       #521
      FFFFFFF8H   STKSYM    ---      WORD      cmp
      ---         BLOCKEND  CODE     ---       LVL=3
      00FF629CH   LINE      ---      ---       #524
      00FF62A4H   LINE      ---      ---       #526
      00FF62ACH   LINE      ---      ---       #530
      00FF62BBH   LINE      ---      ---       #532
      00FF62C6H   LINE      ---      ---       #535
      00FF62CFH   LINE      ---      ---       #537
      00FF62D9H   LINE      ---      ---       #538
      00FF62EAH   LINE      ---      ---       #539
      00FF62FAH   LINE      ---      ---       #540
      00FF6302H   LINE      ---      ---       #541
      00FF630AH   LINE      ---      ---       #544
      00FF6314H   LINE      ---      ---       #545
      00FF631CH   LINE      ---      ---       #547
      00FF6320H   LINE      ---      ---       #548
      00FF6326H   LINE      ---      ---       #549
      00FF6328H   LINE      ---      ---       #552
      00FF632EH   LINE      ---      ---       #553
      00FF6332H   LINE      ---      ---       #554
      00FF6332H   LINE      ---      ---       #555
      00FF6334H   LINE      ---      ---       #556
      00FF633AH   LINE      ---      ---       #558
      00FF6342H   LINE      ---      ---       #559
      00FF6346H   LINE      ---      ---       #560
      00FF6350H   LINE      ---      ---       #561
      00FF6352H   LINE      ---      ---       #565
      00FF635EH   LINE      ---      ---       #566
      00FF636AH   LINE      ---      ---       #567
      00FF636AH   LINE      ---      ---       #569
      00FF6374H   LINE      ---      ---       #570
      00FF637CH   LINE      ---      ---       #571
      00FF637EH   LINE      ---      ---       #580
      00FF637EH   LINE      ---      ---       #583
      00FF6386H   LINE      ---      ---       #584
      00FF638EH   LINE      ---      ---       #585
      00FF6396H   LINE      ---      ---       #586
      00FF6396H   LINE      CODE     ---       #586
      ---         BLOCKEND  CODE     ---       LVL=1
      00FF63A0H   LINE      ---      ---       #590
      00FF63A2H   LINE      ---      ---       #592
      00FF63A2H   LINE      CODE     ---       #592

      00FF63ABH   BLOCK     CODE     ---       LVL=0
      00FF63ABH   LINE      ---      ---       #602
      00FF63AFH   LINE      ---      ---       #605
      00FF63B1H   LINE      ---      ---       #607
      00FF63B8H   LINE      ---      ---       #610
      00FF63BEH   LINE      ---      ---       #611
      00FF63C3H   LINE      ---      ---       #612
      00FF63CCH   LINE      ---      ---       #613
      00FF63D4H   LINE      ---      ---       #614
      00FF63D8H   LINE      ---      ---       #615
      00FF63DCH   LINE      ---      ---       #618
      00FF63E4H   LINE      ---      ---       #620
      00FF63ECH   LINE      ---      ---       #622
      00FF63F4H   LINE      ---      ---       #623
      00FF63FCH   LINE      ---      ---       #624
      00FF63FEH   LINE      ---      ---       #627
      00FF6406H   LINE      ---      ---       #628
      00FF6406H   LINE      ---      ---       #629
      00FF6408H   LINE      ---      ---       #633
L251 LINKER/LOCATER V4.66.93.0                                                        04/08/2024  14:48:14  PAGE 56


      00FF6410H   LINE      ---      ---       #634
      00FF6416H   LINE      ---      ---       #635
      00FF641AH   LINE      ---      ---       #636
      00FF641CH   LINE      ---      ---       #639
      00FF6426H   LINE      ---      ---       #640
      00FF6426H   LINE      ---      ---       #641
      00FF6426H   LINE      ---      ---       #644
      00FF6430H   LINE      ---      ---       #647
      00FF6432H   LINE      ---      ---       #649
      REG=7       REGSYM    ---      ---       delPtr
      ---         BLOCKEND  ---      ---       LVL=0

      00FF6730H   BLOCK     CODE     ---       LVL=0
      00FF6730H   LINE      ---      ---       #658
      00FF6732H   BLOCK     CODE     NEAR LAB  LVL=1
      00FF6732H   LINE      ---      ---       #661
      00FF6738H   LINE      ---      ---       #662
      00FF673CH   LINE      ---      ---       #664
      00FF673EH   LINE      ---      ---       #665
      00FF6748H   LINE      ---      ---       #666
      00FF6750H   LINE      ---      ---       #667
      00FF6761H   LINE      ---      ---       #668
      00FF676CH   LINE      ---      ---       #669
      00FF6776H   LINE      ---      ---       #670
      00FF6780H   LINE      ---      ---       #671
      00FF6788H   LINE      ---      ---       #673
      00FF6790H   LINE      ---      ---       #676
      00FF6796H   LINE      ---      ---       #677
      R15         REGSYM    ---      BYTE      i
      ---         BLOCKEND  CODE     ---       LVL=1
      00FF679DH   LINE      ---      ---       #678
      00FF679DH   LINE      CODE     ---       #678
      00FF5921H   LINE      ---      ---       #220
      00FF6194H   LINE      ---      ---       #427
      00FF63A4H   LINE      ---      ---       #593

      ---         MODULE    ---      ---       common_cmd_hdlr
      00FF47DAH   PUBLIC    CODE     ---       CMN_CmdSys_GetRfbFwVer
      00FF67AAH   PUBLIC    CODE     ---       CMN_CmdHal_SetAgc
      00FF6814H   PUBLIC    CODE     ---       CMN_CmdHal_SetCalibrationEnable
      00FF6A21H   PUBLIC    CODE     ---       CMN_CmdHal_SetCalibrationSetting
      00FF6A55H   PUBLIC    CODE     ---       CMN_CmdHal_SetTxPower
      00FF698BH   PUBLIC    CODE     ---       CMN_CmdHal_GetTemperatureRpt
      00FF6998H   PUBLIC    CODE     ---       CMN_CmdHal_GetVoltageRpt
      00FF69BFH   PUBLIC    CODE     ---       CMN_CmdHal_SetRssiOffset
      00FF68CCH   PUBLIC    CODE     ---       CMN_CmdHal_SetTxPwrComp
      00FF68A0H   PUBLIC    CODE     ---       CMN_CmdHal_SetTxPwrChComp
      00FF68B6H   PUBLIC    CODE     ---       CMN_CmdHal_SetTxPwrChSegment
      00FF6981H   PUBLIC    CODE     ---       CMN_CmdHal_SetPmuMpkSetting
      00FF6A8AH   PUBLIC    CODE     ---       CMN_CmdHal_SetTxPowerOqpsk
      00FF69A5H   PUBLIC    CODE     ---       CMN_CmdHal_SetPmuOpMode
      00FF69FBH   PUBLIC    CODE     ---       CMN_CmdHal_SetTxPowerBy

      00FF47DAH   BLOCK     CODE     ---       LVL=0
      00FF47DAH   LINE      ---      ---       #24
      00FF47DAH   LINE      ---      ---       #29
      00FF47DAH   LINE      ---      ---       #32
      00FF47E4H   LINE      ---      ---       #35
      ---         BLOCKEND  ---      ---       LVL=0

      00FF67AAH   BLOCK     CODE     ---       LVL=0
      00FF67AAH   LINE      ---      ---       #57
      00FF67AAH   LINE      ---      ---       #60
      REG=3       REGSYM    ---      ---       pCmdAddress
      00FF67AAH   BLOCK     CODE     NEAR LAB  LVL=1
L251 LINKER/LOCATER V4.66.93.0                                                        04/08/2024  14:48:14  PAGE 57


      00FF67AAH   LINE      ---      ---       #69
      00FF67ACH   LINE      ---      ---       #72
      00FF67C4H   LINE      ---      ---       #75
      REG=1       REGSYM    ---      ---       pCmdIn
      ---         BLOCKEND  CODE     ---       LVL=1
      ---         BLOCKEND  CODE     ---       LVL=0

      00FF6814H   BLOCK     CODE     ---       LVL=0
      00FF6814H   LINE      ---      ---       #78
      00FF6814H   LINE      ---      ---       #83
      00FF6814H   LINE      ---      ---       #86
      00FF681AH   LINE      ---      ---       #89
      00FF6824H   LINE      ---      ---       #92
      ---         BLOCKEND  ---      ---       LVL=0

      00FF6A21H   BLOCK     CODE     ---       LVL=0
      00FF6A21H   LINE      ---      ---       #96
      00FF6A21H   LINE      ---      ---       #99
      REG=3       REGSYM    ---      ---       pCmdAddress
      00FF6A21H   BLOCK     CODE     NEAR LAB  LVL=1
      00FF6A21H   LINE      ---      ---       #108
      00FF6A23H   LINE      ---      ---       #111
      00FF6A4BH   LINE      ---      ---       #114
      REG=1       REGSYM    ---      ---       pCmdIn
      ---         BLOCKEND  CODE     ---       LVL=1
      ---         BLOCKEND  CODE     ---       LVL=0

      00FF6A55H   BLOCK     CODE     ---       LVL=0
      00FF6A55H   LINE      ---      ---       #117
      00FF6A55H   LINE      ---      ---       #120
      REG=3       REGSYM    ---      ---       pCmdAddress
      00FF6A55H   BLOCK     CODE     NEAR LAB  LVL=1
      00FF6A55H   LINE      ---      ---       #131
      00FF6A57H   LINE      ---      ---       #133
      00FF6A63H   LINE      ---      ---       #134
      00FF6A6CH   LINE      ---      ---       #137
      00FF6A80H   LINE      ---      ---       #139
      REG=2       REGSYM    ---      ---       pCmdIn
      R2          REGSYM    ---      BYTE      gainTab
      ---         BLOCKEND  CODE     ---       LVL=1
      ---         BLOCKEND  CODE     ---       LVL=0

      00FF698BH   BLOCK     CODE     ---       LVL=0
      00FF698BH   LINE      ---      ---       #147
      00FF698BH   LINE      ---      ---       #151
      00FF698BH   LINE      ---      ---       #152
      00FF6995H   LINE      ---      ---       #153
      ---         BLOCKEND  ---      ---       LVL=0

      00FF6998H   BLOCK     CODE     ---       LVL=0
      00FF6998H   LINE      ---      ---       #156
      00FF6998H   LINE      ---      ---       #160
      00FF6998H   LINE      ---      ---       #161
      00FF69A2H   LINE      ---      ---       #162
      ---         BLOCKEND  ---      ---       LVL=0

      00FF69BFH   BLOCK     CODE     ---       LVL=0
      00FF69BFH   LINE      ---      ---       #165
      00FF69BFH   LINE      ---      ---       #168
      REG=3       REGSYM    ---      ---       pCmdAddress
      00FF69BFH   BLOCK     CODE     NEAR LAB  LVL=1
      00FF69BFH   LINE      ---      ---       #177
      00FF69C1H   LINE      ---      ---       #180
      00FF69D1H   LINE      ---      ---       #182
      REG=2       REGSYM    ---      ---       pCmdIn
L251 LINKER/LOCATER V4.66.93.0                                                        04/08/2024  14:48:14  PAGE 58


      ---         BLOCKEND  CODE     ---       LVL=1
      ---         BLOCKEND  CODE     ---       LVL=0

      00FF68CCH   BLOCK     CODE     ---       LVL=0
      00FF68CCH   LINE      ---      ---       #185
      00FF68CCH   LINE      ---      ---       #188
      REG=3       REGSYM    ---      ---       pCmdAddress
      00FF68CCH   BLOCK     CODE     NEAR LAB  LVL=1
      00FF68CCH   LINE      ---      ---       #197
      00FF68CEH   LINE      ---      ---       #200
      00FF68E0H   LINE      ---      ---       #203
      REG=2       REGSYM    ---      ---       pCmdIn
      ---         BLOCKEND  CODE     ---       LVL=1
      ---         BLOCKEND  CODE     ---       LVL=0

      00FF68A0H   BLOCK     CODE     ---       LVL=0
      00FF68A0H   LINE      ---      ---       #209
      00FF68A0H   LINE      ---      ---       #212
      REG=3       REGSYM    ---      ---       pCmdAddress
      00FF68A0H   BLOCK     CODE     NEAR LAB  LVL=1
      00FF68A0H   LINE      ---      ---       #222
      00FF68A2H   LINE      ---      ---       #225
      00FF68ACH   LINE      ---      ---       #230
      REG=2       REGSYM    ---      ---       pCmdIn
      ---         BLOCKEND  CODE     ---       LVL=1
      ---         BLOCKEND  CODE     ---       LVL=0

      00FF68B6H   BLOCK     CODE     ---       LVL=0
      00FF68B6H   LINE      ---      ---       #233
      00FF68B6H   LINE      ---      ---       #236
      REG=3       REGSYM    ---      ---       pCmdAddress
      00FF68B6H   BLOCK     CODE     NEAR LAB  LVL=1
      00FF68B6H   LINE      ---      ---       #246
      00FF68B8H   LINE      ---      ---       #249
      00FF68C2H   LINE      ---      ---       #254
      REG=2       REGSYM    ---      ---       pCmdIn
      ---         BLOCKEND  CODE     ---       LVL=1
      ---         BLOCKEND  CODE     ---       LVL=0

      00FF6981H   BLOCK     CODE     ---       LVL=0
      00FF6981H   LINE      ---      ---       #258
      00FF6981H   LINE      ---      ---       #274
      00FF6981H   LINE      ---      ---       #277
      ---         BLOCKEND  ---      ---       LVL=0

      00FF6A8AH   BLOCK     CODE     ---       LVL=0
      00FF6A8AH   LINE      ---      ---       #281
      00FF6A8AH   LINE      ---      ---       #284
      REG=3       REGSYM    ---      ---       pCmdAddress
      00FF6A8AH   BLOCK     CODE     NEAR LAB  LVL=1
      00FF6A8AH   LINE      ---      ---       #295
      00FF6A8CH   LINE      ---      ---       #297
      00FF6A98H   LINE      ---      ---       #298
      00FF6AA1H   LINE      ---      ---       #301
      00FF6AB7H   LINE      ---      ---       #303
      REG=2       REGSYM    ---      ---       pCmdIn
      R2          REGSYM    ---      BYTE      gainTab
      ---         BLOCKEND  CODE     ---       LVL=1
      ---         BLOCKEND  CODE     ---       LVL=0

      00FF69A5H   BLOCK     CODE     ---       LVL=0
      00FF69A5H   LINE      ---      ---       #311
      00FF69A5H   LINE      ---      ---       #314
      REG=3       REGSYM    ---      ---       pCmdAddress
      00FF69A5H   BLOCK     CODE     NEAR LAB  LVL=1
L251 LINKER/LOCATER V4.66.93.0                                                        04/08/2024  14:48:14  PAGE 59


      00FF69A5H   LINE      ---      ---       #318
      00FF69A5H   LINE      ---      ---       #321
      00FF69ADH   LINE      ---      ---       #322
      00FF69B5H   LINE      ---      ---       #324
      REG=3       REGSYM    ---      ---       pCmdIn
      ---         BLOCKEND  CODE     ---       LVL=1
      ---         BLOCKEND  CODE     ---       LVL=0

      00FF69FBH   BLOCK     CODE     ---       LVL=0
      00FF69FBH   LINE      ---      ---       #327
      00FF69FBH   LINE      ---      ---       #330
      REG=3       REGSYM    ---      ---       pCmdAddress
      00FF69FBH   BLOCK     CODE     NEAR LAB  LVL=1
      00FF69FBH   LINE      ---      ---       #340
      00FF69FDH   LINE      ---      ---       #343
      00FF6A17H   LINE      ---      ---       #345
      REG=1       REGSYM    ---      ---       pCmdIn
      ---         BLOCKEND  CODE     ---       LVL=1
      ---         BLOCKEND  CODE     ---       LVL=0

      ---         MODULE    ---      ---       common_event_gen
      00FF67CDH   PUBLIC    CODE     ---       CMD_CnfEventSend
      00FF45FFH   PUBLIC    CODE     ---       CMN_GetFwVerEventSend
      00FF47FCH   PUBLIC    CODE     ---       CMN_SetCalibrationEnableEventSend
      00FF4547H   PUBLIC    CODE     ---       CMN_GetTemperatureRptEventSend
      00FF44EEH   PUBLIC    CODE     ---       CMN_GetVoltageRptEventSend

      00FF67CDH   BLOCK     CODE     ---       LVL=0
      00FF67CDH   LINE      ---      ---       #18
      00FF67D5H   LINE      ---      ---       #23
      R13         REGSYM    ---      BYTE      cmdHeader
      R14         REGSYM    ---      BYTE      cmdSubheader
      R15         REGSYM    ---      BYTE      cmdCnfStatus
      00FF67D5H   BLOCK     CODE     NEAR LAB  LVL=1
      00FF67D5H   LINE      ---      ---       #25
      00FF67DAH   LINE      ---      ---       #26
      00FF67DDH   LINE      ---      ---       #28
      00FF67E7H   LINE      ---      ---       #29
      00FF67ECH   LINE      ---      ---       #30
      00FF67F2H   LINE      ---      ---       #31
      00FF67F8H   LINE      ---      ---       #32
      00FF67FCH   LINE      ---      ---       #33
      00FF6800H   LINE      ---      ---       #34
      00FF6804H   LINE      ---      ---       #40
      REG=3       REGSYM    ---      ---       pEventPayload
      R12         REGSYM    ---      BYTE      qIdx
      ---         BLOCKEND  CODE     ---       LVL=1
      00FF6811H   LINE      ---      ---       #41
      00FF6811H   LINE      CODE     ---       #41

      00FF45FFH   BLOCK     CODE     ---       LVL=0
      00FF45FFH   LINE      ---      ---       #44
      00FF4601H   LINE      ---      ---       #45
      00FF4601H   BLOCK     CODE     NEAR LAB  LVL=1
      00FF4601H   LINE      ---      ---       #47
      00FF4603H   LINE      ---      ---       #50
      00FF460DH   LINE      ---      ---       #51
      00FF4612H   LINE      ---      ---       #52
      00FF4618H   LINE      ---      ---       #53
      00FF461EH   LINE      ---      ---       #54
      00FF462AH   LINE      ---      ---       #55
      00FF4630H   LINE      ---      ---       #56
      00FF4636H   LINE      ---      ---       #58
      00FF463CH   LINE      ---      ---       #62
      00FF4648H   LINE      ---      ---       #64
L251 LINKER/LOCATER V4.66.93.0                                                        04/08/2024  14:48:14  PAGE 60


      00FF4660H   LINE      ---      ---       #66
      REG=3       REGSYM    ---      ---       pEventPayload
      R15         REGSYM    ---      BYTE      qIdx
      ---         BLOCKEND  CODE     ---       LVL=1
      00FF466CH   LINE      ---      ---       #67
      00FF466CH   LINE      CODE     ---       #67

      00FF47FCH   BLOCK     CODE     ---       LVL=0
      00FF47FCH   LINE      ---      ---       #70
      00FF47FEH   LINE      ---      ---       #71
      00FF47FEH   BLOCK     CODE     NEAR LAB  LVL=1
      00FF47FEH   LINE      ---      ---       #73
      00FF4801H   LINE      ---      ---       #76
      00FF480BH   LINE      ---      ---       #77
      00FF4810H   LINE      ---      ---       #78
      00FF4816H   LINE      ---      ---       #79
      00FF481CH   LINE      ---      ---       #80
      00FF4840H   LINE      ---      ---       #86
      REG=3       REGSYM    ---      ---       pEventPayload
      R15         REGSYM    ---      BYTE      qIdx
      ---         BLOCKEND  CODE     ---       LVL=1
      00FF484DH   LINE      ---      ---       #87
      00FF484DH   LINE      CODE     ---       #87

      00FF4547H   BLOCK     CODE     ---       LVL=0
      00FF4547H   LINE      ---      ---       #90
      00FF454BH   LINE      ---      ---       #91
      00FF454BH   BLOCK     CODE     NEAR LAB  LVL=1
      00FF454BH   LINE      ---      ---       #93
      00FF454FH   LINE      ---      ---       #96
      00FF4559H   LINE      ---      ---       #97
      00FF455EH   LINE      ---      ---       #98
      00FF4564H   LINE      ---      ---       #99
      00FF456AH   LINE      ---      ---       #100
      00FF4577H   LINE      ---      ---       #102
      00FF4591H   LINE      ---      ---       #104
      REG=6       REGSYM    ---      ---       pEventPayload
      R15         REGSYM    ---      BYTE      qIdx
      ---         BLOCKEND  CODE     ---       LVL=1
      00FF459DH   LINE      ---      ---       #106
      00FF459DH   LINE      CODE     ---       #106

      00FF44EEH   BLOCK     CODE     ---       LVL=0
      00FF44EEH   LINE      ---      ---       #108
      00FF44F2H   LINE      ---      ---       #109
      00FF44F2H   BLOCK     CODE     NEAR LAB  LVL=1
      00FF44F2H   LINE      ---      ---       #111
      00FF44F6H   LINE      ---      ---       #114
      00FF4500H   LINE      ---      ---       #115
      00FF4505H   LINE      ---      ---       #116
      00FF450BH   LINE      ---      ---       #117
      00FF450FH   LINE      ---      ---       #118
      00FF451CH   LINE      ---      ---       #120
      00FF4536H   LINE      ---      ---       #122
      REG=6       REGSYM    ---      ---       pEventPayload
      R15         REGSYM    ---      BYTE      qIdx
      ---         BLOCKEND  CODE     ---       LVL=1
      00FF4542H   LINE      ---      ---       #124
      00FF4542H   LINE      CODE     ---       #124

      ---         MODULE    ---      ---       common_feature

      ---         MODULE    ---      ---       bmu
      00FF6AC1H   PUBLIC    CODE     ---       BMU_MemAllocate
      00FF6C38H   PUBLIC    CODE     ---       BMU_HwReset
L251 LINKER/LOCATER V4.66.93.0                                                        04/08/2024  14:48:14  PAGE 61


      00FF6CC5H   PUBLIC    CODE     ---       BMU_HwInit
      00FF6D7EH   PUBLIC    CODE     ---       BMU_FreqFlowCtrlSet

      00FF6AC1H   BLOCK     CODE     ---       LVL=0
      00FF6AC1H   LINE      ---      ---       #24
      00FF6AC7H   LINE      ---      ---       #27
      WR14        REGSYM    ---      INT       rxqOpMode
      00FF6AC7H   BLOCK     CODE     NEAR LAB  LVL=1
      00FF6AC7H   LINE      ---      ---       #33
      00FF6AC9H   LINE      ---      ---       #47
      00FF6ACDH   LINE      ---      ---       #48
      00FF6AD3H   LINE      ---      ---       #51
      00FF6ADBH   LINE      ---      ---       #54
      00FF6ADFH   LINE      ---      ---       #57
      00FF6AF7H   LINE      ---      ---       #72
      00FF6B00H   LINE      ---      ---       #73
      00FF6B08H   LINE      ---      ---       #80
      00FF6B08H   LINE      ---      ---       #87
      00FF6B13H   LINE      ---      ---       #88
      00FF6B1DH   LINE      ---      ---       #94
      00FF6B24H   LINE      ---      ---       #95
      00FF6B2AH   LINE      ---      ---       #98
      00FF6B31H   LINE      ---      ---       #99
      00FF6B37H   LINE      ---      ---       #102
      00FF6B3EH   LINE      ---      ---       #103
      00FF6B42H   LINE      ---      ---       #107
      00FF6B4DH   LINE      ---      ---       #108
      00FF6B4FH   LINE      ---      ---       #113
      00FF6B4FH   LINE      ---      ---       #114
      00FF6B59H   LINE      ---      ---       #117
      00FF6B60H   LINE      ---      ---       #118
      00FF6B66H   LINE      ---      ---       #121
      00FF6B6DH   LINE      ---      ---       #122
      00FF6B73H   LINE      ---      ---       #125
      00FF6B7AH   LINE      ---      ---       #127
      00FF6B80H   LINE      ---      ---       #131
      00FF6B85H   LINE      ---      ---       #132
      00FF6B88H   LINE      ---      ---       #137
      R13         REGSYM    ---      BYTE      pageIdx
      0000B608H   SYMBOL    EDATA    ---       pMemSize
      REG=3       REGSYM    ---      ---       pRegX51
      ---         BLOCKEND  CODE     ---       LVL=1
      00FF6B88H   LINE      ---      ---       #138
      00FF6B88H   LINE      CODE     ---       #138

      00FF6D7EH   BLOCK     CODE     ---       LVL=0
      00FF6D7EH   LINE      ---      ---       #140
      00FF6D7EH   LINE      ---      ---       #191
      00FF6D82H   LINE      ---      ---       #193
      00FF6D91H   LINE      ---      ---       #194
      00FF6D9CH   LINE      ---      ---       #195
      00FF6DA0H   LINE      ---      ---       #196
      00FF6DA2H   LINE      ---      ---       #200
      00FF6DB1H   LINE      ---      ---       #201
      00FF6DBCH   LINE      ---      ---       #202
      00FF6DC7H   LINE      ---      ---       #203
      00FF6DC7H   LINE      ---      ---       #205
      WR6         REGSYM    ---      INT       rxqOpMode
      ---         BLOCKEND  ---      ---       LVL=0

      00FF6C38H   BLOCK     CODE     ---       LVL=0
      00FF6C38H   LINE      ---      ---       #210
      00FF6C3AH   LINE      ---      ---       #213
      R10         REGSYM    ---      BYTE      bForcedReset
      00FF6C3AH   BLOCK     CODE     NEAR LAB  LVL=1
L251 LINKER/LOCATER V4.66.93.0                                                        04/08/2024  14:48:14  PAGE 62


      00FF6C3AH   LINE      ---      ---       #217
      00FF6C46H   LINE      ---      ---       #220
      00FF6C4AH   LINE      ---      ---       #222
      00FF6C4CH   LINE      ---      ---       #223
      00FF6C4CH   LINE      ---      ---       #224
      00FF6C5DH   LINE      ---      ---       #225
      00FF6C6BH   LINE      ---      ---       #226
      00FF6C75H   LINE      ---      ---       #227
      00FF6C7DH   LINE      ---      ---       #228
      00FF6C7FH   LINE      ---      ---       #229
      00FF6C8BH   LINE      ---      ---       #231
      00FF6C91H   LINE      ---      ---       #232
      00FF6C93H   LINE      ---      ---       #233
      00FF6C93H   LINE      ---      ---       #236
      00FF6C9CH   LINE      ---      ---       #239
      00FF6C9EH   LINE      ---      ---       #240
      00FF6C9EH   LINE      ---      ---       #241
      00FF6CACH   LINE      ---      ---       #242
      00FF6CAEH   LINE      ---      ---       #243
      00FF6CBAH   LINE      ---      ---       #245
      00FF6CC0H   LINE      ---      ---       #246
      00FF6CC2H   LINE      ---      ---       #248
      DR28        REGSYM    ---      DWORD     temp
      DR24        REGSYM    ---      DWORD     busyCount
      ---         BLOCKEND  CODE     ---       LVL=1
      00FF6CC4H   LINE      ---      ---       #249
      00FF6CC4H   LINE      CODE     ---       #249

      00FF6CC5H   BLOCK     CODE     ---       LVL=0
      00FF6CC5H   LINE      ---      ---       #251
      00FF6CD5H   LINE      ---      ---       #270
      00FF6CE1H   LINE      ---      ---       #273
      00FF6CE9H   LINE      ---      ---       #276
      00FF6CEFH   LINE      ---      ---       #277
      00FF6CF2H   LINE      ---      ---       #281
      00FF6CF4H   LINE      ---      ---       #285
      00FF6CF8H   LINE      ---      ---       #288
      00FF6D13H   LINE      ---      ---       #289
      00FF6D2BH   LINE      ---      ---       #290
      00FF6D32H   LINE      ---      ---       #291
      00FF6D39H   LINE      ---      ---       #295
      00FF6D48H   LINE      ---      ---       #296
      00FF6D53H   LINE      ---      ---       #304
      00FF6D64H   LINE      ---      ---       #305
      0000B64DH   SYMBOL    EDATA    BYTE      bTxAutoClear
      0000B64EH   SYMBOL    EDATA    BYTE      bRxAutoCommit
      R12         REGSYM    ---      BYTE      txControlInfoSize
      R13         REGSYM    ---      BYTE      rxControlInfoSize
      WR14        REGSYM    ---      INT       rxqOpMode
      ---         BLOCKEND  ---      ---       LVL=0

      ---         MODULE    ---      ---       bmu_cmd
      00FF6DC8H   PUBLIC    CODE     ---       BMU_H2MCmdGet
      00FF6E40H   PUBLIC    CODE     ---       BMU_M2HCmdSet

      00FF6DC8H   BLOCK     CODE     ---       LVL=0
      00FF6DC8H   LINE      ---      ---       #23
      00FF6DCEH   LINE      ---      ---       #27
      REG=4       REGSYM    ---      ---       pDataAddress
      REG=7       REGSYM    ---      ---       pDataLength
      00FF6DCEH   BLOCK     CODE     NEAR LAB  LVL=1
      00FF6DCEH   LINE      ---      ---       #34
      00FF6DD4H   LINE      ---      ---       #37
      00FF6DDEH   LINE      ---      ---       #38
      00FF6DE1H   LINE      ---      ---       #41
L251 LINKER/LOCATER V4.66.93.0                                                        04/08/2024  14:48:14  PAGE 63


      00FF6DF1H   LINE      ---      ---       #42
      00FF6DFCH   LINE      ---      ---       #47
      00FF6DFEH   LINE      ---      ---       #48
      00FF6E05H   LINE      ---      ---       #50
      00FF6E0AH   LINE      ---      ---       #51
      00FF6E0CH   LINE      ---      ---       #52
      00FF6E0CH   LINE      ---      ---       #55
      00FF6E26H   LINE      ---      ---       #56
      00FF6E2DH   LINE      ---      ---       #57
      00FF6E30H   LINE      ---      ---       #60
      00FF6E39H   LINE      ---      ---       #62
      WR12        REGSYM    ---      WORD      bufferLength
      WR10        REGSYM    ---      WORD      tempBufferLength
      WR4         REGSYM    ---      WORD      bufferAddress
      REG=2       REGSYM    ---      ---       pBufferAddress
      0000B669H   SYMBOL    EDATA    BYTE      bRetValue
      ---         BLOCKEND  CODE     ---       LVL=1
      00FF6E3DH   LINE      ---      ---       #63
      00FF6E3DH   LINE      CODE     ---       #63

      00FF6E40H   BLOCK     CODE     ---       LVL=0
      00FF6E40H   LINE      ---      ---       #65
      00FF6E46H   LINE      ---      ---       #69
      REG=4       REGSYM    ---      ---       pDataAddress
      WR14        REGSYM    ---      WORD      dataLength
      00FF6E46H   BLOCK     CODE     NEAR LAB  LVL=1
      00FF6E46H   LINE      ---      ---       #74
      00FF6E50H   LINE      ---      ---       #75
      00FF6E53H   LINE      ---      ---       #78
      00FF6E6DH   LINE      ---      ---       #79
      00FF6E70H   LINE      ---      ---       #82
      00FF6E79H   LINE      ---      ---       #85
      00FF6E91H   LINE      ---      ---       #86
      00FF6E98H   LINE      ---      ---       #89
      00FF6EA3H   LINE      ---      ---       #90
      00FF6EACH   LINE      ---      ---       #93
      00FF6EB8H   LINE      ---      ---       #94
      00FF6EC1H   LINE      ---      ---       #96
      WR4         REGSYM    ---      WORD      bufferAddress
      REG=3       REGSYM    ---      ---       pBufferAddress
      ---         BLOCKEND  CODE     ---       LVL=1
      00FF6EC1H   LINE      ---      ---       #97
      00FF6EC1H   LINE      CODE     ---       #97

      ---         MODULE    ---      ---       bmu_common
      00FF6EC4H   PUBLIC    CODE     ---       BMU_TrxQueueGet
      00FF6FD2H   PUBLIC    CODE     ---       BMU_TrxQueueSet
      00FF13B3H   PUBLIC    HCONST   ---       bmuMemSizeHwRxq
      00FF13BBH   PUBLIC    HCONST   ---       bmuMemSizeHwSwRxq
      0000B64FH   PUBLIC    EDATA    ---       sBmuCtrlPara

      00FF6EC4H   BLOCK     CODE     ---       LVL=0
      00FF6EC4H   LINE      ---      ---       #110
      00FF6ECAH   LINE      ---      ---       #116
      WR10        REGSYM    ---      WORD      length
      WR4         REGSYM    ---      WORD      offset
      WR2         REGSYM    ---      WORD      address
      REG=4       REGSYM    ---      ---       pData
      00FF6ECAH   BLOCK     CODE     NEAR LAB  LVL=1
      00FF6ECAH   LINE      ---      ---       #129
      00FF6ED8H   LINE      ---      ---       #130
      00FF6EE2H   LINE      ---      ---       #131
      00FF6EF8H   LINE      ---      ---       #134
      00FF6EFCH   LINE      ---      ---       #135
      00FF6F04H   LINE      ---      ---       #136
L251 LINKER/LOCATER V4.66.93.0                                                        04/08/2024  14:48:14  PAGE 64


      00FF6F2BH   LINE      ---      ---       #139
      00FF6F2FH   LINE      ---      ---       #140
      00FF6F33H   LINE      ---      ---       #141
      00FF6F35H   LINE      ---      ---       #144
      00FF6F59H   LINE      ---      ---       #145
      00FF6F67H   LINE      ---      ---       #146
      00FF6F79H   LINE      ---      ---       #148
      00FF6F86H   LINE      ---      ---       #151
      00FF6F98H   LINE      ---      ---       #152
      00FF6F9CH   LINE      ---      ---       #155
      00FF6FB3H   LINE      ---      ---       #158
      00FF6FB9H   LINE      ---      ---       #159
      0000B53FH   SYMBOL    EDATA    ---       pInput
      0000B541H   SYMBOL    EDATA    ---       pOutput
      WR0         REGSYM    ---      WORD      startPage
      0000B543H   SYMBOL    EDATA    WORD      startOffset
      0000B545H   SYMBOL    EDATA    WORD      pageNum
      DR12        REGSYM    ---      DWORD     tempLength
      0000B547H   SYMBOL    EDATA    WORD      tempAddress
      0000B549H   SYMBOL    EDATA    WORD      loopIdx
      ---         BLOCKEND  CODE     ---       LVL=1
      00FF6FCFH   LINE      ---      ---       #160
      00FF6FCFH   LINE      CODE     ---       #160

      00FF6FD2H   BLOCK     CODE     ---       LVL=0
      00FF6FD2H   LINE      ---      ---       #162
      00FF6FD8H   LINE      ---      ---       #168
      WR10        REGSYM    ---      WORD      length
      WR4         REGSYM    ---      WORD      offset
      WR2         REGSYM    ---      WORD      address
      REG=4       REGSYM    ---      ---       pData
      00FF6FD8H   BLOCK     CODE     NEAR LAB  LVL=1
      00FF6FD8H   LINE      ---      ---       #181
      00FF6FE6H   LINE      ---      ---       #182
      00FF6FF0H   LINE      ---      ---       #183
      00FF7006H   LINE      ---      ---       #186
      00FF700AH   LINE      ---      ---       #187
      00FF7012H   LINE      ---      ---       #188
      00FF7039H   LINE      ---      ---       #191
      00FF703DH   LINE      ---      ---       #192
      00FF7041H   LINE      ---      ---       #193
      00FF7043H   LINE      ---      ---       #196
      00FF7067H   LINE      ---      ---       #197
      00FF7075H   LINE      ---      ---       #198
      00FF7087H   LINE      ---      ---       #200
      00FF7094H   LINE      ---      ---       #203
      00FF70A6H   LINE      ---      ---       #204
      00FF70AAH   LINE      ---      ---       #207
      00FF70C1H   LINE      ---      ---       #210
      00FF70C7H   LINE      ---      ---       #211
      0000B54BH   SYMBOL    EDATA    ---       pInput
      0000B54DH   SYMBOL    EDATA    ---       pOutput
      0000B54FH   SYMBOL    EDATA    WORD      tempAddress
      DR12        REGSYM    ---      DWORD     tempLength
      WR0         REGSYM    ---      WORD      startPage
      0000B551H   SYMBOL    EDATA    WORD      startOffset
      0000B553H   SYMBOL    EDATA    WORD      pageNum
      0000B555H   SYMBOL    EDATA    WORD      loopIdx
      ---         BLOCKEND  CODE     ---       LVL=1
      00FF70DDH   LINE      ---      ---       #212
      00FF70DDH   LINE      CODE     ---       #212

      ---         MODULE    ---      ---       bmu_rx
      00FF70E0H   PUBLIC    CODE     ---       BMU_LocalRxqStartAddGet
      00FF7102H   PUBLIC    CODE     ---       BMU_RxqStartAddGet
L251 LINKER/LOCATER V4.66.93.0                                                        04/08/2024  14:48:14  PAGE 65


      00FF2DF5H   PUBLIC    CODE     ---       BMU_RxConfig
      00FF7124H   PUBLIC    CODE     ---       BMU_LocalRxQueueGet
      00FF6B8DH   PUBLIC    CODE     ---       BMU_LrxHwBufConfig
      00FF7287H   PUBLIC    CODE     ---       BMU_LrxHwBufStatusUpdate
      00FF728CH   PUBLIC    CODE     ---       BMU_LrxHwBufSet
      00FF77E1H   PUBLIC    CODE     ---       BMU_LrxHwRxDoneBufGet
      00FF6BB5H   PUBLIC    CODE     ---       BMU_LrxShareQConfig
      00FF7800H   PUBLIC    CODE     ---       BMU_LrxShareQWoGet
      00FF78B5H   PUBLIC    CODE     ---       BMU_LrxShareQWoUpdate
      00FF7945H   PUBLIC    CODE     ---       BMU_LrxShareQIsFull
      00FF3E46H   PUBLIC    CODE     ---       BMU_RxQueueGet
      00FF3DF8H   PUBLIC    CODE     ---       BMU_RxQueueSet
      0000B5A8H   PUBLIC    EDATA    ---       bmuLrxSwqCtrl
      0000B5ADH   PUBLIC    EDATA    BYTE      bmuLrxManualCfg
      0000B5AEH   PUBLIC    EDATA    ---       pBmuLrxShareQCtrl

      00FF70E0H   BLOCK     CODE     ---       LVL=0
      00FF70E0H   LINE      ---      ---       #36
      00FF70E0H   LINE      ---      ---       #38
      00FF7101H   LINE      ---      ---       #39
      ---         BLOCKEND  ---      ---       LVL=0

      00FF7102H   BLOCK     CODE     ---       LVL=0
      00FF7102H   LINE      ---      ---       #41
      00FF7102H   LINE      ---      ---       #43
      00FF7123H   LINE      ---      ---       #44
      ---         BLOCKEND  ---      ---       LVL=0

      00FF2DF5H   BLOCK     CODE     ---       LVL=0
      00FF2DF5H   LINE      ---      ---       #47
      00FF2DF9H   LINE      ---      ---       #50
      WR6         REGSYM    ---      INT       queueType
      00FF2DF9H   BLOCK     CODE     NEAR LAB  LVL=1
      00FF2DF9H   LINE      ---      ---       #55
      00FF2DFCH   LINE      ---      ---       #56
      00FF2E04H   LINE      ---      ---       #58
      00FF2E04H   LINE      ---      ---       #61
      00FF2E10H   LINE      ---      ---       #62
      00FF2E12H   LINE      ---      ---       #64
      00FF2E14H   LINE      ---      ---       #65
      00FF2E14H   LINE      ---      ---       #68
      00FF2E32H   LINE      ---      ---       #69
      00FF2E60H   LINE      ---      ---       #72
      00FF2E64H   LINE      ---      ---       #73
      00FF2E70H   LINE      ---      ---       #74
      00FF2E75H   LINE      ---      ---       #75
      00FF2E77H   LINE      ---      ---       #76
      00FF2E77H   LINE      ---      ---       #77
      00FF2E79H   LINE      ---      ---       #78
      00FF2E79H   LINE      ---      ---       #80
      R13         REGSYM    ---      BYTE      bRetValue
      WR14        REGSYM    ---      WORD      rxMaxLen
      ---         BLOCKEND  CODE     ---       LVL=1
      00FF2E7BH   LINE      ---      ---       #98
      00FF2E7BH   LINE      CODE     ---       #98

      00FF7124H   BLOCK     CODE     ---       LVL=0
      00FF7124H   LINE      ---      ---       #100
      00FF712AH   LINE      ---      ---       #105
      WR30        REGSYM    ---      WORD      length
      WR8         REGSYM    ---      WORD      offset
      REG=14      REGSYM    ---      ---       pData
      00FF712AH   BLOCK     CODE     NEAR LAB  LVL=1
      00FF712AH   LINE      ---      ---       #112
      00FF7134H   LINE      ---      ---       #113
L251 LINKER/LOCATER V4.66.93.0                                                        04/08/2024  14:48:14  PAGE 66


      00FF7136H   LINE      ---      ---       #116
      00FF7144H   LINE      ---      ---       #117
      00FF714DH   LINE      ---      ---       #120
      00FF7157H   LINE      ---      ---       #121
      00FF715FH   LINE      ---      ---       #123
      00FF7163H   LINE      ---      ---       #124
      00FF7167H   LINE      ---      ---       #126
      00FF716DH   LINE      ---      ---       #127
      00FF716FH   LINE      ---      ---       #129
      00FF7171H   LINE      ---      ---       #132
      00FF7177H   LINE      ---      ---       #133
      00FF717AH   LINE      ---      ---       #136
      00FF7194H   LINE      ---      ---       #137
      00FF7199H   LINE      ---      ---       #139
      WR4         REGSYM    ---      WORD      bufferLength
      WR6         REGSYM    ---      WORD      bufferAddress
      DR0         REGSYM    ---      DWORD     tempLength
      REG=2       REGSYM    ---      ---       pBufferAddress
      ---         BLOCKEND  CODE     ---       LVL=1
      00FF719BH   LINE      ---      ---       #140
      00FF719BH   LINE      CODE     ---       #140

      00FF3E46H   BLOCK     CODE     ---       LVL=0
      00FF3E46H   LINE      ---      ---       #180
      00FF3E4CH   LINE      ---      ---       #185
      WR30        REGSYM    ---      WORD      length
      WR8         REGSYM    ---      WORD      offset
      REG=14      REGSYM    ---      ---       pData
      00FF3E4CH   BLOCK     CODE     NEAR LAB  LVL=1
      00FF3E4CH   LINE      ---      ---       #191
      00FF3E56H   LINE      ---      ---       #192
      00FF3E58H   LINE      ---      ---       #195
      00FF3E61H   LINE      ---      ---       #196
      00FF3E72H   LINE      ---      ---       #199
      00FF3E7CH   LINE      ---      ---       #200
      00FF3E84H   LINE      ---      ---       #202
      00FF3E88H   LINE      ---      ---       #203
      00FF3E8CH   LINE      ---      ---       #205
      00FF3E92H   LINE      ---      ---       #206
      00FF3E94H   LINE      ---      ---       #208
      00FF3E96H   LINE      ---      ---       #211
      00FF3E9CH   LINE      ---      ---       #212
      00FF3E9FH   LINE      ---      ---       #215
      00FF3EA6H   LINE      ---      ---       #217
      WR0         REGSYM    ---      WORD      bufferLength
      WR2         REGSYM    ---      WORD      bufferAddress
      DR4         REGSYM    ---      DWORD     tempLength
      ---         BLOCKEND  CODE     ---       LVL=1
      00FF3EA8H   LINE      ---      ---       #218
      00FF3EA8H   LINE      CODE     ---       #218

      00FF3DF8H   BLOCK     CODE     ---       LVL=0
      00FF3DF8H   LINE      ---      ---       #220
      00FF3DFEH   LINE      ---      ---       #225
      WR8         REGSYM    ---      WORD      length
      WR30        REGSYM    ---      WORD      offset
      REG=14      REGSYM    ---      ---       pData
      00FF3DFEH   BLOCK     CODE     NEAR LAB  LVL=1
      00FF3DFEH   LINE      ---      ---       #231
      00FF3E08H   LINE      ---      ---       #232
      00FF3E0AH   LINE      ---      ---       #235
      00FF3E13H   LINE      ---      ---       #236
      00FF3E21H   LINE      ---      ---       #239
      00FF3E2BH   LINE      ---      ---       #240
      00FF3E31H   LINE      ---      ---       #241
L251 LINKER/LOCATER V4.66.93.0                                                        04/08/2024  14:48:14  PAGE 67


      00FF3E33H   LINE      ---      ---       #244
      00FF3E37H   LINE      ---      ---       #245
      00FF3E3AH   LINE      ---      ---       #248
      00FF3E43H   LINE      ---      ---       #250
      WR6         REGSYM    ---      WORD      bufferLength
      WR2         REGSYM    ---      WORD      bufferAddress
      DR24        REGSYM    ---      DWORD     tempLength
      ---         BLOCKEND  CODE     ---       LVL=1
      00FF3E45H   LINE      ---      ---       #251
      00FF3E45H   LINE      CODE     ---       #251

      00FF6B8DH   BLOCK     CODE     ---       LVL=0
      00FF6B8DH   LINE      ---      ---       #255
      00FF6B93H   LINE      ---      ---       #262
      00FF6B97H   LINE      ---      ---       #263
      00FF6B9BH   LINE      ---      ---       #264
      00FF6BA0H   LINE      ---      ---       #269
      00FF6BAAH   LINE      ---      ---       #270
      00FF6BB2H   LINE      ---      ---       #273
      00FF6BB4H   LINE      ---      ---       #274
      R7          REGSYM    ---      BYTE      hwPageIdx
      R10         REGSYM    ---      BYTE      hwPageSize
      R3          REGSYM    ---      BYTE      lrxTotalPageSize
      ---         BLOCKEND  ---      ---       LVL=0

      00FF7287H   BLOCK     CODE     ---       LVL=0
      00FF7287H   LINE      ---      ---       #276
      00FF7287H   LINE      ---      ---       #283
      ---         BLOCKEND  ---      ---       LVL=0

      00FF728CH   BLOCK     CODE     ---       LVL=0
      00FF728CH   LINE      ---      ---       #285
      00FF728CH   LINE      ---      ---       #297
      00FF7297H   LINE      ---      ---       #299
      ---         BLOCKEND  ---      ---       LVL=0

      00FF77E1H   BLOCK     CODE     ---       LVL=0
      00FF77E1H   LINE      ---      ---       #301
      00FF77E1H   LINE      ---      ---       #304
      00FF77E1H   BLOCK     CODE     NEAR LAB  LVL=1
      00FF77E1H   LINE      ---      ---       #310
      00FF77E7H   LINE      ---      ---       #313
      WR4         REGSYM    ---      WORD      prevHwWritePageIdx
      ---         BLOCKEND  CODE     ---       LVL=1
      00FF77FFH   LINE      ---      ---       #314
      00FF77FFH   LINE      CODE     ---       #314

      00FF6BB5H   BLOCK     CODE     ---       LVL=0
      00FF6BB5H   LINE      ---      ---       #317
      00FF6BB5H   LINE      ---      ---       #321
      00FF6BBBH   LINE      ---      ---       #323
      00FF6BBEH   LINE      ---      ---       #324
      00FF6BBEH   LINE      ---      ---       #326
      00FF6BCAH   LINE      ---      ---       #328
      00FF6BD5H   LINE      ---      ---       #329
      00FF6BDEH   LINE      ---      ---       #330
      00FF6BE6H   LINE      ---      ---       #331
      00FF6BEDH   LINE      ---      ---       #333
      00FF6C1AH   LINE      ---      ---       #336
      00FF6C35H   LINE      ---      ---       #338
      00FF6C37H   LINE      ---      ---       #339
      ---         BLOCKEND  ---      ---       LVL=0

      00FF7800H   BLOCK     CODE     ---       LVL=0
      00FF7800H   LINE      ---      ---       #342
L251 LINKER/LOCATER V4.66.93.0                                                        04/08/2024  14:48:14  PAGE 68


      00FF7800H   LINE      ---      ---       #345
      00FF7800H   BLOCK     CODE     NEAR LAB  LVL=1
      00FF7800H   LINE      ---      ---       #350
      00FF782DH   LINE      ---      ---       #352
      REG=3       REGSYM    ---      ---       woAddr
      ---         BLOCKEND  CODE     ---       LVL=1
      00FF782DH   LINE      ---      ---       #353
      00FF782DH   LINE      CODE     ---       #353

      00FF78B5H   BLOCK     CODE     ---       LVL=0
      00FF78B5H   LINE      ---      ---       #356
      00FF78B5H   LINE      ---      ---       #360
      00FF78B9H   LINE      ---      ---       #362
      00FF78B9H   LINE      ---      ---       #363
      00FF78B9H   LINE      ---      ---       #365
      00FF78CEH   LINE      ---      ---       #366
      ---         BLOCKEND  ---      ---       LVL=0

      00FF7945H   BLOCK     CODE     ---       LVL=0
      00FF7945H   LINE      ---      ---       #370
      00FF7945H   LINE      ---      ---       #373
      00FF7945H   BLOCK     CODE     NEAR LAB  LVL=1
      00FF7945H   LINE      ---      ---       #374
      00FF7966H   LINE      ---      ---       #377
      00FF7966H   LINE      ---      ---       #379
      00FF7971H   LINE      ---      ---       #381
      00FF7980H   LINE      ---      ---       #383
      00FF7980H   LINE      ---      ---       #384
      00FF7980H   LINE      ---      ---       #388
      0000B651H   SYMBOL    EDATA    BYTE      nextWo
      0000B652H   SYMBOL    EDATA    BYTE      currRo
      ---         BLOCKEND  CODE     ---       LVL=1
      00FF7994H   LINE      ---      ---       #389
      00FF7994H   LINE      CODE     ---       #389

      ---         MODULE    ---      ---       bmu_tx
      00FF7CC2H   PUBLIC    CODE     ---       BMU_LocalTxqStartAddGet
      00FF7CE4H   PUBLIC    CODE     ---       BMU_TxqStartAddGet
      00FF6D67H   PUBLIC    CODE     ---       BMU_TxqStatusUpd
      00FF7D07H   PUBLIC    CODE     ---       BMU_TxqStatusRecovery
      00FF7D2BH   PUBLIC    CODE     ---       BMU_TxqPktSearch
      00FF7D63H   PUBLIC    CODE     ---       BMU_TxPktLengthGet
      00FF5A34H   PUBLIC    CODE     ---       BMU_TxConfig
      00FF7DFCH   PUBLIC    CODE     ---       BMU_LocalTxQueueGet
      00FF5DFAH   PUBLIC    CODE     ---       BMU_LocalTxQueueSet
      00FF5924H   PUBLIC    CODE     ---       BMU_TxQueueGet
      00FF598EH   PUBLIC    CODE     ---       BMU_TxQueueClear

      00FF7CC2H   BLOCK     CODE     ---       LVL=0
      00FF7CC2H   LINE      ---      ---       #27
      00FF7CC2H   LINE      ---      ---       #29
      00FF7CE3H   LINE      ---      ---       #30
      ---         BLOCKEND  ---      ---       LVL=0

      00FF7CE4H   BLOCK     CODE     ---       LVL=0
      00FF7CE4H   LINE      ---      ---       #32
      00FF7CE4H   LINE      ---      ---       #36
      00FF7D06H   LINE      ---      ---       #37
      R7          REGSYM    ---      BYTE      dataQueueId
      ---         BLOCKEND  ---      ---       LVL=0

      00FF6D67H   BLOCK     CODE     ---       LVL=0
      00FF6D67H   LINE      ---      ---       #39
      00FF6D67H   LINE      ---      ---       #41
      00FF6D72H   LINE      ---      ---       #42
L251 LINKER/LOCATER V4.66.93.0                                                        04/08/2024  14:48:14  PAGE 69


      00FF6D7DH   LINE      ---      ---       #43
      ---         BLOCKEND  ---      ---       LVL=0

      00FF7D07H   BLOCK     CODE     ---       LVL=0
      00FF7D07H   LINE      ---      ---       #45
      00FF7D0BH   LINE      ---      ---       #49
      00FF7D13H   LINE      ---      ---       #50
      00FF7D28H   LINE      ---      ---       #51
      R15         REGSYM    ---      BYTE      txQueueId
      ---         BLOCKEND  ---      ---       LVL=0

      00FF7D2BH   BLOCK     CODE     ---       LVL=0
      00FF7D2BH   LINE      ---      ---       #53
      00FF7D2FH   LINE      ---      ---       #57
      REG=0       REGSYM    ---      ---       pPktNum
      REG=1       REGSYM    ---      ---       pQList
      00FF7D2FH   BLOCK     CODE     NEAR LAB  LVL=1
      00FF7D2FH   LINE      ---      ---       #62
      00FF7D36H   LINE      ---      ---       #63
      00FF7D3CH   LINE      ---      ---       #64
      00FF7D40H   LINE      ---      ---       #65
      00FF7D42H   LINE      ---      ---       #67
      00FF7D47H   LINE      ---      ---       #69
      00FF7D4EH   LINE      ---      ---       #70
      00FF7D51H   LINE      ---      ---       #71
      00FF7D53H   LINE      ---      ---       #72
      00FF7D53H   LINE      ---      ---       #73
      00FF7D55H   LINE      ---      ---       #75
      00FF7D57H   LINE      ---      ---       #76
      00FF7D57H   LINE      ---      ---       #77
      00FF7D5EH   LINE      ---      ---       #80
      R10         REGSYM    ---      BYTE      rTxqEmpty
      R7          REGSYM    ---      BYTE      rTxqDiff
      R6          REGSYM    ---      BYTE      idx
      ---         BLOCKEND  CODE     ---       LVL=1
      00FF7D62H   LINE      ---      ---       #81
      00FF7D62H   LINE      CODE     ---       #81

      00FF7D63H   BLOCK     CODE     ---       LVL=0
      00FF7D63H   LINE      ---      ---       #83
      00FF7D6BH   LINE      ---      ---       #126
      00FF7D7EH   LINE      ---      ---       #127
      00FF7D81H   LINE      ---      ---       #130
      00FF7D94H   LINE      ---      ---       #131
      00FF7DAAH   LINE      ---      ---       #134
      00FF7DC8H   LINE      ---      ---       #135
      00FF7DCAH   LINE      ---      ---       #136
      00FF7DDFH   LINE      ---      ---       #137
      00FF7DE6H   LINE      ---      ---       #139
      00FF7DF7H   LINE      ---      ---       #143
      00FF7DF9H   LINE      ---      ---       #144
      R10         REGSYM    ---      BYTE      queueId
      R15         REGSYM    ---      BYTE      pktId
      REG=4       REGSYM    ---      ---       pPktLength
      ---         BLOCKEND  ---      ---       LVL=0

      00FF5A15H   BLOCK     CODE     ---       LVL=0
      00FF5A34H   LINE      ---      ---       #147
      00FF5A38H   LINE      ---      ---       #154
      00FF5A42H   LINE      ---      ---       #157
      00FF5A42H   LINE      ---      ---       #159
      00FF5A47H   LINE      ---      ---       #160
      00FF5A49H   LINE      ---      ---       #163
      00FF5A60H   LINE      ---      ---       #164
      00FF5A62H   LINE      ---      ---       #167
L251 LINKER/LOCATER V4.66.93.0                                                        04/08/2024  14:48:14  PAGE 70


      00FF5A76H   LINE      ---      ---       #169
      00FF5A8DH   LINE      ---      ---       #175
      00FF5A99H   LINE      ---      ---       #177
      00FF5AA8H   LINE      ---      ---       #179
      00FF5AB2H   LINE      ---      ---       #183
      00FF5AB2H   LINE      ---      ---       #187
      00FF5AB6H   LINE      ---      ---       #189
      00FF5AB8H   LINE      ---      ---       #192
      00FF5AB8H   LINE      ---      ---       #195
      00FF5AC4H   LINE      ---      ---       #197
      00FF5AC6H   LINE      ---      ---       #199
      00FF5AC6H   LINE      ---      ---       #200
      00FF5AC8H   LINE      ---      ---       #201
      00FF5AC8H   LINE      ---      ---       #212
      00FF5ACAH   LINE      ---      ---       #213
      00FF5A15H   SYMBOL    CODE     NEAR LAB  ?L?COM000D
      WR6         REGSYM    ---      INT       queueType
      R10         REGSYM    ---      BYTE      queueId
      R9          REGSYM    ---      BYTE      pktId
      ---         BLOCKEND  ---      ---       LVL=0

      00FF7DFCH   BLOCK     CODE     ---       LVL=0
      00FF7DFCH   LINE      ---      ---       #216
      00FF7E02H   LINE      ---      ---       #221
      WR10        REGSYM    ---      WORD      length
      WR2         REGSYM    ---      WORD      offset
      REG=4       REGSYM    ---      ---       pData
      00FF7E02H   BLOCK     CODE     NEAR LAB  LVL=1
      00FF7E02H   LINE      ---      ---       #226
      00FF7E06H   LINE      ---      ---       #227
      00FF7E09H   LINE      ---      ---       #230
      00FF7E12H   LINE      ---      ---       #233
      00FF7E2CH   LINE      ---      ---       #234
      00FF7E33H   LINE      ---      ---       #236
      WR6         REGSYM    ---      WORD      bufferAddress
      REG=2       REGSYM    ---      ---       pBufferAddress
      ---         BLOCKEND  CODE     ---       LVL=1
      00FF7E35H   LINE      ---      ---       #237
      00FF7E35H   LINE      CODE     ---       #237

      00FF5DFAH   BLOCK     CODE     ---       LVL=0
      00FF5DFAH   LINE      ---      ---       #240
      00FF5E00H   LINE      ---      ---       #246
      WR8         REGSYM    ---      WORD      length
      WR30        REGSYM    ---      WORD      offset
      REG=14      REGSYM    ---      ---       pData
      R11         REGSYM    ---      BYTE      bTxqInit
      00FF5E00H   BLOCK     CODE     NEAR LAB  LVL=1
      00FF5E00H   LINE      ---      ---       #252
      00FF5E04H   LINE      ---      ---       #253
      00FF5E07H   LINE      ---      ---       #256
      00FF5E11H   LINE      ---      ---       #257
      00FF5E13H   LINE      ---      ---       #259
      00FF5E2FH   LINE      ---      ---       #260
      00FF5E31H   LINE      ---      ---       #263
      00FF5E40H   LINE      ---      ---       #264
      00FF5E42H   LINE      ---      ---       #265
      00FF5E56H   LINE      ---      ---       #266
      00FF5E58H   LINE      ---      ---       #269
      00FF5E61H   LINE      ---      ---       #272
      00FF5E7BH   LINE      ---      ---       #273
      00FF5E82H   LINE      ---      ---       #275
      WR4         REGSYM    ---      WORD      bufferAddress
      DR0         REGSYM    ---      DWORD     tempLength
      REG=3       REGSYM    ---      ---       pBufferAddress
L251 LINKER/LOCATER V4.66.93.0                                                        04/08/2024  14:48:14  PAGE 71


      ---         BLOCKEND  CODE     ---       LVL=1
      00FF5E84H   LINE      ---      ---       #276
      00FF5E84H   LINE      CODE     ---       #276

      00FF5924H   BLOCK     CODE     ---       LVL=0
      00FF5924H   LINE      ---      ---       #279
      00FF592CH   LINE      ---      ---       #285
      R10         REGSYM    ---      BYTE      queueId
      WR8         REGSYM    ---      WORD      length
      WR28        REGSYM    ---      WORD      offset
      REG=15      REGSYM    ---      ---       pData
      00FF592CH   BLOCK     CODE     NEAR LAB  LVL=1
      00FF592CH   LINE      ---      ---       #289
      00FF5931H   LINE      ---      ---       #290
      00FF5933H   LINE      ---      ---       #293
      00FF594AH   LINE      ---      ---       #294
      00FF594CH   LINE      ---      ---       #297
      00FF5950H   LINE      ---      ---       #298
      00FF5953H   LINE      ---      ---       #302
      00FF5967H   LINE      ---      ---       #303
      00FF596FH   LINE      ---      ---       #304
      00FF5978H   LINE      ---      ---       #310
      00FF5981H   LINE      ---      ---       #312
      WR2         REGSYM    ---      WORD      bufferAddress
      ---         BLOCKEND  CODE     ---       LVL=1
      00FF5983H   LINE      ---      ---       #313
      00FF5983H   LINE      CODE     ---       #313

      00FF598EH   BLOCK     CODE     ---       LVL=0
      00FF598EH   LINE      ---      ---       #353
      00FF5992H   LINE      ---      ---       #359
      00FF59A5H   LINE      ---      ---       #360
      00FF59A7H   LINE      ---      ---       #362
      00FF59DEH   LINE      ---      ---       #364
      00FF59E1H   LINE      ---      ---       #367
      00FF59F4H   LINE      ---      ---       #369
      00FF5A09H   LINE      ---      ---       #373
      00FF5A12H   LINE      ---      ---       #375
      00FF5A14H   LINE      ---      ---       #376
      R9          REGSYM    ---      BYTE      queueId
      R10         REGSYM    ---      BYTE      pktId
      ---         BLOCKEND  ---      ---       LVL=0

      ---         MODULE    ---      ---       bmu_ble
      00FF7E36H   PUBLIC    CODE     ---       BMU_PrivacyIrkClr
      00FF7EA7H   PUBLIC    CODE     ---       BMU_PrivacyIrkSet
      00FF7FA7H   PUBLIC    CODE     ---       BMU_PrivacyIrkGet
      00FF7EE0H   PUBLIC    CODE     ---       BMU_PrivacyLocalRpaGen
      00FF7FDCH   PUBLIC    CODE     ---       BMU_PrivacyIrkFullSearch
      00FF7F6EH   PUBLIC    CODE     ---       BMU_PrivacyIrkSingleSearch

      00FF7EA7H   BLOCK     CODE     ---       LVL=0
      00FF7EA7H   LINE      ---      ---       #25
      00FF7EA9H   LINE      ---      ---       #31
      R3          REGSYM    ---      BYTE      idx
      REG=4       REGSYM    ---      ---       pIrk
      ---         BLOCKEND  ---      ---       LVL=0

      00FF7FA7H   BLOCK     CODE     ---       LVL=0
      00FF7FA7H   LINE      ---      ---       #34
      00FF7FA7H   LINE      ---      ---       #40
      R1          REGSYM    ---      BYTE      idx
      REG=3       REGSYM    ---      ---       pIrk
      ---         BLOCKEND  ---      ---       LVL=0

L251 LINKER/LOCATER V4.66.93.0                                                        04/08/2024  14:48:14  PAGE 72


      00FF7E36H   BLOCK     CODE     ---       LVL=0
      00FF7E36H   LINE      ---      ---       #44
      00FF7E38H   LINE      ---      ---       #49
      00FF7E3AH   LINE      ---      ---       #52
      00FF7E6FH   LINE      ---      ---       #53
      00FF7E71H   LINE      ---      ---       #57
      R11         REGSYM    ---      BYTE      bClrAll
      R10         REGSYM    ---      BYTE      idx
      ---         BLOCKEND  ---      ---       LVL=0

      00FF7EE0H   BLOCK     CODE     ---       LVL=0
      00FF7EE0H   LINE      ---      ---       #61
      00FF7EEAH   LINE      ---      ---       #67
      0000B66AH   SYMBOL    EDATA    BYTE      idx
      REG=3       REGSYM    ---      ---       pIrk
      REG=6       REGSYM    ---      ---       pPrand
      REG=7       REGSYM    ---      ---       pHash
      00FF7EEAH   BLOCK     CODE     NEAR LAB  LVL=1
      00FF7EEAH   LINE      ---      ---       #71
      00FF7EECH   LINE      ---      ---       #74
      00FF7F07H   LINE      ---      ---       #75
      00FF7F1DH   LINE      ---      ---       #78
      00FF7F26H   LINE      ---      ---       #81
      00FF7F41H   LINE      ---      ---       #84
      00FF7F49H   LINE      ---      ---       #87
      00FF7F53H   LINE      ---      ---       #90
      00FF7F5EH   LINE      ---      ---       #91
      00FF7F61H   LINE      ---      ---       #92
      00FF7F67H   LINE      ---      ---       #93
      DR4         REGSYM    ---      DWORD     regTemp
      ---         BLOCKEND  CODE     ---       LVL=1
      00FF7F6BH   LINE      ---      ---       #94
      00FF7F6BH   LINE      CODE     ---       #94

      00FF7FDCH   BLOCK     CODE     ---       LVL=0
      00FF7FDCH   LINE      ---      ---       #96
      00FF7FE4H   LINE      ---      ---       #101
      REG=2       REGSYM    ---      ---       pHash
      REG=7       REGSYM    ---      ---       pPrand
      REG=6       REGSYM    ---      ---       pResult
      00FF7FE4H   BLOCK     CODE     NEAR LAB  LVL=1
      00FF7FE4H   LINE      ---      ---       #105
      00FF7FEFH   LINE      ---      ---       #108
      00FF800AH   LINE      ---      ---       #109
      00FF8020H   LINE      ---      ---       #112
      00FF802CH   LINE      ---      ---       #115
      00FF8034H   LINE      ---      ---       #118
      00FF803CH   LINE      ---      ---       #121
      00FF8046H   LINE      ---      ---       #124
      00FF8050H   LINE      ---      ---       #126
      00FF8056H   LINE      ---      ---       #127
      00FF805AH   LINE      ---      ---       #128
      00FF805AH   LINE      ---      ---       #129
      DR4         REGSYM    ---      DWORD     regTemp
      ---         BLOCKEND  CODE     ---       LVL=1
      00FF805BH   LINE      ---      ---       #130
      00FF805BH   LINE      CODE     ---       #130

      00FF7F6EH   BLOCK     CODE     ---       LVL=0
      00FF7F6EH   LINE      ---      ---       #132
      00FF7F76H   LINE      ---      ---       #138
      R11         REGSYM    ---      BYTE      idx
      REG=0       REGSYM    ---      ---       pIrk
      REG=1       REGSYM    ---      ---       pPrand
      REG=7       REGSYM    ---      ---       pHash
L251 LINKER/LOCATER V4.66.93.0                                                        04/08/2024  14:48:14  PAGE 73


      00FF7F76H   BLOCK     CODE     NEAR LAB  LVL=1
      00FF7F76H   LINE      ---      ---       #139
      00FF7F7CH   LINE      ---      ---       #142
      00FF7F86H   LINE      ---      ---       #145
      00FF7F9BH   LINE      ---      ---       #146
      00FF7F9FH   LINE      ---      ---       #147
      00FF7FA2H   LINE      ---      ---       #148
      0000B60CH   SYMBOL    EDATA    DWORD     regTemp
      ---         BLOCKEND  CODE     ---       LVL=1
      00FF7FA4H   LINE      ---      ---       #149
      00FF7FA4H   LINE      CODE     ---       #149

      ---         MODULE    ---      ---       mac
      00FF2732H   PUBLIC    CODE     ---       mac_FunEventQAdd?_
      00FF2614H   PUBLIC    CODE     ---       mac_IntEventQAdd?_
      00FF249EH   PUBLIC    CODE     ---       mac_FunEventQGet?_
      00FF27FBH   PUBLIC    CODE     ---       mac_IntEventQGet?_
      00FF3EA9H   PUBLIC    CODE     ---       MAC_SleepCheck
      00FF805EH   PUBLIC    CODE     ---       Mac_TimeoutHdlr
      00FF1498H   PUBLIC    CODE     ---       mac_Init
      00FF8069H   PUBLIC    CODE     ---       mac_CheckRxBusy
      00FF81E4H   PUBLIC    CODE     ---       mac_CheckIsrRxReceived
      00FF2868H   PUBLIC    CODE     ---       mac_FatalClear
      00FF81F6H   PUBLIC    CODE     ---       mac
      00FF27C2H   PUBLIC    CODE     ---       mac_IntEventQueueHandler
      00FF8254H   PUBLIC    CODE     ---       mac_CheckBmuErr
      00FF25DFH   PUBLIC    CODE     ---       mac_IntEventQueueClearTxData
      00FF8288H   PUBLIC    CODE     ---       mac_FunEventQInit
      00FF8294H   PUBLIC    CODE     ---       mac_IntEventQInit
      00FF27B1H   PUBLIC    CODE     ---       pciQueueGetandMacIntQueueAdd
      00FF2E89H   PUBLIC    CODE     ---       mac_FunEventQueueExist
      00FF82A0H   PUBLIC    CODE     ---       mac_TrxPar_Init
      00FF3F9DH   PUBLIC    CODE     ---       mac_IntEventQueueExist
      0000B310H   PUBLIC    EDATA    ---       gMacFunCtrl
      0000B311H   PUBLIC    EDATA    ---       gMacFunEventQ
      0000B32BH   PUBLIC    EDATA    ---       gMacIntEventQ
      000000A8H.7 SFRSYM    DATA     BIT       EA
      00000080H   SFRSYM    DATA     BYTE      P0

      00FF272EH   BLOCK     CODE     ---       LVL=0
      00FF2732H   LINE      ---      ---       #96
      00FF2734H   LINE      ---      ---       #99
      00FF2738H   LINE      ---      ---       #100
      00FF2738H   LINE      ---      ---       #102
      00FF273AH   LINE      ---      ---       #105
      00FF274BH   LINE      ---      ---       #107
      00FF274FH   LINE      ---      ---       #110
      00FF275BH   LINE      ---      ---       #112
      00FF2760H   LINE      ---      ---       #113
      00FF2762H   LINE      ---      ---       #119
      00FF2765H   LINE      ---      ---       #121
      00FF2767H   LINE      ---      ---       #122
      00FF2767H   LINE      ---      ---       #124
      00FF2769H   LINE      ---      ---       #125
      00FF272EH   SYMBOL    CODE     NEAR LAB  ?L?COM0052
      WR4         REGSYM    ---      WORD      state
      ---         BLOCKEND  ---      ---       LVL=0

      00FF249EH   BLOCK     CODE     ---       LVL=0
      00FF249EH   LINE      ---      ---       #134
      00FF249EH   LINE      ---      ---       #135
      00FF249EH   BLOCK     CODE     NEAR LAB  LVL=1
      00FF249EH   LINE      ---      ---       #139
      00FF24A0H   LINE      ---      ---       #141
      00FF24ADH   LINE      ---      ---       #143
L251 LINKER/LOCATER V4.66.93.0                                                        04/08/2024  14:48:14  PAGE 74


      00FF24B1H   LINE      ---      ---       #146
      00FF24B7H   LINE      ---      ---       #149
      00FF24C3H   LINE      ---      ---       #151
      00FF24C8H   LINE      ---      ---       #152
      00FF24C8H   LINE      ---      ---       #155
      00FF24CAH   LINE      ---      ---       #157
      WR6         REGSYM    ---      WORD      ret
      ---         BLOCKEND  CODE     ---       LVL=1
      00FF24CAH   LINE      ---      ---       #158
      00FF24CAH   LINE      CODE     ---       #158

      00FF8288H   BLOCK     CODE     ---       LVL=0
      00FF8288H   LINE      ---      ---       #167
      00FF8288H   LINE      ---      ---       #169
      ---         BLOCKEND  ---      ---       LVL=0

      00FF2610H   BLOCK     CODE     ---       LVL=0
      00FF2614H   LINE      ---      ---       #179
      00FF2616H   LINE      ---      ---       #182
      00FF261AH   LINE      ---      ---       #183
      00FF261AH   LINE      ---      ---       #187
      00FF261CH   LINE      ---      ---       #191
      00FF262DH   LINE      ---      ---       #193
      00FF2631H   LINE      ---      ---       #196
      00FF263DH   LINE      ---      ---       #198
      00FF2642H   LINE      ---      ---       #199
      00FF2644H   LINE      ---      ---       #205
      00FF2647H   LINE      ---      ---       #206
      00FF2649H   LINE      ---      ---       #207
      00FF2649H   LINE      ---      ---       #210
      00FF264BH   LINE      ---      ---       #212
      00FF2610H   SYMBOL    CODE     NEAR LAB  ?L?COM0051
      WR4         REGSYM    ---      WORD      state
      ---         BLOCKEND  ---      ---       LVL=0

      00FF27FBH   BLOCK     CODE     ---       LVL=0
      00FF27FBH   LINE      ---      ---       #223
      00FF27FBH   LINE      ---      ---       #224
      00FF27FBH   BLOCK     CODE     NEAR LAB  LVL=1
      00FF27FBH   LINE      ---      ---       #228
      00FF27FDH   LINE      ---      ---       #230
      00FF280AH   LINE      ---      ---       #232
      00FF280EH   LINE      ---      ---       #235
      00FF2814H   LINE      ---      ---       #238
      00FF2820H   LINE      ---      ---       #240
      00FF2825H   LINE      ---      ---       #241
      00FF2825H   LINE      ---      ---       #244
      00FF2827H   LINE      ---      ---       #246
      WR6         REGSYM    ---      WORD      ret
      ---         BLOCKEND  CODE     ---       LVL=1
      00FF2827H   LINE      ---      ---       #247
      00FF2827H   LINE      CODE     ---       #247

      00FF8294H   BLOCK     CODE     ---       LVL=0
      00FF8294H   LINE      ---      ---       #256
      00FF8294H   LINE      ---      ---       #258
      ---         BLOCKEND  ---      ---       LVL=0

      00FF27B1H   BLOCK     CODE     ---       LVL=0
      00FF27B1H   LINE      ---      ---       #262
      00FF27B1H   LINE      ---      ---       #263
      00FF27B1H   BLOCK     CODE     NEAR LAB  LVL=1
      00FF27B1H   LINE      ---      ---       #264
      00FF27B6H   LINE      ---      ---       #265
      00FF27BBH   LINE      ---      ---       #267
L251 LINKER/LOCATER V4.66.93.0                                                        04/08/2024  14:48:14  PAGE 75


      00FF27C1H   LINE      ---      ---       #268
      R7          REGSYM    ---      BYTE      pciQueueNum
      ---         BLOCKEND  CODE     ---       LVL=1
      ---         BLOCKEND  CODE     ---       LVL=0

      00FF2E89H   BLOCK     CODE     ---       LVL=0
      00FF2E89H   LINE      ---      ---       #273
      00FF2E89H   LINE      ---      ---       #275
      00FF2E97H   LINE      ---      ---       #276
      ---         BLOCKEND  ---      ---       LVL=0

      00FF27C2H   BLOCK     CODE     ---       LVL=0
      00FF27C2H   LINE      ---      ---       #278
      00FF27C2H   LINE      ---      ---       #279
      00FF27C2H   BLOCK     CODE     NEAR LAB  LVL=1
      00FF27C2H   LINE      ---      ---       #283
      00FF27C4H   LINE      ---      ---       #289
      00FF27C7H   LINE      ---      ---       #293
      00FF27C9H   LINE      ---      ---       #294
      00FF27D1H   LINE      ---      ---       #297
      00FF27D1H   LINE      ---      ---       #298
      00FF27D4H   LINE      ---      ---       #299
      00FF27D4H   LINE      ---      ---       #302
      00FF27D4H   LINE      ---      ---       #307
      00FF27D6H   LINE      ---      ---       #312
      00FF27D6H   LINE      ---      ---       #314
      WR6         REGSYM    ---      WORD      macIntEventQueue
      ---         BLOCKEND  CODE     ---       LVL=1
      00FF27D6H   LINE      ---      ---       #316
      00FF27D6H   LINE      CODE     ---       #316

      00FF82A0H   BLOCK     CODE     ---       LVL=0
      00FF82A0H   LINE      ---      ---       #318
      00FF82A0H   LINE      ---      ---       #319
      00FF82A0H   BLOCK     CODE     NEAR LAB  LVL=1
      00FF82A0H   LINE      ---      ---       #321
      00FF82A5H   LINE      ---      ---       #322
      00FF82AEH   LINE      ---      ---       #325
      00FF82CCH   LINE      ---      ---       #326
      00FF82D7H   LINE      ---      ---       #330
      00FF82DFH   LINE      ---      ---       #331
      00FF82E5H   LINE      ---      ---       #332
      00FF82EBH   LINE      ---      ---       #333
      00FF82F1H   LINE      ---      ---       #334
      00FF82F7H   LINE      ---      ---       #335
      00FF82FFH   LINE      ---      ---       #336
      00FF8307H   LINE      ---      ---       #337
      00FF830FH   LINE      ---      ---       #339
      00FF8313H   LINE      ---      ---       #342
      00FF8318H   LINE      ---      ---       #343
      00FF831CH   LINE      ---      ---       #344
      00FF8322H   LINE      ---      ---       #353
      00FF8326H   LINE      ---      ---       #354
      00FF832AH   LINE      ---      ---       #355
      00FF832EH   LINE      ---      ---       #356
      00FF8330H   LINE      ---      ---       #358
      00FF8341H   LINE      ---      ---       #359
      00FF8351H   LINE      ---      ---       #360
      00FF8361H   LINE      ---      ---       #361
      00FF8372H   LINE      ---      ---       #362
      00FF837EH   LINE      ---      ---       #363
      00FF8390H   LINE      ---      ---       #366
      00FF8398H   LINE      ---      ---       #367
      00FF839EH   LINE      ---      ---       #368
      00FF83A4H   LINE      ---      ---       #369
L251 LINKER/LOCATER V4.66.93.0                                                        04/08/2024  14:48:14  PAGE 76


      00FF83A8H   LINE      ---      ---       #371
      00FF83ADH   LINE      ---      ---       #372
      00FF83B1H   LINE      ---      ---       #373
      00FF83B7H   LINE      ---      ---       #375
      00FF83BFH   LINE      ---      ---       #377
      00FF83D2H   LINE      ---      ---       #380
      00FF83D2H   LINE      ---      ---       #381
      00FF83D8H   LINE      ---      ---       #382
      00FF83DDH   LINE      ---      ---       #383
      00FF83E1H   LINE      ---      ---       #384
      00FF83E1H   LINE      ---      ---       #385
      00FF83E1H   LINE      ---      ---       #386
      00FF83E1H   LINE      ---      ---       #387
      00FF83E1H   LINE      ---      ---       #388
      00FF83E3H   LINE      ---      ---       #392
      00FF83E3H   LINE      ---      ---       #393
      00FF83EBH   LINE      ---      ---       #394
      00FF83F1H   LINE      ---      ---       #395
      00FF83F9H   LINE      ---      ---       #396
      00FF83FDH   LINE      ---      ---       #397
      00FF840DH   LINE      ---      ---       #398
      00FF841FH   LINE      ---      ---       #399
      00FF842DH   LINE      ---      ---       #400
      00FF842FH   LINE      ---      ---       #404
      00FF842FH   LINE      ---      ---       #405
      00FF8437H   LINE      ---      ---       #406
      00FF843DH   LINE      ---      ---       #407
      00FF8449H   LINE      ---      ---       #408
      00FF844DH   LINE      ---      ---       #409
      00FF845DH   LINE      ---      ---       #410
      00FF846FH   LINE      ---      ---       #411
      00FF8479H   LINE      ---      ---       #412
      00FF8479H   LINE      ---      ---       #427
      00FF8479H   LINE      ---      ---       #428
      00FF847FH   LINE      ---      ---       #433
      00FF8484H   LINE      ---      ---       #435
      00FF8488H   LINE      ---      ---       #436
      00FF848CH   LINE      ---      ---       #439
      00FF8490H   LINE      ---      ---       #440
      00FF8494H   LINE      ---      ---       #441
      00FF8498H   LINE      ---      ---       #444
      0000B66BH   SYMBOL    EDATA    BYTE      i
      WR4         REGSYM    ---      WORD      bufferAddress_LOCAL
      REG=3       REGSYM    ---      ---       pOutput
      ---         BLOCKEND  CODE     ---       LVL=1
      00FF849EH   LINE      ---      ---       #451
      00FF849EH   LINE      CODE     ---       #451

      00FF805EH   BLOCK     CODE     ---       LVL=0
      00FF805EH   LINE      ---      ---       #454
      00FF805EH   LINE      ---      ---       #457
      00FF8065H   LINE      ---      ---       #458
      00FF8068H   LINE      ---      ---       #459
      ---         BLOCKEND  ---      ---       LVL=0

      00FF1498H   BLOCK     CODE     ---       LVL=0
      00FF1498H   LINE      ---      ---       #461
      00FF1498H   LINE      ---      ---       #465
      00FF149FH   LINE      ---      ---       #469
      00FF14A2H   LINE      ---      ---       #473
      00FF14A4H   LINE      ---      ---       #477
      00FF14A7H   LINE      ---      ---       #480
      00FF14AAH   LINE      ---      ---       #483
      00FF14ADH   LINE      ---      ---       #488
      00FF14B4H   LINE      ---      ---       #498
L251 LINKER/LOCATER V4.66.93.0                                                        04/08/2024  14:48:14  PAGE 77


      00FF14B7H   LINE      ---      ---       #508
      00FF14BAH   LINE      ---      ---       #509
      00FF14BCH   LINE      ---      ---       #510
      00FF14BFH   LINE      ---      ---       #511
      00FF14C2H   LINE      ---      ---       #516
      00FF14C5H   LINE      ---      ---       #521
      00FF14D1H   LINE      ---      ---       #523
      ---         BLOCKEND  ---      ---       LVL=0

      00FF3F9DH   BLOCK     CODE     ---       LVL=0
      00FF3F9DH   LINE      ---      ---       #526
      00FF3F9DH   LINE      ---      ---       #527
      00FF3F9DH   BLOCK     CODE     NEAR LAB  LVL=1
      00FF3F9DH   LINE      ---      ---       #529
      00FF3FABH   LINE      ---      ---       #530
      R11         REGSYM    ---      BYTE      retValue
      ---         BLOCKEND  CODE     ---       LVL=1
      00FF3FABH   LINE      ---      ---       #531
      00FF3FABH   LINE      CODE     ---       #531

      00FF25DFH   BLOCK     CODE     ---       LVL=0
      00FF25DFH   LINE      ---      ---       #535
      00FF25E3H   LINE      ---      ---       #536
      00FF25E3H   BLOCK     CODE     NEAR LAB  LVL=1
      00FF25E3H   LINE      ---      ---       #537
      00FF25E3H   LINE      ---      ---       #540
      00FF25E6H   LINE      ---      ---       #541
      00FF25EAH   LINE      ---      ---       #542
      00FF25F0H   LINE      ---      ---       #546
      00FF25F5H   LINE      ---      ---       #549
      00FF25F8H   LINE      ---      ---       #550
      00FF25F8H   LINE      ---      ---       #552
      00FF25FAH   LINE      ---      ---       #553
      00FF25FDH   LINE      ---      ---       #554
      00FF2603H   LINE      ---      ---       #555
      00FF2607H   LINE      ---      ---       #556
      R15         REGSYM    ---      BYTE      count
      WR12        REGSYM    ---      WORD      event
      ---         BLOCKEND  CODE     ---       LVL=1
      00FF260BH   LINE      ---      ---       #560
      00FF260BH   LINE      CODE     ---       #560

      00FF3EA9H   BLOCK     CODE     ---       LVL=0
      00FF3EA9H   LINE      ---      ---       #564
      00FF3EA9H   LINE      ---      ---       #570
      00FF3EB0H   LINE      ---      ---       #573
      00FF3EB5H   LINE      ---      ---       #574
      00FF3EB7H   LINE      ---      ---       #581
      00FF3EC8H   LINE      ---      ---       #585
      00FF3ECBH   LINE      ---      ---       #586
      00FF3ECBH   LINE      ---      ---       #590
      00FF3ECFH   LINE      ---      ---       #591
      00FF3ED1H   LINE      ---      ---       #616
      00FF3ED7H   LINE      ---      ---       #618
      00FF3ED9H   LINE      ---      ---       #619
      00FF3ED9H   LINE      ---      ---       #621
      00FF3EE5H   LINE      ---      ---       #623
      00FF3EE7H   LINE      ---      ---       #624
      00FF3EE7H   LINE      ---      ---       #626
      00FF3EEDH   LINE      ---      ---       #628
      00FF3EFCH   LINE      ---      ---       #630
      00FF3F02H   LINE      ---      ---       #632
      00FF3F0AH   LINE      ---      ---       #633
      00FF3F0CH   LINE      ---      ---       #634
      00FF3F0CH   LINE      ---      ---       #637
L251 LINKER/LOCATER V4.66.93.0                                                        04/08/2024  14:48:14  PAGE 78


      00FF3F0FH   LINE      ---      ---       #638
      00FF3F0FH   LINE      ---      ---       #639
      00FF3F10H   LINE      ---      ---       #642
      ---         BLOCKEND  ---      ---       LVL=0

      00FF8254H   BLOCK     CODE     ---       LVL=0
      00FF8254H   LINE      ---      ---       #646
      00FF8254H   LINE      ---      ---       #647
      00FF8254H   BLOCK     CODE     NEAR LAB  LVL=1
      00FF8254H   LINE      ---      ---       #653
      00FF8260H   LINE      ---      ---       #654
      00FF826BH   LINE      ---      ---       #655
      00FF827AH   LINE      ---      ---       #656
      00FF8285H   LINE      ---      ---       #657
      R10         REGSYM    ---      BYTE      tempReg
      ---         BLOCKEND  CODE     ---       LVL=1
      00FF8287H   LINE      ---      ---       #658
      00FF8287H   LINE      CODE     ---       #658

      00FF8069H   BLOCK     CODE     ---       LVL=0
      00FF8069H   LINE      ---      ---       #661
      00FF8069H   LINE      ---      ---       #666
      00FF8089H   LINE      ---      ---       #669
      00FF808CH   LINE      ---      ---       #670
      00FF808CH   LINE      ---      ---       #672
      00FF808DH   LINE      ---      ---       #673
      ---         BLOCKEND  ---      ---       LVL=0

      00FF81E4H   BLOCK     CODE     ---       LVL=0
      00FF81E4H   LINE      ---      ---       #676
      00FF81E4H   LINE      ---      ---       #679
      00FF81E5H   LINE      ---      ---       #680
      00FF81E6H   LINE      ---      ---       #681
      00FF81F1H   LINE      ---      ---       #682
      00FF81F4H   LINE      ---      ---       #683
      00FF81F4H   LINE      ---      ---       #685
      00FF81F5H   LINE      ---      ---       #686
      ---         BLOCKEND  ---      ---       LVL=0

      00FF2868H   BLOCK     CODE     ---       LVL=0
      00FF2868H   LINE      ---      ---       #689
      00FF2868H   LINE      ---      ---       #692
      00FF286DH   LINE      ---      ---       #694
      ---         BLOCKEND  ---      ---       LVL=0

      00FF81F6H   BLOCK     CODE     ---       LVL=0
      00FF81F6H   LINE      ---      ---       #712
      00FF81F6H   LINE      ---      ---       #726
      00FF820FH   LINE      ---      ---       #729
      00FF820FH   LINE      ---      ---       #730
      00FF8211H   LINE      ---      ---       #731
      00FF8213H   LINE      ---      ---       #734
      00FF8213H   LINE      ---      ---       #735
      00FF8215H   LINE      ---      ---       #736
      00FF8217H   LINE      ---      ---       #738
      00FF8217H   LINE      ---      ---       #740
      00FF821AH   LINE      ---      ---       #744
      00FF821CH   LINE      ---      ---       #745
      00FF821CH   LINE      ---      ---       #747
      00FF821FH   LINE      ---      ---       #751
      00FF8221H   LINE      ---      ---       #759
      00FF8221H   LINE      ---      ---       #763
      00FF8224H   LINE      ---      ---       #765
      00FF8226H   LINE      ---      ---       #767
      00FF8226H   LINE      ---      ---       #771
L251 LINKER/LOCATER V4.66.93.0                                                        04/08/2024  14:48:14  PAGE 79


      00FF8229H   LINE      ---      ---       #773
      00FF8229H   LINE      ---      ---       #775
      00FF8229H   LINE      ---      ---       #776
      00FF822BH   LINE      ---      ---       #777
      ---         BLOCKEND  ---      ---       LVL=0

      ---         MODULE    ---      ---       mac_frame_parse
      00FF849FH   PUBLIC    CODE     ---       panIdPresent
      00FF8545H   PUBLIC    CODE     ---       mac_parseHdr

      00FF849FH   BLOCK     CODE     ---       LVL=0
      00FF849FH   LINE      ---      ---       #24
      00FF84A1H   LINE      ---      ---       #25
      R11         REGSYM    ---      BYTE      destAddrModeIn
      R10         REGSYM    ---      BYTE      srcAddrModeIn
      R6          REGSYM    ---      BYTE      panIdCompIn
      00FF84A1H   BLOCK     CODE     NEAR LAB  LVL=1
      00FF84A1H   LINE      ---      ---       #26
      00FF84A5H   LINE      ---      ---       #27
      00FF84A9H   LINE      ---      ---       #28
      00FF84ADH   LINE      ---      ---       #30
      00FF84B2H   LINE      ---      ---       #31
      00FF84B6H   LINE      ---      ---       #33
      00FF84BCH   LINE      ---      ---       #35
      00FF84C2H   LINE      ---      ---       #37
      00FF84C9H   LINE      ---      ---       #39
      00FF84C9H   LINE      ---      ---       #40
      00FF84CBH   LINE      ---      ---       #42
      00FF84DBH   LINE      ---      ---       #44
      00FF84E1H   LINE      ---      ---       #46
      00FF84E1H   LINE      ---      ---       #47
      00FF84E1H   LINE      ---      ---       #49
      00FF84E3H   LINE      ---      ---       #50
      00FF84EAH   LINE      ---      ---       #52
      00FF84F0H   LINE      ---      ---       #54
      00FF84F6H   LINE      ---      ---       #56
      00FF84F6H   LINE      ---      ---       #57
      00FF84F8H   LINE      ---      ---       #59
      00FF8508H   LINE      ---      ---       #61
      00FF850EH   LINE      ---      ---       #62
      00FF8514H   LINE      ---      ---       #64
      00FF851AH   LINE      ---      ---       #65
      00FF851AH   LINE      ---      ---       #67
      00FF851BH   LINE      ---      ---       #68
      00FF8522H   LINE      ---      ---       #70
      00FF852FH   LINE      ---      ---       #72
      00FF8535H   LINE      ---      ---       #74
      00FF8535H   LINE      ---      ---       #75
      00FF8537H   LINE      ---      ---       #77
      00FF853EH   LINE      ---      ---       #79
      00FF8544H   LINE      ---      ---       #80
      0000B63EH   SYMBOL    EDATA    BYTE      destAddrMode
      0000B63FH   SYMBOL    EDATA    BYTE      srcAddrMode
      0000B640H   SYMBOL    EDATA    BYTE      panIdComp
      ---         BLOCKEND  CODE     ---       LVL=1
      00FF8544H   LINE      ---      ---       #83
      00FF8544H   LINE      CODE     ---       #83

      00FF8545H   BLOCK     CODE     ---       LVL=0
      00FF8545H   LINE      ---      ---       #86
      00FF854BH   LINE      ---      ---       #92
      00FF855AH   LINE      ---      ---       #93
      00FF855CH   LINE      ---      ---       #94
      00FF8565H   LINE      ---      ---       #95
      00FF8575H   LINE      ---      ---       #96
L251 LINKER/LOCATER V4.66.93.0                                                        04/08/2024  14:48:14  PAGE 80


      00FF8587H   LINE      ---      ---       #97
      00FF859BH   LINE      ---      ---       #98
      00FF85B1H   LINE      ---      ---       #99
      00FF85C1H   LINE      ---      ---       #100
      00FF85D0H   LINE      ---      ---       #101
      00FF85E0H   LINE      ---      ---       #103
      00FF85E9H   LINE      ---      ---       #105
      00FF85F0H   LINE      ---      ---       #107
      00FF85FEH   LINE      ---      ---       #108
      00FF8604H   LINE      ---      ---       #110
      00FF860BH   LINE      ---      ---       #111
      00FF860DH   LINE      ---      ---       #112
      00FF860DH   LINE      ---      ---       #114
      00FF8616H   LINE      ---      ---       #117
      00FF8619H   LINE      ---      ---       #119
      00FF8620H   LINE      ---      ---       #120
      00FF8622H   LINE      ---      ---       #121
      00FF8624H   LINE      ---      ---       #124
      00FF8633H   LINE      ---      ---       #125
      00FF8635H   LINE      ---      ---       #126
      00FF8644H   LINE      ---      ---       #127
      00FF8646H   LINE      ---      ---       #128
      00FF8646H   LINE      ---      ---       #129
      00FF8646H   LINE      ---      ---       #131
      00FF864CH   LINE      ---      ---       #133
      00FF8653H   LINE      ---      ---       #134
      00FF8655H   LINE      ---      ---       #135
      00FF8655H   LINE      ---      ---       #137
      00FF8660H   LINE      ---      ---       #139
      00FF8663H   LINE      ---      ---       #142
      00FF8663H   LINE      ---      ---       #144
      00FF8663H   LINE      ---      ---       #145
      00FF8663H   LINE      ---      ---       #146
      00FF8665H   LINE      ---      ---       #150
      00FF8665H   LINE      ---      ---       #152
      00FF8665H   LINE      ---      ---       #153
      00FF8665H   LINE      ---      ---       #154
      00FF8665H   LINE      ---      ---       #155
      00FF8665H   LINE      ---      ---       #156
      00FF8665H   LINE      ---      ---       #157
      00FF8667H   LINE      ---      ---       #159
      00FF8672H   LINE      ---      ---       #162
      00FF867BH   LINE      ---      ---       #164
      00FF8682H   LINE      ---      ---       #165
      00FF8684H   LINE      ---      ---       #166
      00FF868BH   LINE      ---      ---       #168
      00FF8692H   LINE      ---      ---       #169
      00FF8694H   LINE      ---      ---       #170
      00FF8696H   LINE      ---      ---       #173
      00FF86A5H   LINE      ---      ---       #174
      00FF86A7H   LINE      ---      ---       #175
      00FF86B6H   LINE      ---      ---       #176
      00FF86B8H   LINE      ---      ---       #177
      00FF86B8H   LINE      ---      ---       #178
      00FF86B8H   LINE      ---      ---       #180
      00FF86C1H   LINE      ---      ---       #182
      00FF86C7H   LINE      ---      ---       #184
      00FF86CEH   LINE      ---      ---       #185
      00FF86D0H   LINE      ---      ---       #186
      00FF86D0H   LINE      ---      ---       #188
      00FF86D7H   LINE      ---      ---       #191
      00FF86E6H   LINE      ---      ---       #193
      00FF86EDH   LINE      ---      ---       #194
      00FF86EFH   LINE      ---      ---       #195
      00FF86F1H   LINE      ---      ---       #199
L251 LINKER/LOCATER V4.66.93.0                                                        04/08/2024  14:48:14  PAGE 81


      00FF8700H   LINE      ---      ---       #201
      00FF870FH   LINE      ---      ---       #202
      00FF8711H   LINE      ---      ---       #203
      00FF8720H   LINE      ---      ---       #205
      00FF8722H   LINE      ---      ---       #207
      00FF8722H   LINE      ---      ---       #208
      00FF8722H   LINE      ---      ---       #214
      00FF872BH   LINE      ---      ---       #217
      00FF8732H   LINE      ---      ---       #218
      00FF8732H   LINE      ---      ---       #219
      00FF873CH   LINE      ---      ---       #254
      REG=7       REGSYM    ---      ---       dptr
      REG=6       REGSYM    ---      ---       hdr
      ---         BLOCKEND  ---      ---       LVL=0

      ---         MODULE    ---      ---       mac_isr
      00FF876EH   PUBLIC    CODE     ---       mac_IsrHandler
      00FF17DDH   PUBLIC    CODE     ---       mac_IsrInit
      00FF87FFH   PUBLIC    CODE     ---       mac_BmuIsrInit
      00FF5FDBH   PUBLIC    CODE     ---       mac_isr_reg_cb
      0000B5B0H   PUBLIC    EDATA    ---       g_mac_isr_cb_handle
      00000080H   SFRSYM    DATA     BYTE      P0

      00FF876EH   BLOCK     CODE     ---       LVL=0
      00FF876EH   LINE      ---      ---       #44
      00FF8772H   LINE      ---      ---       #46
      00FF8775H   LINE      ---      ---       #48
      00FF877DH   LINE      ---      ---       #49
      00FF8783H   LINE      ---      ---       #50
      00FF8783H   LINE      ---      ---       #52
      00FF8786H   LINE      ---      ---       #53
      00FF8789H   LINE      ---      ---       #55
      00FF8789H   LINE      ---      ---       #57
      00FF878EH   LINE      ---      ---       #59
      00FF8796H   LINE      ---      ---       #60
      00FF879CH   LINE      ---      ---       #61
      00FF879CH   LINE      ---      ---       #63
      00FF879FH   LINE      ---      ---       #64
      00FF87A2H   LINE      ---      ---       #65
      00FF87A2H   LINE      ---      ---       #67
      00FF87A7H   LINE      ---      ---       #69
      00FF87AFH   LINE      ---      ---       #70
      00FF87B5H   LINE      ---      ---       #71
      00FF87B5H   LINE      ---      ---       #73
      00FF87B8H   LINE      ---      ---       #74
      00FF87BBH   LINE      ---      ---       #75
      00FF87BBH   LINE      ---      ---       #78
      00FF87C0H   LINE      ---      ---       #84
      00FF87D1H   LINE      ---      ---       #85
      00FF87D4H   LINE      ---      ---       #86
      00FF87D4H   LINE      ---      ---       #87
      00FF87D4H   LINE      ---      ---       #88
      00FF87D6H   LINE      ---      ---       #89
      00FF87D6H   LINE      ---      ---       #93
      00FF87D9H   LINE      ---      ---       #94
      00FF87DCH   LINE      ---      ---       #95
      00FF87E3H   LINE      ---      ---       #96
      00FF87E3H   LINE      ---      ---       #98
      00FF87E8H   LINE      ---      ---       #100
      00FF87F0H   LINE      ---      ---       #101
      00FF87F6H   LINE      ---      ---       #102
      00FF87F6H   LINE      ---      ---       #104
      00FF87F9H   LINE      ---      ---       #105
      00FF87FCH   LINE      ---      ---       #106
      R15         REGSYM    ---      BYTE      intSts
L251 LINKER/LOCATER V4.66.93.0                                                        04/08/2024  14:48:14  PAGE 82


      ---         BLOCKEND  ---      ---       LVL=0

      00FF17DDH   BLOCK     CODE     ---       LVL=0
      00FF17DDH   LINE      ---      ---       #132
      00FF17DDH   LINE      ---      ---       #134
      ---         BLOCKEND  ---      ---       LVL=0

      00FF87FFH   BLOCK     CODE     ---       LVL=0
      00FF87FFH   LINE      ---      ---       #141
      00FF87FFH   LINE      ---      ---       #150
      ---         BLOCKEND  ---      ---       LVL=0

      00FF5FDBH   BLOCK     CODE     ---       LVL=0
      00FF5FDBH   LINE      ---      ---       #153
      00FF5FDDH   LINE      ---      ---       #155
      REG=2       REGSYM    ---      ---       cb
      ---         BLOCKEND  ---      ---       LVL=0

      ---         MODULE    ---      ---       mac_cmd_hdlr
      00FF880BH   PUBLIC    CODE     ---       Pci_SetRfFreq
      00FF8919H   PUBLIC    CODE     ---       Pci_SetRxTaskPara
      00FF8963H   PUBLIC    CODE     ---       Pci_EnableSingleTone
      00FF3618H   PUBLIC    CODE     ---       Pci_SetRfeSecurityCmd
      00FF89A1H   PUBLIC    CODE     ---       Pci_SetRfeTxEnableCmd
      00FF8AFCH   PUBLIC    CODE     ---       Pci_SetRfeTxDisableCmd
      00FF5521H   PUBLIC    CODE     ---       Pci_SetRfeRxEnableCmd
      00FF583BH   PUBLIC    CODE     ---       Pci_SetRfeRxDisableCmd
      00FF47E6H   PUBLIC    CODE     ---       Pci_GetCrcCount
      00FF8B12H   PUBLIC    CODE     ---       Pci_SetRfSleep
      00FF8B31H   PUBLIC    CODE     ---       Pci_SetRfIdle
      00FF5721H   PUBLIC    CODE     ---       Pci_GetRssi
      00FF5795H   PUBLIC    CODE     ---       Pci_GetPhyStatus
      00FF8B47H   PUBLIC    CODE     ---       Pci_SetClockMode
      00FF8B93H   PUBLIC    CODE     ---       Pci_SetRfbAutoState
      00FF578BH   PUBLIC    CODE     ---       Pci_SetRfeMode
      00FF8C0DH   PUBLIC    CODE     ---       Pci_SetGaussianFilterType
      00FF8C20H   PUBLIC    CODE     ---       Pci_SetWakeOnRadio
      00FF8D23H   PUBLIC    CODE     ---       Pci_Set2ChScanFreq
      00FF4AEFH   PUBLIC    CODE     ---       Pci_InitFsk
      00FF8DB8H   PUBLIC    CODE     ---       Pci_SetFskModem
      00FF4C17H   PUBLIC    CODE     ---       Pci_SetFskMac
      00FF4ABBH   PUBLIC    CODE     ---       Pci_SetFskPreamble
      00FF3787H   PUBLIC    CODE     ---       Pci_SetFskSfd
      00FF4A92H   PUBLIC    CODE     ---       Pci_SetFskType
      00FF8DFAH   PUBLIC    CODE     ---       Pci_BleCmdInitBle
      00FF8E1DH   PUBLIC    CODE     ---       Pci_BleCmdSetBleModem
      00FF4D3DH   PUBLIC    CODE     ---       Pci_BleCmdSetBleMac
      00FF8FE6H   PUBLIC    CODE     ---       Pci_BlePhy_SetHtrp_Para
      00FF908AH   PUBLIC    CODE     ---       Pci_BlePhy_SetHtrp_Map_Channel
      00FF910EH   PUBLIC    CODE     ---       Pci_BlePhy_SetHtrp_Sec
      00FF915FH   PUBLIC    CODE     ---       Pci_BlePhy_SetHtrp_Tx_Enable
      00FF9184H   PUBLIC    CODE     ---       Pci_BlePhy_SetHtrp_Rx_Enable
      00FF91B2H   PUBLIC    CODE     ---       Pci_BlePhy_SetHtrp_Disable
      00FF91D0H   PUBLIC    CODE     ---       Pci_BlePhy_SetHtrp_Initiate
      00FF422EH   PUBLIC    CODE     ---       Pci_BlePhy_GetHtrp_Status
      00FF9213H   PUBLIC    CODE     ---       Pci_InitZigbee
      00FF5446H   PUBLIC    CODE     ---       Pci_Parse15p4AddressFilter
      00FF9286H   PUBLIC    CODE     ---       Pci_Parse15p4MacPib
      00FF92CFH   PUBLIC    CODE     ---       Pci_Parse15p4PhyPib
      00FF9308H   PUBLIC    CODE     ---       Pci_Parse15p4AutoAck
      00FF35B5H   PUBLIC    CODE     ---       Pci_Parse15p4PendingBit
      00FF5392H   PUBLIC    CODE     ---       Pci_Parse15p4SmEnable
      00FF52A1H   PUBLIC    CODE     ---       Pci_Set15p4CslReceiverCtrl
      00FF47F1H   PUBLIC    CODE     ---       Pci_Get15p4CslAccuracy
      00FF931AH   PUBLIC    CODE     ---       Pci_Get15p4CslUncertainty
L251 LINKER/LOCATER V4.66.93.0                                                        04/08/2024  14:48:14  PAGE 83


      00FF9327H   PUBLIC    CODE     ---       Pci_Update15p4CslSampleTime
      00FF4B29H   PUBLIC    CODE     ---       Pci_OqpskCmdInitOqpsk
      00FF9362H   PUBLIC    CODE     ---       Pci_OqpskCmdSetOqpskModem
      00FF4C70H   PUBLIC    CODE     ---       Pci_OqpskCmdSetOqpskMac
      00FF48BAH   PUBLIC    CODE     ---       MAC_CmdQueueParse
      00FF5B8FH   PUBLIC    CODE     ---       Pci_SetPhr
      00FF93A0H   PUBLIC    CODE     ---       Pci_RfeRxParaCheck
      00FF29B9H   PUBLIC    CODE     ---       SetRfIdle
      00FF35E1H   PUBLIC    CODE     ---       get_pan_number
      00FF4B6AH   PUBLIC    CODE     ---       Pci_ParaReset
      00FF8A41H   PUBLIC    CODE     ---       Pci_RfeTxParaCheck
      00FF54FEH   PUBLIC    CODE     ---       Reverse_Uint32cpy
      00FF53A3H   PUBLIC    CODE     ---       Pci_Parset15p4SmEntryCtrl
      00FF564FH   PUBLIC    CODE     ---       Pci_ParseCommonCmd
      00FF5310H   PUBLIC    CODE     ---       Pci_Parse15p4SwMacCmd
      00FF4DC2H   PUBLIC    CODE     ---       Pci_ParseBleCmd
      00FF4A63H   PUBLIC    CODE     ---       Pci_ParseFskCmd
      00FF4A48H   PUBLIC    CODE     ---       Pci_ParseOqpskCmd
      00FF93ECH   PUBLIC    CODE     ---       Pci_ParseCmnSysCmd
      00FF6827H   PUBLIC    CODE     ---       Pci_ParseCmnHalCmd
      0000B3CEH   PUBLIC    EDATA    BYTE      gSleepEnable
      0000B3CFH   PUBLIC    EDATA    ---       g15p4Mac
      0000B3E2H   PUBLIC    EDATA    ---       g15p4Phy
      00FF120BH   PUBLIC    HCONST   ---       gPciCommonCmdLen
      00FF122AH   PUBLIC    HCONST   ---       gPciFskCmdLen
      00FF1230H   PUBLIC    HCONST   ---       gPciBleCmdLen
      00FF123BH   PUBLIC    HCONST   ---       gPci15p4MacCmdLen
      00FF1248H   PUBLIC    HCONST   ---       gPciOqpskCmdLen
      00FF124CH   PUBLIC    HCONST   ---       gCmnSysCmdLen
      00FF124EH   PUBLIC    HCONST   ---       gCmnHalCmdLen
      000000A8H.7 SFRSYM    DATA     BIT       EA
      00000080H   SFRSYM    DATA     BYTE      P0

      00FF35E1H   BLOCK     CODE     ---       LVL=0
      00FF35E1H   LINE      ---      ---       #305
      00FF35E1H   LINE      ---      ---       #306
      00FF35E1H   BLOCK     CODE     NEAR LAB  LVL=1
      00FF35E1H   LINE      ---      ---       #308
      00FF35EAH   LINE      ---      ---       #311
      00FF3608H   LINE      ---      ---       #312
      00FF3613H   LINE      ---      ---       #314
      0000B66CH   SYMBOL    EDATA    BYTE      Pannum
      WR6         REGSYM    ---      WORD      bufferAddress_LOCAL
      REG=2       REGSYM    ---      ---       pInput
      ---         BLOCKEND  CODE     ---       LVL=1
      00FF3617H   LINE      ---      ---       #315
      00FF3617H   LINE      CODE     ---       #315

      00FF5B8AH   BLOCK     CODE     ---       LVL=0
      00FF5B8FH   LINE      ---      ---       #318
      00FF5B97H   LINE      ---      ---       #319
      00FF5B8AH   SYMBOL    CODE     NEAR LAB  ?L?COM0049
      WR14        REGSYM    ---      WORD      pktLen
      R13         REGSYM    ---      BYTE      dateType
      00FF5B97H   BLOCK     CODE     NEAR LAB  LVL=1
      00FF5B97H   LINE      ---      ---       #323
      00FF5BA5H   LINE      ---      ---       #326
      00FF5BA5H   LINE      ---      ---       #327
      00FF5BADH   LINE      ---      ---       #328
      00FF5BB7H   LINE      ---      ---       #329
      00FF5BB7H   LINE      ---      ---       #330
      00FF5BB9H   LINE      ---      ---       #333
      00FF5BB9H   LINE      ---      ---       #334
      00FF5BC5H   LINE      ---      ---       #335
      00FF5BCCH   LINE      ---      ---       #336
L251 LINKER/LOCATER V4.66.93.0                                                        04/08/2024  14:48:14  PAGE 84


      00FF5BCCH   LINE      ---      ---       #337
      00FF5BCEH   LINE      ---      ---       #340
      00FF5BCEH   LINE      ---      ---       #341
      0000B653H   SYMBOL    EDATA    WORD      phrContent
      00FF5BCEH   BLOCK     CODE     NEAR LAB  LVL=2
      00FF5BCEH   LINE      ---      ---       #344
      00FF5BDDH   LINE      ---      ---       #346
      00FF5BEAH   LINE      ---      ---       #347
      00FF5BEFH   LINE      ---      ---       #348
      00FF5BFAH   LINE      ---      ---       #349
      00FF5BFEH   LINE      ---      ---       #350
      00FF5C09H   LINE      ---      ---       #351
      R10         REGSYM    ---      BYTE      crcType
      ---         BLOCKEND  CODE     ---       LVL=2
      00FF5C16H   LINE      ---      ---       #353
      00FF5C16H   LINE      ---      ---       #379
      00FF5C16H   LINE      ---      ---       #380
      00FF5C16H   LINE      ---      ---       #381
      00FF5C16H   LINE      CODE     ---       #381
      ---         BLOCKEND  CODE     ---       LVL=0

      00FF4B65H   BLOCK     CODE     ---       LVL=0
      00FF4B6AH   LINE      ---      ---       #384
      00FF4B6AH   LINE      ---      ---       #386
      00FF4B6EH   LINE      ---      ---       #387
      00FF4B74H   LINE      ---      ---       #389
      00FF4B80H   LINE      ---      ---       #390
      00FF4B84H   LINE      ---      ---       #391
      00FF4B8AH   LINE      ---      ---       #392
      00FF4B8FH   LINE      ---      ---       #393
      00FF4B93H   LINE      ---      ---       #394
      00FF4B97H   LINE      ---      ---       #395
      00FF4B65H   SYMBOL    CODE     NEAR LAB  ?L?COM004B
      WR6         REGSYM    ---      INT       rfkBand
      ---         BLOCKEND  ---      ---       LVL=0

      00FF3618H   BLOCK     CODE     ---       LVL=0
      00FF3618H   LINE      ---      ---       #398
      00FF361EH   LINE      ---      ---       #399
      REG=7       REGSYM    ---      ---       pCmdAddress
      00FF361EH   BLOCK     CODE     NEAR LAB  LVL=1
      00FF361EH   LINE      ---      ---       #404
      00FF3622H   LINE      ---      ---       #411
      00FF3625H   LINE      ---      ---       #421
      00FF3625H   LINE      ---      ---       #429
      00FF363BH   LINE      ---      ---       #430
      00FF363FH   LINE      ---      ---       #432
      00FF364FH   LINE      ---      ---       #446
      REG=7       REGSYM    ---      ---       pCmdIn
      R13         REGSYM    ---      BYTE      Pannum
      ---         BLOCKEND  CODE     ---       LVL=1
      00FF3659H   LINE      ---      ---       #447
      00FF3659H   LINE      CODE     ---       #447

      00FF8A41H   BLOCK     CODE     ---       LVL=0
      00FF8A41H   LINE      ---      ---       #451
      00FF8A47H   LINE      ---      ---       #454
      00FF8A51H   LINE      ---      ---       #455
      00FF8A54H   LINE      ---      ---       #458
      00FF8A5DH   LINE      ---      ---       #459
      00FF8A60H   LINE      ---      ---       #462
      00FF8A7CH   LINE      ---      ---       #463
      00FF8A7FH   LINE      ---      ---       #466
      00FF8A83H   LINE      ---      ---       #467
      00FF8A86H   LINE      ---      ---       #470
L251 LINKER/LOCATER V4.66.93.0                                                        04/08/2024  14:48:14  PAGE 85


      00FF8A94H   LINE      ---      ---       #471
      00FF8A97H   LINE      ---      ---       #474
      00FF8AA2H   LINE      ---      ---       #476
      00FF8AB6H   LINE      ---      ---       #477
      00FF8AB9H   LINE      ---      ---       #478
      00FF8ABFH   LINE      ---      ---       #480
      00FF8AC9H   LINE      ---      ---       #481
      00FF8ACCH   LINE      ---      ---       #482
      00FF8ACCH   LINE      ---      ---       #483
      00FF8AD6H   LINE      ---      ---       #485
      00FF8AE0H   LINE      ---      ---       #486
      00FF8AE3H   LINE      ---      ---       #487
      00FF8AE3H   LINE      ---      ---       #488
      00FF8AE7H   LINE      ---      ---       #489
      00FF8AEAH   LINE      ---      ---       #490
      00FF8AF4H   LINE      ---      ---       #491
      00FF8AF7H   LINE      ---      ---       #492
      00FF8AF7H   LINE      ---      ---       #494
      00FF8AF9H   LINE      ---      ---       #495
      WR12        REGSYM    ---      WORD      txCounter
      WR14        REGSYM    ---      WORD      txStepSize
      ---         BLOCKEND  ---      ---       LVL=0

      00FF93A0H   BLOCK     CODE     ---       LVL=0
      00FF93A0H   LINE      ---      ---       #497
      00FF93A6H   LINE      ---      ---       #500
      00FF93B0H   LINE      ---      ---       #501
      00FF93B3H   LINE      ---      ---       #504
      00FF93BBH   LINE      ---      ---       #505
      00FF93BEH   LINE      ---      ---       #508
      00FF93C9H   LINE      ---      ---       #511
      00FF93CDH   LINE      ---      ---       #512
      00FF93D0H   LINE      ---      ---       #515
      00FF93E4H   LINE      ---      ---       #516
      00FF93E7H   LINE      ---      ---       #517
      00FF93E7H   LINE      ---      ---       #519
      00FF93E9H   LINE      ---      ---       #520
      R11         REGSYM    ---      BYTE      rxType
      R15         REGSYM    ---      BYTE      queueType
      R10         REGSYM    ---      BYTE      ackEnable
      DR0         REGSYM    ---      DWORD     ackInterval
      ---         BLOCKEND  ---      ---       LVL=0

      00FF89A1H   BLOCK     CODE     ---       LVL=0
      00FF89A1H   LINE      ---      ---       #524
      00FF89A5H   LINE      ---      ---       #525
      REG=7       REGSYM    ---      ---       pCmdAddress
      00FF89A5H   BLOCK     CODE     NEAR LAB  LVL=1
      00FF89A5H   LINE      ---      ---       #539
      00FF89A8H   LINE      ---      ---       #543
      00FF89C3H   LINE      ---      ---       #546
      00FF89C3H   LINE      ---      ---       #550
      00FF89CBH   LINE      ---      ---       #551
      00FF89D3H   LINE      ---      ---       #552
      00FF89DBH   LINE      ---      ---       #553
      00FF89E7H   LINE      ---      ---       #554
      00FF89EFH   LINE      ---      ---       #555
      00FF89F7H   LINE      ---      ---       #556
      00FF89FFH   LINE      ---      ---       #559
      00FF8A0BH   LINE      ---      ---       #561
      00FF8A13H   LINE      ---      ---       #562
      00FF8A15H   LINE      ---      ---       #563
      00FF8A15H   LINE      ---      ---       #566
      00FF8A28H   LINE      ---      ---       #569
      00FF8A2EH   LINE      ---      ---       #570
L251 LINKER/LOCATER V4.66.93.0                                                        04/08/2024  14:48:14  PAGE 86


      00FF8A36H   LINE      ---      ---       #593
      REG=7       REGSYM    ---      ---       pCmdIn
      ---         BLOCKEND  CODE     ---       LVL=1
      00FF8A3EH   LINE      ---      ---       #594
      00FF8A3EH   LINE      CODE     ---       #594

      00FF8AFCH   BLOCK     CODE     ---       LVL=0
      00FF8AFCH   LINE      ---      ---       #596
      00FF8AFCH   LINE      ---      ---       #598
      00FF8AFCH   LINE      ---      ---       #610
      00FF8AFFH   LINE      ---      ---       #615
      00FF8B05H   LINE      ---      ---       #621
      00FF8B0AH   LINE      ---      ---       #624
      ---         BLOCKEND  ---      ---       LVL=0

      00FF5521H   BLOCK     CODE     ---       LVL=0
      00FF5521H   LINE      ---      ---       #627
      00FF5525H   LINE      ---      ---       #628
      REG=7       REGSYM    ---      ---       pCmdAddress
      00FF5525H   BLOCK     CODE     NEAR LAB  LVL=1
      00FF5525H   LINE      ---      ---       #643
      00FF5528H   LINE      ---      ---       #647
      00FF5543H   LINE      ---      ---       #650
      00FF5543H   LINE      ---      ---       #654
      00FF554FH   LINE      ---      ---       #655
      00FF5557H   LINE      ---      ---       #656
      00FF555FH   LINE      ---      ---       #657
      00FF5567H   LINE      ---      ---       #660
      00FF557EH   LINE      ---      ---       #662
      00FF5586H   LINE      ---      ---       #663
      00FF5588H   LINE      ---      ---       #664
      00FF5588H   LINE      ---      ---       #667
      00FF559EH   LINE      ---      ---       #670
      00FF55A4H   LINE      ---      ---       #671
      00FF55ACH   LINE      ---      ---       #683
      00FF55B4H   LINE      ---      ---       #685
      00FF55C5H   LINE      ---      ---       #689
      00FF55D0H   LINE      ---      ---       #691
      00FF55D0H   LINE      ---      ---       #694
      REG=7       REGSYM    ---      ---       pCmdIn
      DR12        REGSYM    ---      DWORD     periodicReportCycle
      ---         BLOCKEND  CODE     ---       LVL=1
      00FF55DAH   LINE      ---      ---       #695
      00FF55DAH   LINE      CODE     ---       #695

      00FF583BH   BLOCK     CODE     ---       LVL=0
      00FF583BH   LINE      ---      ---       #697
      00FF583BH   LINE      ---      ---       #699
      00FF583BH   LINE      ---      ---       #711
      00FF583EH   LINE      ---      ---       #716
      00FF5844H   LINE      ---      ---       #725
      00FF5846H   LINE      ---      ---       #735
      00FF584BH   LINE      ---      ---       #742
      ---         BLOCKEND  ---      ---       LVL=0

      00FF47E6H   BLOCK     CODE     ---       LVL=0
      00FF47E6H   LINE      ---      ---       #745
      00FF47E6H   LINE      ---      ---       #747
      00FF47E6H   LINE      ---      ---       #748
      00FF47EFH   LINE      ---      ---       #749
      ---         BLOCKEND  ---      ---       LVL=0

      00FF5795H   BLOCK     CODE     ---       LVL=0
      00FF5795H   LINE      ---      ---       #752
      00FF5795H   LINE      ---      ---       #754
L251 LINKER/LOCATER V4.66.93.0                                                        04/08/2024  14:48:14  PAGE 87


      00FF5795H   LINE      ---      ---       #755
      00FF579FH   LINE      ---      ---       #756
      ---         BLOCKEND  ---      ---       LVL=0

      00FF8B12H   BLOCK     CODE     ---       LVL=0
      00FF8B12H   LINE      ---      ---       #762
      00FF8B16H   LINE      ---      ---       #767
      00FF8B19H   LINE      ---      ---       #773
      00FF8B1DH   LINE      ---      ---       #775
      00FF8B24H   LINE      ---      ---       #777
      00FF8B2EH   LINE      ---      ---       #778
      REG=7       REGSYM    ---      ---       pCmdAddress
      ---         BLOCKEND  ---      ---       LVL=0

      00FF8B31H   BLOCK     CODE     ---       LVL=0
      00FF8B31H   LINE      ---      ---       #780
      00FF8B31H   LINE      ---      ---       #782
      00FF8B31H   LINE      ---      ---       #787
      00FF8B34H   LINE      ---      ---       #796
      00FF8B39H   LINE      ---      ---       #798
      00FF8B3DH   LINE      ---      ---       #800
      ---         BLOCKEND  ---      ---       LVL=0

      00FF5721H   BLOCK     CODE     ---       LVL=0
      00FF5721H   LINE      ---      ---       #805
      00FF5721H   LINE      ---      ---       #807
      00FF5721H   LINE      ---      ---       #808
      00FF572BH   LINE      ---      ---       #812
      ---         BLOCKEND  ---      ---       LVL=0

      00FF8B47H   BLOCK     CODE     ---       LVL=0
      00FF8B47H   LINE      ---      ---       #818
      00FF8B4BH   LINE      ---      ---       #819
      REG=7       REGSYM    ---      ---       pCmdAddress
      00FF8B4BH   BLOCK     CODE     NEAR LAB  LVL=1
      00FF8B4BH   LINE      ---      ---       #828
      00FF8B4EH   LINE      ---      ---       #832
      00FF8B52H   LINE      ---      ---       #833
      00FF8B59H   LINE      ---      ---       #834
      00FF8B5DH   LINE      ---      ---       #836
      00FF8B62H   LINE      ---      ---       #839
      00FF8B65H   LINE      ---      ---       #840
      00FF8B65H   LINE      ---      ---       #841
      00FF8B69H   LINE      ---      ---       #844
      00FF8B6EH   LINE      ---      ---       #847
      00FF8B86H   LINE      ---      ---       #849
      0000B66DH   SYMBOL    EDATA    BYTE      ModemType
      R13         REGSYM    ---      BYTE      rfkBandType
      R12         REGSYM    ---      BYTE      ClockMode
      ---         BLOCKEND  CODE     ---       LVL=1
      00FF8B90H   LINE      ---      ---       #850
      00FF8B90H   LINE      CODE     ---       #850

      00FF8B93H   BLOCK     CODE     ---       LVL=0
      00FF8B93H   LINE      ---      ---       #853
      00FF8B97H   LINE      ---      ---       #859
      00FF8B9AH   LINE      ---      ---       #866
      00FF8B9EH   LINE      ---      ---       #868
      00FF8BA7H   LINE      ---      ---       #870
      00FF8BABH   LINE      ---      ---       #871
      00FF8BB2H   LINE      ---      ---       #873
      00FF8BC0H   LINE      ---      ---       #875
      00FF8BC6H   LINE      ---      ---       #876
      00FF8BCEH   LINE      ---      ---       #877
      00FF8BCEH   LINE      ---      ---       #878
L251 LINKER/LOCATER V4.66.93.0                                                        04/08/2024  14:48:14  PAGE 88


      00FF8BD6H   LINE      ---      ---       #879
      00FF8BDBH   LINE      ---      ---       #880
      00FF8BDDH   LINE      ---      ---       #883
      00FF8BE3H   LINE      ---      ---       #884
      00FF8BE9H   LINE      ---      ---       #886
      00FF8BEFH   LINE      ---      ---       #888
      00FF8C00H   LINE      ---      ---       #889
      00FF8C00H   LINE      ---      ---       #892
      00FF8C00H   LINE      ---      ---       #894
      00FF8C0AH   LINE      ---      ---       #895
      REG=7       REGSYM    ---      ---       pCmdAddress
      ---         BLOCKEND  ---      ---       LVL=0

      00FF578BH   BLOCK     CODE     ---       LVL=0
      00FF578BH   LINE      ---      ---       #897
      00FF578BH   LINE      ---      ---       #925
      00FF578BH   LINE      ---      ---       #929
      ---         BLOCKEND  ---      ---       LVL=0

      00FF8C0DH   BLOCK     CODE     ---       LVL=0
      00FF8C0DH   LINE      ---      ---       #932
      00FF8C0DH   LINE      ---      ---       #933
      REG=3       REGSYM    ---      ---       pCmdAddress
      00FF8C0DH   BLOCK     CODE     NEAR LAB  LVL=1
      00FF8C0DH   LINE      ---      ---       #948
      00FF8C0DH   LINE      ---      ---       #950
      00FF8C16H   LINE      ---      ---       #952
      REG=3       REGSYM    ---      ---       pCmdIn
      ---         BLOCKEND  CODE     ---       LVL=1
      ---         BLOCKEND  CODE     ---       LVL=0

      00FF8C20H   BLOCK     CODE     ---       LVL=0
      00FF8C20H   LINE      ---      ---       #958
      00FF8C24H   LINE      ---      ---       #959
      REG=7       REGSYM    ---      ---       pCmdAddress
      00FF8C24H   BLOCK     CODE     NEAR LAB  LVL=1
      00FF8C24H   LINE      ---      ---       #970
      00FF8C27H   LINE      ---      ---       #974
      00FF8C42H   LINE      ---      ---       #977
      00FF8C46H   LINE      ---      ---       #978
      00FF8C52H   LINE      ---      ---       #981
      00FF8C58H   LINE      ---      ---       #982
      00FF8C65H   LINE      ---      ---       #985
      00FF8C65H   LINE      ---      ---       #986
      00FF8C75H   LINE      ---      ---       #988
      00FF8C75H   LINE      ---      ---       #989
      00FF8C75H   LINE      ---      ---       #990
      00FF8C81H   LINE      ---      ---       #991
      00FF8C83H   LINE      ---      ---       #994
      00FF8C83H   LINE      ---      ---       #995
      00FF8C9DH   LINE      ---      ---       #997
      00FF8C9DH   LINE      ---      ---       #998
      00FF8C9DH   LINE      ---      ---       #999
      00FF8CA5H   LINE      ---      ---       #1000
      00FF8CA5H   LINE      ---      ---       #1002
      00FF8CA5H   LINE      ---      ---       #1003
      00FF8CA5H   LINE      ---      ---       #1005
      00FF8CA5H   LINE      ---      ---       #1006
      00FF8CBBH   LINE      ---      ---       #1008
      00FF8CBBH   LINE      ---      ---       #1009
      00FF8CBBH   LINE      ---      ---       #1010
      00FF8CC0H   LINE      ---      ---       #1012
      00FF8CC4H   LINE      ---      ---       #1013
      00FF8CCAH   LINE      ---      ---       #1014
      00FF8CDCH   LINE      ---      ---       #1015
L251 LINKER/LOCATER V4.66.93.0                                                        04/08/2024  14:48:14  PAGE 89


      00FF8CF3H   LINE      ---      ---       #1016
      00FF8CF9H   LINE      ---      ---       #1017
      00FF8CFDH   LINE      ---      ---       #1018
      00FF8D01H   LINE      ---      ---       #1019
      00FF8D05H   LINE      ---      ---       #1020
      00FF8D0CH   LINE      ---      ---       #1024
      00FF8D14H   LINE      ---      ---       #1026
      00FF8D14H   LINE      ---      ---       #1027
      00FF8D14H   SYMBOL    CODE     NEAR LAB  DONE?1940?mac_cmd_hdlr
      0000B641H   SYMBOL    EDATA    ---       pCmdIn
      DR12        REGSYM    ---      DWORD     freqTmp
      0000B643H   SYMBOL    EDATA    BYTE      result
      00FF8D26H   SYMBOL    CODE     NEAR LAB  DONE?1940
      ---         BLOCKEND  CODE     ---       LVL=1
      00FF8D20H   LINE      ---      ---       #1028
      00FF8D20H   LINE      CODE     ---       #1028

      00FF8D23H   BLOCK     CODE     ---       LVL=0
      00FF8D23H   LINE      ---      ---       #1031
      00FF8D29H   LINE      ---      ---       #1032
      REG=7       REGSYM    ---      ---       pCmdAddress
      00FF8D29H   BLOCK     CODE     NEAR LAB  LVL=1
      00FF8D29H   LINE      ---      ---       #1045
      00FF8D44H   LINE      ---      ---       #1048
      00FF8D46H   LINE      ---      ---       #1049
      00FF8D4CH   LINE      ---      ---       #1051
      00FF8D51H   LINE      ---      ---       #1052
      00FF8D55H   LINE      ---      ---       #1053
      00FF8D57H   LINE      ---      ---       #1054
      00FF8D59H   LINE      ---      ---       #1055
      00FF8D59H   LINE      ---      ---       #1057
      00FF8D61H   LINE      ---      ---       #1058
      00FF8D69H   LINE      ---      ---       #1061
      00FF8D6CH   LINE      ---      ---       #1063
      00FF8D84H   LINE      ---      ---       #1064
      00FF8D84H   LINE      ---      ---       #1066
      00FF8D86H   LINE      ---      ---       #1067
      00FF8D8CH   LINE      ---      ---       #1068
      00FF8D98H   LINE      ---      ---       #1070
      00FF8D9AH   LINE      ---      ---       #1071
      00FF8D9CH   LINE      ---      ---       #1074
      00FF8DA1H   LINE      ---      ---       #1075
      00FF8DA1H   LINE      ---      ---       #1076
      00FF8DA5H   LINE      ---      ---       #1077
      00FF8DA9H   LINE      ---      ---       #1079
      00FF8DA9H   LINE      ---      ---       #1080
      00FF8DA9H   SYMBOL    CODE     NEAR LAB  DONE?mac_cmd_hdlr
      REG=4       REGSYM    ---      ---       pCmdIn
      DR0         REGSYM    ---      DWORD     freqTmp1
      DR4         REGSYM    ---      DWORD     freqTmp2
      R13         REGSYM    ---      BYTE      result
      00FF8DC0H   SYMBOL    CODE     NEAR LAB  DONE
      ---         BLOCKEND  CODE     ---       LVL=1
      00FF8DB3H   LINE      ---      ---       #1081
      00FF8DB3H   LINE      CODE     ---       #1081

      00FF9213H   BLOCK     CODE     ---       LVL=0
      00FF9213H   LINE      ---      ---       #1109
      00FF9213H   LINE      ---      ---       #1118
      00FF9213H   LINE      ---      ---       #1121
      00FF9218H   LINE      ---      ---       #1123
      00FF9220H   LINE      ---      ---       #1124
      00FF9224H   LINE      ---      ---       #1125
      00FF922AH   LINE      ---      ---       #1126
      00FF922FH   LINE      ---      ---       #1136
L251 LINKER/LOCATER V4.66.93.0                                                        04/08/2024  14:48:14  PAGE 90


      00FF9232H   LINE      ---      ---       #1139
      00FF924CH   LINE      ---      ---       #1140
      00FF925CH   LINE      ---      ---       #1141
      00FF926EH   LINE      ---      ---       #1142
      00FF927CH   LINE      ---      ---       #1145
      ---         BLOCKEND  ---      ---       LVL=0

      00FF54FEH   BLOCK     CODE     ---       LVL=0
      00FF54FEH   LINE      ---      ---       #1148
      00FF5502H   LINE      ---      ---       #1150
      00FF5509H   LINE      ---      ---       #1151
      00FF5511H   LINE      ---      ---       #1152
      00FF5519H   LINE      ---      ---       #1153
      00FF5520H   LINE      ---      ---       #1154
      REG=0       REGSYM    ---      ---       aValue
      REG=1       REGSYM    ---      ---       aBuffer
      ---         BLOCKEND  ---      ---       LVL=0

      00FF5446H   BLOCK     CODE     ---       LVL=0
      00FF5446H   LINE      ---      ---       #1157
      00FF544CH   LINE      ---      ---       #1158
      REG=7       REGSYM    ---      ---       pCmdAddress
      00FF544CH   BLOCK     CODE     NEAR LAB  LVL=1
      00FF544CH   LINE      ---      ---       #1160
      00FF5451H   LINE      ---      ---       #1165
      00FF5455H   LINE      ---      ---       #1167
      00FF545CH   LINE      ---      ---       #1168
      00FF545EH   LINE      ---      ---       #1171
      00FF5471H   LINE      ---      ---       #1173
      00FF547CH   LINE      ---      ---       #1174
      00FF547EH   LINE      ---      ---       #1176
      00FF5491H   LINE      ---      ---       #1177
      00FF5493H   LINE      ---      ---       #1179
      00FF54A6H   LINE      ---      ---       #1180
      00FF54A8H   LINE      ---      ---       #1182
      00FF54B3H   LINE      ---      ---       #1183
      00FF54B5H   LINE      ---      ---       #1185
      00FF54BEH   LINE      ---      ---       #1204
      00FF54D2H   LINE      ---      ---       #1205
      00FF54E6H   LINE      ---      ---       #1206
      00FF54F4H   LINE      ---      ---       #1214
      R13         REGSYM    ---      BYTE      Pannum
      ---         BLOCKEND  CODE     ---       LVL=1
      00FF54F9H   LINE      ---      ---       #1215
      00FF54F9H   LINE      CODE     ---       #1215

      00FF9286H   BLOCK     CODE     ---       LVL=0
      00FF9286H   LINE      ---      ---       #1218
      00FF928AH   LINE      ---      ---       #1220
      00FF92A5H   LINE      ---      ---       #1223
      00FF92B2H   LINE      ---      ---       #1226
      00FF92BAH   LINE      ---      ---       #1228
      00FF92C2H   LINE      ---      ---       #1230
      00FF92CCH   LINE      ---      ---       #1231
      REG=7       REGSYM    ---      ---       pCmdAddress
      ---         BLOCKEND  ---      ---       LVL=0

      00FF92CFH   BLOCK     CODE     ---       LVL=0
      00FF92CFH   LINE      ---      ---       #1233
      00FF92D3H   LINE      ---      ---       #1235
      00FF92EEH   LINE      ---      ---       #1238
      00FF92FBH   LINE      ---      ---       #1240
      00FF9305H   LINE      ---      ---       #1241
      REG=7       REGSYM    ---      ---       pCmdAddress
      ---         BLOCKEND  ---      ---       LVL=0
L251 LINKER/LOCATER V4.66.93.0                                                        04/08/2024  14:48:14  PAGE 91



      00FF9308H   BLOCK     CODE     ---       LVL=0
      00FF9308H   LINE      ---      ---       #1243
      00FF9308H   LINE      ---      ---       #1245
      00FF9310H   LINE      ---      ---       #1246
      REG=3       REGSYM    ---      ---       pCmdAddress
      ---         BLOCKEND  ---      ---       LVL=0

      00FF35B5H   BLOCK     CODE     ---       LVL=0
      00FF35B5H   LINE      ---      ---       #1249
      00FF35B9H   LINE      ---      ---       #1250
      REG=7       REGSYM    ---      ---       pCmdAddress
      00FF35B9H   BLOCK     CODE     NEAR LAB  LVL=1
      00FF35B9H   LINE      ---      ---       #1255
      00FF35BBH   LINE      ---      ---       #1257
      00FF35C5H   LINE      ---      ---       #1262
      00FF35CAH   LINE      ---      ---       #1263
      00FF35D4H   LINE      ---      ---       #1265
      R6          REGSYM    ---      BYTE      Pannum
      ---         BLOCKEND  CODE     ---       LVL=1
      00FF35DEH   LINE      ---      ---       #1269
      00FF35DEH   LINE      CODE     ---       #1269

      00FF5392H   BLOCK     CODE     ---       LVL=0
      00FF5392H   LINE      ---      ---       #1273
      00FF5392H   LINE      ---      ---       #1275
      00FF5399H   LINE      ---      ---       #1277
      REG=3       REGSYM    ---      ---       pCmdAddress
      ---         BLOCKEND  ---      ---       LVL=0

      00FF53A3H   BLOCK     CODE     ---       LVL=0
      00FF53A3H   LINE      ---      ---       #1280
      00FF53ABH   LINE      ---      ---       #1281
      REG=6       REGSYM    ---      ---       pCmdAddress
      R14         REGSYM    ---      BYTE      cmdSubheader
      R15         REGSYM    ---      BYTE      type
      00FF53ABH   BLOCK     CODE     NEAR LAB  LVL=1
      00FF53ABH   LINE      ---      ---       #1282
      00FF53B0H   LINE      ---      ---       #1285
      00FF53B8H   LINE      ---      ---       #1287
      00FF53E7H   LINE      ---      ---       #1289
      00FF53E7H   LINE      ---      ---       #1290
      00FF53EDH   LINE      ---      ---       #1291
      00FF53EFH   LINE      ---      ---       #1293
      00FF53EFH   LINE      ---      ---       #1294
      00FF53EFH   LINE      ---      ---       #1295
      00FF53EFH   LINE      ---      ---       #1296
      00FF53EFH   LINE      ---      ---       #1298
      00FF53FCH   LINE      ---      ---       #1299
      00FF53FFH   LINE      ---      ---       #1301
      00FF540AH   LINE      ---      ---       #1303
      00FF540AH   LINE      ---      ---       #1304
      00FF540CH   LINE      ---      ---       #1308
      00FF5415H   LINE      ---      ---       #1309
      00FF5415H   LINE      ---      ---       #1310
      00FF5417H   LINE      ---      ---       #1312
      00FF5417H   LINE      ---      ---       #1313
      00FF5417H   LINE      ---      ---       #1314
      00FF5417H   LINE      ---      ---       #1315
      00FF5417H   LINE      ---      ---       #1316
      00FF5421H   LINE      ---      ---       #1317
      00FF5423H   LINE      ---      ---       #1319
      00FF5423H   LINE      ---      ---       #1320
      00FF542EH   LINE      ---      ---       #1322
      00FF5430H   LINE      ---      ---       #1323
L251 LINKER/LOCATER V4.66.93.0                                                        04/08/2024  14:48:14  PAGE 92


      00FF5430H   LINE      ---      ---       #1324
      00FF5432H   LINE      ---      ---       #1326
      00FF5432H   LINE      ---      ---       #1327
      00FF5438H   LINE      ---      ---       #1328
      00FF5438H   LINE      ---      ---       #1329
      00FF5438H   LINE      ---      ---       #1331
      0000B655H   SYMBOL    EDATA    BYTE      cmdCnfStatus
      0000B656H   SYMBOL    EDATA    BYTE      listidx
      ---         BLOCKEND  CODE     ---       LVL=1
      00FF5443H   LINE      ---      ---       #1332
      00FF5443H   LINE      CODE     ---       #1332

      00FF52A1H   BLOCK     CODE     ---       LVL=0
      00FF52A1H   LINE      ---      ---       #1349
      00FF52A5H   LINE      ---      ---       #1351
      00FF52A8H   LINE      ---      ---       #1353
      00FF52C3H   LINE      ---      ---       #1354
      00FF52C7H   LINE      ---      ---       #1356
      00FF52CEH   LINE      ---      ---       #1357
      00FF52D0H   LINE      ---      ---       #1359
      00FF52DBH   LINE      ---      ---       #1360
      00FF52E9H   LINE      ---      ---       #1362
      00FF52F3H   LINE      ---      ---       #1364
      00FF52F9H   LINE      ---      ---       #1365
      00FF530AH   LINE      ---      ---       #1367
      00FF530DH   LINE      ---      ---       #1369
      REG=7       REGSYM    ---      ---       pCmdAddress
      ---         BLOCKEND  ---      ---       LVL=0

      00FF47F1H   BLOCK     CODE     ---       LVL=0
      00FF47F1H   LINE      ---      ---       #1371
      00FF47F1H   LINE      ---      ---       #1373
      00FF47F1H   LINE      ---      ---       #1374
      00FF47FAH   LINE      ---      ---       #1376
      ---         BLOCKEND  ---      ---       LVL=0

      00FF931AH   BLOCK     CODE     ---       LVL=0
      00FF931AH   LINE      ---      ---       #1379
      00FF931AH   LINE      ---      ---       #1381
      00FF931AH   LINE      ---      ---       #1382
      00FF9324H   LINE      ---      ---       #1384
      ---         BLOCKEND  ---      ---       LVL=0

      00FF9327H   BLOCK     CODE     ---       LVL=0
      00FF9327H   LINE      ---      ---       #1388
      00FF932BH   LINE      ---      ---       #1390
      00FF9346H   LINE      ---      ---       #1391
      00FF934AH   LINE      ---      ---       #1393
      00FF9355H   LINE      ---      ---       #1394
      00FF935FH   LINE      ---      ---       #1396
      REG=7       REGSYM    ---      ---       pCmdAddress
      ---         BLOCKEND  ---      ---       LVL=0

      00FF4B29H   BLOCK     CODE     ---       LVL=0
      00FF4B29H   LINE      ---      ---       #1401
      00FF4B2DH   LINE      ---      ---       #1402
      REG=7       REGSYM    ---      ---       pCmdAddress
      00FF4B2DH   BLOCK     CODE     NEAR LAB  LVL=1
      00FF4B2DH   LINE      ---      ---       #1415
      00FF4B30H   LINE      ---      ---       #1419
      00FF4B32H   LINE      ---      ---       #1420
      00FF4B3AH   LINE      ---      ---       #1423
      00FF4B40H   LINE      ---      ---       #1425
      00FF4B58H   LINE      ---      ---       #1432
      REG=3       REGSYM    ---      ---       pCmdIn
L251 LINKER/LOCATER V4.66.93.0                                                        04/08/2024  14:48:14  PAGE 93


      R15         REGSYM    ---      BYTE      rfkBandType
      ---         BLOCKEND  CODE     ---       LVL=1
      00FF4B62H   LINE      ---      ---       #1433
      00FF4B62H   LINE      CODE     ---       #1433

      00FF9362H   BLOCK     CODE     ---       LVL=0
      00FF9362H   LINE      ---      ---       #1435
      00FF9366H   LINE      ---      ---       #1441
      00FF9369H   LINE      ---      ---       #1448
      00FF936DH   LINE      ---      ---       #1450
      00FF9374H   LINE      ---      ---       #1451
      00FF937AH   LINE      ---      ---       #1454
      00FF9386H   LINE      ---      ---       #1455
      00FF9398H   LINE      ---      ---       #1458
      00FF939DH   LINE      ---      ---       #1459
      REG=7       REGSYM    ---      ---       pCmdAddress
      ---         BLOCKEND  ---      ---       LVL=0

      00FF4C70H   BLOCK     CODE     ---       LVL=0
      00FF4C70H   LINE      ---      ---       #1460
      REG=7       REGSYM    ---      ---       pCmdAddress
      00FF4C74H   BLOCK     CODE     NEAR LAB  LVL=1
      00FF4C77H   LINE      ---      ---       #1476
      00FF4C7BH   LINE      ---      ---       #1478
      00FF4C7EH   LINE      ---      ---       #1495
      00FF4C80H   LINE      ---      ---       #1496
      00FF4C8AH   LINE      ---      ---       #1497
      00FF4C8DH   LINE      ---      ---       #1498
      00FF4C99H   LINE      ---      ---       #1500
      00FF4C9CH   LINE      ---      ---       #1501
      00FF4CA0H   LINE      ---      ---       #1502
      00FF4CA3H   LINE      ---      ---       #1503
      00FF4CA9H   LINE      ---      ---       #1505
      00FF4CB1H   LINE      ---      ---       #1508
      R11         REGSYM    ---      BYTE      crcType
      R11         REGSYM    ---      BYTE      whiteningEn
      R13         REGSYM    ---      BYTE      result
      ---         BLOCKEND  CODE     ---       LVL=1
      00FF4CBBH   LINE      ---      ---       #1509
      00FF4CBBH   LINE      CODE     ---       #1509

      00FF8DFAH   BLOCK     CODE     ---       LVL=0
      00FF8DFAH   LINE      ---      ---       #1561
      00FF8DFAH   LINE      ---      ---       #1572
      00FF8DFDH   LINE      ---      ---       #1581
      00FF8E13H   LINE      ---      ---       #1588
      ---         BLOCKEND  ---      ---       LVL=0

      00FF8E1DH   BLOCK     CODE     ---       LVL=0
      00FF8E1DH   LINE      ---      ---       #1591
      00FF8E23H   LINE      ---      ---       #1592
      REG=7       REGSYM    ---      ---       pCmdAddress
      00FF8E23H   BLOCK     CODE     NEAR LAB  LVL=1
      00FF8E23H   LINE      ---      ---       #1599
      00FF8E26H   LINE      ---      ---       #1606
      00FF8E26H   LINE      ---      ---       #1608
      00FF8E2FH   LINE      ---      ---       #1610
      00FF8E3BH   LINE      ---      ---       #1611
      00FF8E45H   LINE      ---      ---       #1613
      00FF8E53H   LINE      ---      ---       #1614
      00FF8E67H   LINE      ---      ---       #1615
      00FF8E7AH   LINE      ---      ---       #1620
      00FF8E7CH   LINE      ---      ---       #1623
      00FF8E80H   LINE      ---      ---       #1625
      00FF8E86H   LINE      ---      ---       #1627
L251 LINKER/LOCATER V4.66.93.0                                                        04/08/2024  14:48:14  PAGE 94


      00FF8E8FH   LINE      ---      ---       #1628
      00FF8E96H   LINE      ---      ---       #1630
      00FF8E9EH   LINE      ---      ---       #1631
      00FF8E9EH   LINE      ---      ---       #1633
      00FF8EA8H   LINE      ---      ---       #1635
      00FF8EB4H   LINE      ---      ---       #1636
      00FF8EC6H   LINE      ---      ---       #1641
      00FF8EC6H   LINE      ---      ---       #1643
      REG=7       REGSYM    ---      ---       pCmdIn
      ---         BLOCKEND  CODE     ---       LVL=1
      00FF8ECBH   LINE      ---      ---       #1644
      00FF8ECBH   LINE      CODE     ---       #1644

      00FF4D3DH   BLOCK     CODE     ---       LVL=0
      00FF4D3DH   LINE      ---      ---       #1646
      00FF4D41H   LINE      ---      ---       #1647
      REG=7       REGSYM    ---      ---       pCmdAddress
      00FF4D41H   BLOCK     CODE     NEAR LAB  LVL=1
      00FF4D41H   LINE      ---      ---       #1654
      00FF4D44H   LINE      ---      ---       #1658
      00FF4D5FH   LINE      ---      ---       #1661
      00FF4D5FH   LINE      ---      ---       #1664
      00FF4D65H   LINE      ---      ---       #1665
      00FF4D69H   LINE      ---      ---       #1667
      00FF4D73H   LINE      ---      ---       #1669
      00FF4D81H   LINE      ---      ---       #1670
      00FF4D9BH   LINE      ---      ---       #1671
      00FF4DB5H   LINE      ---      ---       #1679
      REG=7       REGSYM    ---      ---       pCmdIn
      ---         BLOCKEND  CODE     ---       LVL=1
      00FF4DBFH   LINE      ---      ---       #1680
      00FF4DBFH   LINE      CODE     ---       #1680

      00FF8FE6H   BLOCK     CODE     ---       LVL=0
      00FF8FE6H   LINE      ---      ---       #1683
      00FF8FEAH   LINE      ---      ---       #1684
      REG=7       REGSYM    ---      ---       pCmdAddress
      00FF8FEAH   BLOCK     CODE     NEAR LAB  LVL=1
      00FF8FEAH   LINE      ---      ---       #1687
      00FF8FF0H   LINE      ---      ---       #1688
      00FF8FF8H   LINE      ---      ---       #1689
      00FF8FFBH   LINE      ---      ---       #1690
      00FF8FFBH   LINE      ---      ---       #1692
      00FF9016H   LINE      ---      ---       #1694
      00FF9018H   LINE      ---      ---       #1696
      00FF9020H   LINE      ---      ---       #1697
      00FF9028H   LINE      ---      ---       #1698
      00FF9030H   LINE      ---      ---       #1699
      00FF9038H   LINE      ---      ---       #1700
      00FF9040H   LINE      ---      ---       #1701
      00FF9048H   LINE      ---      ---       #1702
      00FF9050H   LINE      ---      ---       #1703
      00FF9058H   LINE      ---      ---       #1704
      00FF9064H   LINE      ---      ---       #1705
      00FF9070H   LINE      ---      ---       #1706
      00FF907DH   LINE      ---      ---       #1708
      REG=3       REGSYM    ---      ---       p_para
      ---         BLOCKEND  CODE     ---       LVL=1
      00FF9087H   LINE      ---      ---       #1709
      00FF9087H   LINE      CODE     ---       #1709

      00FF908AH   BLOCK     CODE     ---       LVL=0
      00FF908AH   LINE      ---      ---       #1711
      00FF908AH   LINE      ---      ---       #1712
      REG=3       REGSYM    ---      ---       pCmdAddress
L251 LINKER/LOCATER V4.66.93.0                                                        04/08/2024  14:48:14  PAGE 95


      00FF908AH   BLOCK     CODE     NEAR LAB  LVL=1
      00FF908AH   LINE      ---      ---       #1713
      00FF908CH   LINE      ---      ---       #1716
      00FF9092H   LINE      ---      ---       #1717
      00FF909AH   LINE      ---      ---       #1718
      00FF909CH   LINE      ---      ---       #1719
      00FF909CH   LINE      ---      ---       #1724
      00FF90AEH   LINE      ---      ---       #1727
      REG=2       REGSYM    ---      ---       para
      R6          REGSYM    ---      BYTE      result
      ---         BLOCKEND  CODE     ---       LVL=1
      ---         BLOCKEND  CODE     ---       LVL=0

      00FF910EH   BLOCK     CODE     ---       LVL=0
      00FF910EH   LINE      ---      ---       #1730
      00FF910EH   LINE      ---      ---       #1731
      REG=3       REGSYM    ---      ---       pCmdAddress
      00FF910EH   BLOCK     CODE     NEAR LAB  LVL=1
      00FF910EH   LINE      ---      ---       #1732
      00FF9110H   LINE      ---      ---       #1734
      00FF9116H   LINE      ---      ---       #1735
      00FF911EH   LINE      ---      ---       #1736
      00FF9120H   LINE      ---      ---       #1737
      00FF9120H   LINE      ---      ---       #1739
      00FF9128H   LINE      ---      ---       #1741
      00FF912AH   LINE      ---      ---       #1745
      00FF9134H   LINE      ---      ---       #1747
      00FF9134H   LINE      ---      ---       #1749
      REG=2       REGSYM    ---      ---       para
      ---         BLOCKEND  CODE     ---       LVL=1
      ---         BLOCKEND  CODE     ---       LVL=0

      00FF915FH   BLOCK     CODE     ---       LVL=0
      00FF915FH   LINE      ---      ---       #1752
      00FF915FH   LINE      ---      ---       #1754
      00FF915FH   LINE      ---      ---       #1756
      00FF9165H   LINE      ---      ---       #1757
      00FF916DH   LINE      ---      ---       #1758
      00FF916FH   LINE      ---      ---       #1759
      00FF916FH   LINE      ---      ---       #1761
      00FF9175H   LINE      ---      ---       #1762
      00FF917AH   LINE      ---      ---       #1764
      ---         BLOCKEND  ---      ---       LVL=0

      00FF9184H   BLOCK     CODE     ---       LVL=0
      00FF9184H   LINE      ---      ---       #1767
      00FF9184H   LINE      ---      ---       #1769
      00FF9184H   LINE      ---      ---       #1771
      00FF918AH   LINE      ---      ---       #1772
      00FF9195H   LINE      ---      ---       #1773
      00FF9195H   LINE      ---      ---       #1774
      00FF9195H   LINE      ---      ---       #1776
      00FF9197H   LINE      ---      ---       #1777
      00FF919DH   LINE      ---      ---       #1778
      ---         BLOCKEND  ---      ---       LVL=0

      00FF91B2H   BLOCK     CODE     ---       LVL=0
      00FF91B2H   LINE      ---      ---       #1781
      00FF91B2H   LINE      ---      ---       #1783
      00FF91B2H   LINE      ---      ---       #1785
      00FF91C0H   LINE      ---      ---       #1786
      00FF91CBH   LINE      ---      ---       #1787
      00FF91CBH   LINE      ---      ---       #1788
      00FF91CBH   LINE      ---      ---       #1793
      ---         BLOCKEND  ---      ---       LVL=0
L251 LINKER/LOCATER V4.66.93.0                                                        04/08/2024  14:48:14  PAGE 96



      00FF91D0H   BLOCK     CODE     ---       LVL=0
      00FF91D0H   LINE      ---      ---       #1797
      00FF91D2H   LINE      ---      ---       #1798
      REG=3       REGSYM    ---      ---       pCmdAddress
      00FF91D2H   BLOCK     CODE     NEAR LAB  LVL=1
      00FF91D2H   LINE      ---      ---       #1799
      00FF91D4H   LINE      ---      ---       #1800
      00FF91DDH   LINE      ---      ---       #1802
      00FF91E5H   LINE      ---      ---       #1803
      00FF91E7H   LINE      ---      ---       #1804
      00FF91E7H   LINE      ---      ---       #1809
      00FF91EAH   LINE      ---      ---       #1815
      00FF9206H   LINE      ---      ---       #1817
      REG=7       REGSYM    ---      ---       para
      ---         BLOCKEND  CODE     ---       LVL=1
      00FF9210H   LINE      ---      ---       #1819
      00FF9210H   LINE      CODE     ---       #1819

      00FF422EH   BLOCK     CODE     ---       LVL=0
      00FF422EH   LINE      ---      ---       #1821
      00FF4230H   LINE      ---      ---       #1822
      REG=3       REGSYM    ---      ---       pCmdAddress
      00FF4230H   BLOCK     CODE     NEAR LAB  LVL=1
      00FF4230H   LINE      ---      ---       #1823
      00FF4232H   LINE      ---      ---       #1825
      00FF423BH   LINE      ---      ---       #1826
      00FF4245H   LINE      ---      ---       #1827
      00FF4247H   LINE      ---      ---       #1828
      00FF4247H   LINE      ---      ---       #1830
      00FF4250H   LINE      ---      ---       #1832
      00FF4261H   LINE      ---      ---       #1834
      00FF4261H   LINE      ---      ---       #1835
      00FF4263H   LINE      ---      ---       #1836
      00FF4265H   LINE      ---      ---       #1837
      00FF4265H   LINE      ---      ---       #1838
      00FF4267H   LINE      ---      ---       #1839
      00FF4269H   LINE      ---      ---       #1840
      00FF4269H   LINE      ---      ---       #1841
      00FF426BH   LINE      ---      ---       #1842
      00FF426DH   LINE      ---      ---       #1843
      00FF426DH   LINE      ---      ---       #1844
      00FF426FH   LINE      ---      ---       #1845
      00FF426FH   LINE      ---      ---       #1846
      REG=7       REGSYM    ---      ---       para
      ---         BLOCKEND  CODE     ---       LVL=1
      00FF426FH   LINE      ---      ---       #1848
      00FF426FH   LINE      CODE     ---       #1848

      00FF4AEFH   BLOCK     CODE     ---       LVL=0
      00FF4AEFH   LINE      ---      ---       #1855
      00FF4AF3H   LINE      ---      ---       #1856
      REG=7       REGSYM    ---      ---       pCmdAddress
      00FF4AF3H   BLOCK     CODE     NEAR LAB  LVL=1
      00FF4AF3H   LINE      ---      ---       #1868
      00FF4AF6H   LINE      ---      ---       #1875
      00FF4AFAH   LINE      ---      ---       #1877
      00FF4AFFH   LINE      ---      ---       #1880
      00FF4B02H   LINE      ---      ---       #1881
      00FF4B02H   LINE      ---      ---       #1884
      00FF4B06H   LINE      ---      ---       #1886
      00FF4B1CH   LINE      ---      ---       #1892
      R15         REGSYM    ---      BYTE      rfkBandType
      ---         BLOCKEND  CODE     ---       LVL=1
      00FF4B26H   LINE      ---      ---       #1893
L251 LINKER/LOCATER V4.66.93.0                                                        04/08/2024  14:48:14  PAGE 97


      00FF4B26H   LINE      CODE     ---       #1893

      00FF8DB8H   BLOCK     CODE     ---       LVL=0
      00FF8DB8H   LINE      ---      ---       #1895
      00FF8DBCH   LINE      ---      ---       #1896
      REG=7       REGSYM    ---      ---       pCmdAddress
      00FF8DBCH   BLOCK     CODE     NEAR LAB  LVL=1
      00FF8DBCH   LINE      ---      ---       #1903
      00FF8DBFH   LINE      ---      ---       #1910
      00FF8DC3H   LINE      ---      ---       #1912
      00FF8DCAH   LINE      ---      ---       #1913
      00FF8DD0H   LINE      ---      ---       #1914
      00FF8DD4H   LINE      ---      ---       #1915
      00FF8DE0H   LINE      ---      ---       #1916
      00FF8DF2H   LINE      ---      ---       #1918
      R15         REGSYM    ---      BYTE      modIdx
      ---         BLOCKEND  CODE     ---       LVL=1
      00FF8DF7H   LINE      ---      ---       #1919
      00FF8DF7H   LINE      CODE     ---       #1919

      00FF4C17H   BLOCK     CODE     ---       LVL=0
      00FF4C17H   LINE      ---      ---       #1921
      REG=7       REGSYM    ---      ---       pCmdAddress
      00FF4C1BH   BLOCK     CODE     NEAR LAB  LVL=1
      00FF4C1EH   LINE      ---      ---       #1937
      00FF4C22H   LINE      ---      ---       #1939
      00FF4C25H   LINE      ---      ---       #1940
      00FF4C27H   LINE      ---      ---       #1941
      00FF4C31H   LINE      ---      ---       #1942
      00FF4C34H   LINE      ---      ---       #1943
      00FF4C40H   LINE      ---      ---       #1945
      00FF4C43H   LINE      ---      ---       #1947
      00FF4C47H   LINE      ---      ---       #1948
      00FF4C4AH   LINE      ---      ---       #1949
      00FF4C50H   LINE      ---      ---       #1951
      00FF4C58H   LINE      ---      ---       #1957
      R11         REGSYM    ---      BYTE      crcType
      R11         REGSYM    ---      BYTE      whiteningEn
      R13         REGSYM    ---      BYTE      result
      ---         BLOCKEND  CODE     ---       LVL=1
      00FF4C62H   LINE      ---      ---       #1958
      00FF4C62H   LINE      CODE     ---       #1958

      00FF4ABBH   BLOCK     CODE     ---       LVL=0
      00FF4ABBH   LINE      ---      ---       #1960
      00FF4ABFH   LINE      ---      ---       #1961
      REG=7       REGSYM    ---      ---       pCmdAddress
      00FF4ABFH   BLOCK     CODE     NEAR LAB  LVL=1
      00FF4ABFH   LINE      ---      ---       #1968
      00FF4AC2H   LINE      ---      ---       #1975
      00FF4AC6H   LINE      ---      ---       #1977
      00FF4AC9H   LINE      ---      ---       #1978
      00FF4ACBH   LINE      ---      ---       #1984
      R11         REGSYM    ---      BYTE      preambleLen
      ---         BLOCKEND  CODE     ---       LVL=1
      00FF4AD5H   LINE      ---      ---       #1985
      00FF4AD5H   LINE      CODE     ---       #1985

      00FF3787H   BLOCK     CODE     ---       LVL=0
      00FF3787H   LINE      ---      ---       #1987
      00FF378BH   LINE      ---      ---       #1988
      REG=7       REGSYM    ---      ---       pCmdAddress
      00FF378BH   BLOCK     CODE     NEAR LAB  LVL=1
      00FF378BH   LINE      ---      ---       #1995
      00FF378EH   LINE      ---      ---       #1999
L251 LINKER/LOCATER V4.66.93.0                                                        04/08/2024  14:48:14  PAGE 98


      00FF37A9H   LINE      ---      ---       #2000
      00FF37ADH   LINE      ---      ---       #2002
      00FF37B6H   LINE      ---      ---       #2003
      00FF37BFH   LINE      ---      ---       #2004
      00FF37C7H   LINE      ---      ---       #2010
      DR12        REGSYM    ---      DWORD     sfdContent
      ---         BLOCKEND  CODE     ---       LVL=1
      00FF37D1H   LINE      ---      ---       #2011
      00FF37D1H   LINE      CODE     ---       #2011

      00FF4A92H   BLOCK     CODE     ---       LVL=0
      00FF4A92H   LINE      ---      ---       #2013
      00FF4A92H   LINE      ---      ---       #2014
      REG=3       REGSYM    ---      ---       pCmdAddress
      00FF4A92H   BLOCK     CODE     NEAR LAB  LVL=1
      00FF4A92H   LINE      ---      ---       #2023
      00FF4A92H   LINE      ---      ---       #2025
      00FF4A9AH   LINE      ---      ---       #2031
      REG=3       REGSYM    ---      ---       pCmdIn
      ---         BLOCKEND  CODE     ---       LVL=1
      ---         BLOCKEND  CODE     ---       LVL=0

      00FF880BH   BLOCK     CODE     ---       LVL=0
      00FF880BH   LINE      ---      ---       #2120
      00FF880FH   LINE      ---      ---       #2121
      REG=7       REGSYM    ---      ---       pCmdAddress
      00FF880FH   BLOCK     CODE     NEAR LAB  LVL=1
      00FF880FH   LINE      ---      ---       #2132
      00FF881CH   LINE      ---      ---       #2142
      00FF881FH   LINE      ---      ---       #2147
      00FF883AH   LINE      ---      ---       #2150
      00FF883CH   LINE      ---      ---       #2151
      00FF8844H   LINE      ---      ---       #2154
      00FF884AH   LINE      ---      ---       #2155
      00FF8857H   LINE      ---      ---       #2158
      00FF8857H   LINE      ---      ---       #2159
      00FF8867H   LINE      ---      ---       #2161
      00FF8867H   LINE      ---      ---       #2162
      00FF8867H   LINE      ---      ---       #2164
      00FF886DH   LINE      ---      ---       #2166
      00FF887DH   LINE      ---      ---       #2168
      00FF887FH   LINE      ---      ---       #2169
      00FF8881H   LINE      ---      ---       #2172
      00FF8886H   LINE      ---      ---       #2173
      00FF8886H   LINE      ---      ---       #2174
      00FF8886H   LINE      ---      ---       #2177
      00FF8892H   LINE      ---      ---       #2179
      00FF8894H   LINE      ---      ---       #2182
      00FF8894H   LINE      ---      ---       #2183
      00FF88ACH   LINE      ---      ---       #2185
      00FF88ACH   LINE      ---      ---       #2186
      00FF88ACH   LINE      ---      ---       #2188
      00FF88B4H   LINE      ---      ---       #2190
      00FF88B4H   LINE      ---      ---       #2192
      00FF88B4H   LINE      ---      ---       #2193
      00FF88B4H   LINE      ---      ---       #2195
      00FF88B4H   LINE      ---      ---       #2196
      00FF88B9H   LINE      ---      ---       #2198
      00FF88BDH   LINE      ---      ---       #2199
      00FF88C1H   LINE      ---      ---       #2201
      00FF88C8H   LINE      ---      ---       #2203
      00FF88DDH   LINE      ---      ---       #2205
      00FF88FFH   LINE      ---      ---       #2206
      00FF890AH   LINE      ---      ---       #2207
      00FF890AH   LINE      ---      ---       #2213
L251 LINKER/LOCATER V4.66.93.0                                                        04/08/2024  14:48:14  PAGE 99


      00FF890AH   LINE      ---      ---       #2214
      00FF890AH   SYMBOL    CODE     NEAR LAB  DONE?5441?mac_cmd_hdlr
      REG=3       REGSYM    ---      ---       pCmdIn
      DR12        REGSYM    ---      DWORD     freqTmp
      0000B610H   SYMBOL    EDATA    BYTE      result
      0000B611H   SYMBOL    EDATA    WORD      bufferAddress_LOCAL
      REG=3       REGSYM    ---      ---       pOutput
      0000B613H   SYMBOL    EDATA    BYTE      channelTmp
      00FF8926H   SYMBOL    CODE     NEAR LAB  DONE?5441
      ---         BLOCKEND  CODE     ---       LVL=1
      00FF8916H   LINE      ---      ---       #2215
      00FF8916H   LINE      CODE     ---       #2215

      00FF8919H   BLOCK     CODE     ---       LVL=0
      00FF8919H   LINE      ---      ---       #2219
      00FF891DH   LINE      ---      ---       #2224
      00FF8920H   LINE      ---      ---       #2227
      00FF893BH   LINE      ---      ---       #2228
      00FF893FH   LINE      ---      ---       #2230
      00FF894AH   LINE      ---      ---       #2237
      00FF8950H   LINE      ---      ---       #2238
      00FF8958H   LINE      ---      ---       #2240
      00FF8960H   LINE      ---      ---       #2241
      REG=7       REGSYM    ---      ---       pCmdAddress
      ---         BLOCKEND  ---      ---       LVL=0

      00FF8963H   BLOCK     CODE     ---       LVL=0
      00FF8963H   LINE      ---      ---       #2245
      00FF8967H   LINE      ---      ---       #2250
      00FF896BH   LINE      ---      ---       #2253
      00FF897BH   LINE      ---      ---       #2254
      00FF8980H   LINE      ---      ---       #2257
      00FF8987H   LINE      ---      ---       #2258
      00FF898DH   LINE      ---      ---       #2262
      00FF8996H   LINE      ---      ---       #2263
      00FF899EH   LINE      ---      ---       #2264
      REG=7       REGSYM    ---      ---       pCmdAddress
      ---         BLOCKEND  ---      ---       LVL=0

      00FF29B5H   BLOCK     CODE     ---       LVL=0
      00FF29B9H   LINE      ---      ---       #2283
      00FF29BDH   LINE      ---      ---       #2284
      00FF29B5H   SYMBOL    CODE     NEAR LAB  ?L?COM0055
      00FF29BDH   BLOCK     CODE     NEAR LAB  LVL=1
      00FF29BDH   LINE      ---      ---       #2288
      00FF29BDH   LINE      ---      ---       #2290
      00FF29BFH   LINE      ---      ---       #2291
      00FF29C5H   LINE      ---      ---       #2295
      00FF29C9H   LINE      ---      ---       #2298
      00FF29CBH   LINE      ---      ---       #2300
      00FF29DCH   LINE      ---      ---       #2302
      00FF29DCH   LINE      ---      ---       #2303
      00FF29DCH   LINE      ---      ---       #2305
      00FF29DCH   LINE      ---      ---       #2306
      00FF29DFH   LINE      ---      ---       #2307
      00FF29E2H   LINE      ---      ---       #2308
      00FF29E4H   LINE      ---      ---       #2311
      00FF29E4H   LINE      ---      ---       #2315
      00FF29E6H   LINE      ---      ---       #2318
      00FF29E9H   LINE      ---      ---       #2319
      00FF29F4H   LINE      ---      ---       #2320
      00FF29F7H   LINE      ---      ---       #2321
      00FF29FCH   LINE      ---      ---       #2322
      00FF2A01H   LINE      ---      ---       #2323
      00FF2A06H   LINE      ---      ---       #2324
L251 LINKER/LOCATER V4.66.93.0                                                        04/08/2024  14:48:14  PAGE 100


      00FF2A24H   LINE      ---      ---       #2326
      00FF2A27H   LINE      ---      ---       #2327
      00FF2A32H   LINE      ---      ---       #2328
      00FF2A32H   LINE      ---      ---       #2329
      00FF2A35H   LINE      ---      ---       #2340
      00FF2A37H   LINE      ---      ---       #2343
      00FF2A37H   LINE      ---      ---       #2344
      00FF2A3CH   LINE      ---      ---       #2345
      00FF2A3CH   LINE      ---      ---       #2346
      00FF2A40H   LINE      ---      ---       #2347
      00FF2A40H   LINE      ---      ---       #2388
      00FF2A40H   LINE      ---      ---       #2389
      00FF2A40H   LINE      ---      ---       #2390
      00FF2A40H   LINE      ---      ---       #2396
      00FF2A43H   LINE      ---      ---       #2402
      00FF2A45H   LINE      ---      ---       #2409
      00FF2A4AH   LINE      ---      ---       #2411
      00FF2A4CH   LINE      ---      ---       #2412
      00FF2A4EH   LINE      ---      ---       #2415
      00FF2A51H   LINE      ---      ---       #2416
      00FF2A56H   LINE      ---      ---       #2417
      00FF2A5AH   LINE      ---      ---       #2419
      00FF2A70H   LINE      ---      ---       #2424
      00FF2A73H   LINE      ---      ---       #2426
      00FF2A78H   LINE      ---      ---       #2427
      R10         REGSYM    ---      BYTE      MacState
      R13         REGSYM    ---      BYTE      queueClr
      WR14        REGSYM    ---      WORD      macFunEventQueue
      ---         BLOCKEND  CODE     ---       LVL=1
      00FF2A7CH   LINE      ---      ---       #2438
      00FF2A7CH   LINE      CODE     ---       #2438

      00FF564FH   BLOCK     CODE     ---       LVL=0
      00FF564FH   LINE      ---      ---       #2441
      00FF5651H   LINE      ---      ---       #2443
      00FF56BEH   LINE      ---      ---       #2445
      00FF56BEH   LINE      ---      ---       #2446
      00FF56C3H   LINE      ---      ---       #2447
      00FF56C3H   LINE      ---      ---       #2449
      00FF56C3H   LINE      ---      ---       #2450
      00FF56C8H   LINE      ---      ---       #2451
      00FF56C8H   LINE      ---      ---       #2453
      00FF56C8H   LINE      ---      ---       #2454
      00FF56CDH   LINE      ---      ---       #2455
      00FF56CDH   LINE      ---      ---       #2457
      00FF56CDH   LINE      ---      ---       #2458
      00FF56D2H   LINE      ---      ---       #2459
      00FF56D2H   LINE      ---      ---       #2462
      00FF56D2H   LINE      ---      ---       #2463
      00FF56D7H   LINE      ---      ---       #2464
      00FF56D7H   LINE      ---      ---       #2465
      00FF56D7H   LINE      ---      ---       #2466
      00FF56DCH   LINE      ---      ---       #2467
      00FF56DCH   LINE      ---      ---       #2468
      00FF56DCH   LINE      ---      ---       #2469
      00FF56E0H   LINE      ---      ---       #2470
      00FF56E0H   LINE      ---      ---       #2471
      00FF56E0H   LINE      ---      ---       #2472
      00FF56E5H   LINE      ---      ---       #2473
      00FF56E5H   LINE      ---      ---       #2474
      00FF56E5H   LINE      ---      ---       #2475
      00FF56EAH   LINE      ---      ---       #2476
      00FF56EAH   LINE      ---      ---       #2477
      00FF56EAH   LINE      ---      ---       #2478
      00FF56EEH   LINE      ---      ---       #2479
L251 LINKER/LOCATER V4.66.93.0                                                        04/08/2024  14:48:14  PAGE 101


      00FF56EEH   LINE      ---      ---       #2482
      00FF56EEH   LINE      ---      ---       #2483
      00FF56F3H   LINE      ---      ---       #2484
      00FF56F3H   LINE      ---      ---       #2485
      00FF56F3H   LINE      ---      ---       #2486
      00FF56F8H   LINE      ---      ---       #2487
      00FF56F8H   LINE      ---      ---       #2488
      00FF56F8H   LINE      ---      ---       #2489
      00FF56F8H   LINE      ---      ---       #2490
      00FF56FAH   LINE      ---      ---       #2492
      00FF56FAH   LINE      ---      ---       #2493
      00FF56FEH   LINE      ---      ---       #2494
      00FF56FEH   LINE      ---      ---       #2495
      00FF56FEH   LINE      ---      ---       #2496
      00FF5703H   LINE      ---      ---       #2497
      00FF5703H   LINE      ---      ---       #2499
      00FF5703H   LINE      ---      ---       #2500
      00FF5708H   LINE      ---      ---       #2501
      00FF5708H   LINE      ---      ---       #2502
      00FF5708H   LINE      ---      ---       #2503
      00FF570CH   LINE      ---      ---       #2504
      00FF570CH   LINE      ---      ---       #2505
      00FF570CH   LINE      ---      ---       #2506
      00FF5711H   LINE      ---      ---       #2507
      00FF5711H   LINE      ---      ---       #2510
      00FF5711H   LINE      ---      ---       #2511
      00FF5716H   LINE      ---      ---       #2512
      00FF5716H   LINE      ---      ---       #2514
      00FF5716H   LINE      ---      ---       #2515
      00FF571BH   LINE      ---      ---       #2516
      00FF571BH   LINE      ---      ---       #2517
      00FF571BH   LINE      ---      ---       #2518
      00FF5720H   LINE      ---      ---       #2519
      00FF5720H   LINE      ---      ---       #2520
      00FF5720H   LINE      ---      ---       #2521
      R11         REGSYM    ---      BYTE      cmdId
      REG=4       REGSYM    ---      ---       pCmdAddress
      REG=2       REGSYM    ---      ---       pCmdCnfStatus
      ---         BLOCKEND  ---      ---       LVL=0

      00FF5310H   BLOCK     CODE     ---       LVL=0
      00FF5310H   LINE      ---      ---       #2524
      00FF5312H   LINE      ---      ---       #2526
      00FF5347H   LINE      ---      ---       #2528
      00FF5347H   LINE      ---      ---       #2529
      00FF534CH   LINE      ---      ---       #2530
      00FF534CH   LINE      ---      ---       #2531
      00FF534CH   LINE      ---      ---       #2532
      00FF5350H   LINE      ---      ---       #2533
      00FF5350H   LINE      ---      ---       #2534
      00FF5350H   LINE      ---      ---       #2535
      00FF5355H   LINE      ---      ---       #2536
      00FF5355H   LINE      ---      ---       #2537
      00FF5355H   LINE      ---      ---       #2538
      00FF535AH   LINE      ---      ---       #2539
      00FF535AH   LINE      ---      ---       #2540
      00FF535AH   LINE      ---      ---       #2541
      00FF535FH   LINE      ---      ---       #2542
      00FF535FH   LINE      ---      ---       #2543
      00FF535FH   LINE      ---      ---       #2544
      00FF5364H   LINE      ---      ---       #2545
      00FF5364H   LINE      ---      ---       #2547
      00FF5364H   LINE      ---      ---       #2548
      00FF5368H   LINE      ---      ---       #2549
      00FF5368H   LINE      ---      ---       #2550
L251 LINKER/LOCATER V4.66.93.0                                                        04/08/2024  14:48:14  PAGE 102


      00FF5368H   LINE      ---      ---       #2551
      00FF536EH   LINE      ---      ---       #2552
      00FF5370H   LINE      ---      ---       #2553
      00FF5370H   LINE      ---      ---       #2554
      00FF5379H   LINE      ---      ---       #2555
      00FF5379H   LINE      ---      ---       #2559
      00FF5379H   LINE      ---      ---       #2560
      00FF537DH   LINE      ---      ---       #2561
      00FF537DH   LINE      ---      ---       #2562
      00FF537DH   LINE      ---      ---       #2563
      00FF5382H   LINE      ---      ---       #2564
      00FF5382H   LINE      ---      ---       #2565
      00FF5382H   LINE      ---      ---       #2566
      00FF5387H   LINE      ---      ---       #2567
      00FF5387H   LINE      ---      ---       #2568
      00FF5387H   LINE      ---      ---       #2569
      00FF538CH   LINE      ---      ---       #2570
      00FF538CH   LINE      ---      ---       #2573
      00FF538CH   LINE      ---      ---       #2574
      00FF5391H   LINE      ---      ---       #2575
      00FF5391H   LINE      ---      ---       #2576
      00FF5391H   LINE      ---      ---       #2577
      R11         REGSYM    ---      BYTE      cmdId
      REG=4       REGSYM    ---      ---       pCmdAddress
      REG=2       REGSYM    ---      ---       pCmdCnfStatus
      ---         BLOCKEND  ---      ---       LVL=0

      00FF4DC2H   BLOCK     CODE     ---       LVL=0
      00FF4DC2H   LINE      ---      ---       #2581
      00FF4DC4H   LINE      ---      ---       #2583
      00FF4DF3H   LINE      ---      ---       #2585
      00FF4DF3H   LINE      ---      ---       #2586
      00FF4DF8H   LINE      ---      ---       #2587
      00FF4DF8H   LINE      ---      ---       #2588
      00FF4DF8H   LINE      ---      ---       #2589
      00FF4DFDH   LINE      ---      ---       #2590
      00FF4DFDH   LINE      ---      ---       #2591
      00FF4DFDH   LINE      ---      ---       #2592
      00FF4E01H   LINE      ---      ---       #2593
      00FF4E01H   LINE      ---      ---       #2629
      00FF4E01H   LINE      ---      ---       #2630
      00FF4E06H   LINE      ---      ---       #2631
      00FF4E06H   LINE      ---      ---       #2633
      00FF4E06H   LINE      ---      ---       #2634
      00FF4E0BH   LINE      ---      ---       #2635
      00FF4E0BH   LINE      ---      ---       #2637
      00FF4E0BH   LINE      ---      ---       #2638
      00FF4E10H   LINE      ---      ---       #2639
      00FF4E10H   LINE      ---      ---       #2641
      00FF4E10H   LINE      ---      ---       #2642
      00FF4E15H   LINE      ---      ---       #2643
      00FF4E15H   LINE      ---      ---       #2645
      00FF4E15H   LINE      ---      ---       #2646
      00FF4E1AH   LINE      ---      ---       #2647
      00FF4E1AH   LINE      ---      ---       #2649
      00FF4E1AH   LINE      ---      ---       #2650
      00FF4E1FH   LINE      ---      ---       #2651
      00FF4E1FH   LINE      ---      ---       #2653
      00FF4E1FH   LINE      ---      ---       #2654
      00FF4E24H   LINE      ---      ---       #2655
      00FF4E24H   LINE      ---      ---       #2657
      00FF4E24H   LINE      ---      ---       #2658
      00FF4E29H   LINE      ---      ---       #2659
      00FF4E29H   LINE      ---      ---       #2664
      00FF4E29H   LINE      ---      ---       #2665
L251 LINKER/LOCATER V4.66.93.0                                                        04/08/2024  14:48:14  PAGE 103


      00FF4E2EH   LINE      ---      ---       #2666
      00FF4E2EH   LINE      ---      ---       #2667
      00FF4E2EH   LINE      ---      ---       #2669
      R11         REGSYM    ---      BYTE      cmdId
      REG=4       REGSYM    ---      ---       pCmdAddress
      REG=2       REGSYM    ---      ---       pCmdCnfStatus
      ---         BLOCKEND  ---      ---       LVL=0

      00FF4A63H   BLOCK     CODE     ---       LVL=0
      00FF4A63H   LINE      ---      ---       #2673
      00FF4A65H   LINE      ---      ---       #2675
      00FF4A7EH   LINE      ---      ---       #2677
      00FF4A7EH   LINE      ---      ---       #2678
      00FF4A80H   LINE      ---      ---       #2679
      00FF4A80H   LINE      ---      ---       #2680
      00FF4A80H   LINE      ---      ---       #2681
      00FF4A83H   LINE      ---      ---       #2682
      00FF4A83H   LINE      ---      ---       #2683
      00FF4A83H   LINE      ---      ---       #2684
      00FF4A85H   LINE      ---      ---       #2685
      00FF4A85H   LINE      ---      ---       #2686
      00FF4A85H   LINE      ---      ---       #2687
      00FF4A87H   LINE      ---      ---       #2688
      00FF4A87H   LINE      ---      ---       #2689
      00FF4A87H   LINE      ---      ---       #2690
      00FF4A8AH   LINE      ---      ---       #2691
      00FF4A8AH   LINE      ---      ---       #2692
      00FF4A8AH   LINE      ---      ---       #2693
      00FF4A8CH   LINE      ---      ---       #2694
      00FF4A8CH   LINE      ---      ---       #2695
      00FF4A8CH   LINE      ---      ---       #2696
      00FF4A91H   LINE      ---      ---       #2697
      00FF4A91H   LINE      ---      ---       #2698
      00FF4A91H   LINE      ---      ---       #2700
      R3          REGSYM    ---      BYTE      cmdId
      REG=3       REGSYM    ---      ---       pCmdAddress
      REG=2       REGSYM    ---      ---       pCmdCnfStatus
      ---         BLOCKEND  ---      ---       LVL=0

      00FF4A48H   BLOCK     CODE     ---       LVL=0
      00FF4A48H   LINE      ---      ---       #2704
      00FF4A4AH   LINE      ---      ---       #2706
      00FF4A56H   LINE      ---      ---       #2708
      00FF4A56H   LINE      ---      ---       #2709
      00FF4A58H   LINE      ---      ---       #2710
      00FF4A58H   LINE      ---      ---       #2711
      00FF4A58H   LINE      ---      ---       #2712
      00FF4A5BH   LINE      ---      ---       #2713
      00FF4A5BH   LINE      ---      ---       #2714
      00FF4A5BH   LINE      ---      ---       #2715
      00FF4A5DH   LINE      ---      ---       #2716
      00FF4A5DH   LINE      ---      ---       #2717
      00FF4A5DH   LINE      ---      ---       #2718
      00FF4A62H   LINE      ---      ---       #2719
      00FF4A62H   LINE      ---      ---       #2720
      00FF4A62H   LINE      ---      ---       #2722
      R3          REGSYM    ---      BYTE      cmdId
      REG=3       REGSYM    ---      ---       pCmdAddress
      REG=2       REGSYM    ---      ---       pCmdCnfStatus
      ---         BLOCKEND  ---      ---       LVL=0

      00FF93ECH   BLOCK     CODE     ---       LVL=0
      00FF93ECH   LINE      ---      ---       #2752
      00FF93EEH   LINE      ---      ---       #2754
      00FF93F2H   LINE      ---      ---       #2756
L251 LINKER/LOCATER V4.66.93.0                                                        04/08/2024  14:48:14  PAGE 104


      00FF93F2H   LINE      ---      ---       #2757
      00FF93F5H   LINE      ---      ---       #2758
      00FF93F5H   LINE      ---      ---       #2764
      00FF93F5H   LINE      ---      ---       #2765
      00FF93FAH   LINE      ---      ---       #2766
      00FF93FAH   LINE      ---      ---       #2767
      00FF93FAH   LINE      ---      ---       #2768
      R3          REGSYM    ---      BYTE      cmdId
      REG=3       REGSYM    ---      ---       pCmdAddress
      REG=2       REGSYM    ---      ---       pCmdCnfStatus
      ---         BLOCKEND  ---      ---       LVL=0

      00FF6827H   BLOCK     CODE     ---       LVL=0
      00FF6827H   LINE      ---      ---       #2771
      00FF6829H   LINE      ---      ---       #2773
      00FF6861H   LINE      ---      ---       #2775
      00FF6861H   LINE      ---      ---       #2776
      00FF6866H   LINE      ---      ---       #2777
      00FF6866H   LINE      ---      ---       #2778
      00FF6866H   LINE      ---      ---       #2779
      00FF686AH   LINE      ---      ---       #2780
      00FF686AH   LINE      ---      ---       #2782
      00FF686AH   LINE      ---      ---       #2783
      00FF686EH   LINE      ---      ---       #2784
      00FF686EH   LINE      ---      ---       #2785
      00FF686EH   LINE      ---      ---       #2786
      00FF6872H   LINE      ---      ---       #2787
      00FF6872H   LINE      ---      ---       #2788
      00FF6872H   LINE      ---      ---       #2789
      00FF6876H   LINE      ---      ---       #2790
      00FF6876H   LINE      ---      ---       #2791
      00FF6876H   LINE      ---      ---       #2792
      00FF687AH   LINE      ---      ---       #2793
      00FF687AH   LINE      ---      ---       #2794
      00FF687AH   LINE      ---      ---       #2795
      00FF687EH   LINE      ---      ---       #2796
      00FF687EH   LINE      ---      ---       #2797
      00FF687EH   LINE      ---      ---       #2798
      00FF6882H   LINE      ---      ---       #2799
      00FF6882H   LINE      ---      ---       #2800
      00FF6882H   LINE      ---      ---       #2801
      00FF6886H   LINE      ---      ---       #2802
      00FF6886H   LINE      ---      ---       #2803
      00FF6886H   LINE      ---      ---       #2804
      00FF688AH   LINE      ---      ---       #2805
      00FF688AH   LINE      ---      ---       #2807
      00FF688AH   LINE      ---      ---       #2808
      00FF688EH   LINE      ---      ---       #2809
      00FF688EH   LINE      ---      ---       #2811
      00FF688EH   LINE      ---      ---       #2812
      00FF6892H   LINE      ---      ---       #2813
      00FF6892H   LINE      ---      ---       #2814
      00FF6892H   LINE      ---      ---       #2815
      00FF6896H   LINE      ---      ---       #2816
      00FF6896H   LINE      ---      ---       #2817
      00FF6896H   LINE      ---      ---       #2818
      00FF689AH   LINE      ---      ---       #2819
      00FF689AH   LINE      ---      ---       #2821
      00FF689AH   LINE      ---      ---       #2822
      00FF689FH   LINE      ---      ---       #2823
      00FF689FH   LINE      ---      ---       #2824
      00FF689FH   LINE      ---      ---       #2825
      R11         REGSYM    ---      BYTE      cmdId
      REG=4       REGSYM    ---      ---       pCmdAddress
      REG=2       REGSYM    ---      ---       pCmdCnfStatus
L251 LINKER/LOCATER V4.66.93.0                                                        04/08/2024  14:48:14  PAGE 105


      ---         BLOCKEND  ---      ---       LVL=0

      00FF48BAH   BLOCK     CODE     ---       LVL=0
      00FF48BAH   LINE      ---      ---       #2827
      00FF48BEH   LINE      ---      ---       #2828
      00FF48BEH   BLOCK     CODE     NEAR LAB  LVL=1
      00FF48BEH   LINE      ---      ---       #2833
      00FF48C3H   LINE      ---      ---       #2838
      00FF48C6H   LINE      ---      ---       #2839
      00FF48C9H   LINE      ---      ---       #2842
      00FF48D0H   LINE      ---      ---       #2843
      00FF48D0H   LINE      ---      ---       #2844
      00FF48D6H   LINE      ---      ---       #2852
      00FF48D8H   LINE      ---      ---       #2853
      00FF48DBH   LINE      ---      ---       #2854
      00FF48DFH   LINE      ---      ---       #2855
      00FF48E3H   LINE      ---      ---       #2856
      00FF48F7H   LINE      ---      ---       #2858
      00FF48F7H   LINE      ---      ---       #2860
      00FF490FH   LINE      ---      ---       #2862
      00FF490FH   LINE      ---      ---       #2863
      00FF4924H   LINE      ---      ---       #2864
      00FF492FH   LINE      ---      ---       #2866
      00FF492FH   LINE      ---      ---       #2867
      00FF4931H   LINE      ---      ---       #2870
      00FF4931H   LINE      ---      ---       #2871
      00FF4946H   LINE      ---      ---       #2872
      00FF4951H   LINE      ---      ---       #2874
      00FF4951H   LINE      ---      ---       #2875
      00FF4953H   LINE      ---      ---       #2879
      00FF4953H   LINE      ---      ---       #2880
      00FF4968H   LINE      ---      ---       #2881
      00FF4972H   LINE      ---      ---       #2883
      00FF4972H   LINE      ---      ---       #2884
      00FF4974H   LINE      ---      ---       #2888
      00FF4974H   LINE      ---      ---       #2889
      00FF4987H   LINE      ---      ---       #2890
      00FF4991H   LINE      ---      ---       #2892
      00FF4991H   LINE      ---      ---       #2893
      00FF4993H   LINE      ---      ---       #2897
      00FF4993H   LINE      ---      ---       #2898
      00FF49A6H   LINE      ---      ---       #2899
      00FF49B0H   LINE      ---      ---       #2901
      00FF49B0H   LINE      ---      ---       #2902
      00FF49B2H   LINE      ---      ---       #2914
      00FF49B2H   LINE      ---      ---       #2915
      00FF49B2H   LINE      ---      ---       #2916
      00FF49B2H   LINE      ---      ---       #2917
      00FF49B2H   LINE      ---      ---       #2918
      00FF49B4H   LINE      ---      ---       #2921
      00FF49B4H   LINE      ---      ---       #2923
      00FF49BEH   LINE      ---      ---       #2926
      00FF49BEH   LINE      ---      ---       #2927
      00FF49D1H   LINE      ---      ---       #2928
      00FF49DCH   LINE      ---      ---       #2930
      00FF49DCH   LINE      ---      ---       #2931
      00FF49DEH   LINE      ---      ---       #2934
      00FF49DEH   LINE      ---      ---       #2935
      00FF49F1H   LINE      ---      ---       #2936
      00FF49FCH   LINE      ---      ---       #2938
      00FF49FEH   LINE      ---      ---       #2939
      00FF4A00H   LINE      ---      ---       #2941
      00FF4A00H   LINE      ---      ---       #2942
      00FF4A02H   LINE      ---      ---       #2943
      00FF4A02H   LINE      ---      ---       #2944
L251 LINKER/LOCATER V4.66.93.0                                                        04/08/2024  14:48:14  PAGE 106


      00FF4A02H   LINE      ---      ---       #2945
      00FF4A04H   LINE      ---      ---       #2948
      00FF4A04H   LINE      ---      ---       #2949
      00FF4A0AH   LINE      ---      ---       #2950
      00FF4A0AH   LINE      ---      ---       #2951
      00FF4A0AH   LINE      ---      ---       #2954
      00FF4A12H   LINE      ---      ---       #2956
      00FF4A15H   LINE      ---      ---       #2957
      00FF4A18H   LINE      ---      ---       #2958
      00FF4A1BH   LINE      ---      ---       #2960
      00FF4A22H   LINE      ---      ---       #2961
      00FF4A22H   LINE      ---      ---       #2963
      00FF4A28H   LINE      ---      ---       #2968
      00FF4A35H   LINE      ---      ---       #2970
      00FF4A3BH   LINE      ---      ---       #2971
      00FF4A43H   LINE      ---      ---       #2972
      R4          REGSYM    ---      BYTE      cmdLen
      REG=3       REGSYM    ---      ---       pCmdAddress
      REG=1       REGSYM    ---      ---       pRuciHeader
      R14         REGSYM    ---      BYTE      ruciHeader
      R15         REGSYM    ---      BYTE      ruciSubheader
      0000B66EH   SYMBOL    EDATA    BYTE      cmdCnfStatus
      ---         BLOCKEND  CODE     ---       LVL=1
      ---         BLOCKEND  CODE     ---       LVL=0
      00FF5C16H   LINE      ---      ---       #382

      ---         MODULE    ---      ---       mac_task_ctrl
      00FF93FBH   PUBLIC    CODE     ---       RxTask_AlwaysOn_Set
      00FF3081H   PUBLIC    CODE     ---       R2tTask_Set
      00FF1865H   PUBLIC    CODE     ---       TrtTask_Set
      00FF977FH   PUBLIC    CODE     ---       RxTask_RxTimer_Set
      00FF9605H   PUBLIC    CODE     ---       RxTask_Timeout_Set
      00FF978DH   PUBLIC    CODE     ---       TxContTask_Set
      00FF97FDH   PUBLIC    CODE     ---       TxTask_Set
      00FF19CDH   PUBLIC    CODE     ---       T2RTask_Set
      00FF9842H   PUBLIC    CODE     ---       TxRtcTask_Set
      00FF0008H   PUBLIC    CODE     ---       AllTask_Stop
      0000B614H   PUBLIC    EDATA    DWORD     gMac_Frame_Pending_Rx_Time
      0000B401H   PUBLIC    EDATA    BYTE      ?T2RTask_Set?BYTE

      00FF93FBH   BLOCK     CODE     ---       LVL=0
      00FF93FBH   LINE      ---      ---       #23
      00FF93FBH   LINE      ---      ---       #24
      00FF93FBH   BLOCK     CODE     NEAR LAB  LVL=1
      00FF93FBH   LINE      ---      ---       #28
      00FF9401H   LINE      ---      ---       #29
      00FF9407H   LINE      ---      ---       #30
      00FF940DH   LINE      ---      ---       #31
      00FF9412H   LINE      ---      ---       #32
      00FF9418H   LINE      ---      ---       #33
      00FF941CH   LINE      ---      ---       #34
      00FF9420H   LINE      ---      ---       #36
      00FF9429H   LINE      ---      ---       #38
      0000B4C3H   SYMBOL    EDATA    ---       taskControl
      ---         BLOCKEND  CODE     ---       LVL=1
      ---         BLOCKEND  CODE     ---       LVL=0

      00FF3081H   BLOCK     CODE     ---       LVL=0
      00FF3081H   LINE      ---      ---       #43
      00FF3081H   LINE      ---      ---       #44
      WR6         REGSYM    ---      WORD      pktInterval
      DR0         REGSYM    ---      DWORD     rxWaitDuration
      00FF3081H   BLOCK     CODE     NEAR LAB  LVL=1
      00FF3081H   LINE      ---      ---       #48
      00FF3087H   LINE      ---      ---       #49
L251 LINKER/LOCATER V4.66.93.0                                                        04/08/2024  14:48:14  PAGE 107


      00FF308CH   LINE      ---      ---       #50
      00FF3092H   LINE      ---      ---       #51
      00FF3098H   LINE      ---      ---       #52
      00FF309CH   LINE      ---      ---       #53
      00FF30AAH   LINE      ---      ---       #54
      00FF30B0H   LINE      ---      ---       #56
      00FF30B9H   LINE      ---      ---       #58
      00FF30BFH   LINE      ---      ---       #59
      00FF30C4H   LINE      ---      ---       #60
      00FF30C8H   LINE      ---      ---       #61
      00FF30CCH   LINE      ---      ---       #62
      00FF30D2H   LINE      ---      ---       #63
      00FF30D6H   LINE      ---      ---       #64
      00FF30DAH   LINE      ---      ---       #66
      00FF30E3H   LINE      ---      ---       #68
      0000B4D1H   SYMBOL    EDATA    ---       taskControl
      ---         BLOCKEND  CODE     ---       LVL=1
      ---         BLOCKEND  CODE     ---       LVL=0

      00FF1865H   BLOCK     CODE     ---       LVL=0
      00FF1865H   LINE      ---      ---       #72
      00FF186DH   LINE      ---      ---       #73
      WR14        REGSYM    ---      WORD      pktInterval
      0000B42EH   SYMBOL    EDATA    DWORD     rxWaitDuration
      00FF186DH   BLOCK     CODE     NEAR LAB  LVL=1
      00FF186DH   LINE      ---      ---       #77
      00FF1872H   LINE      ---      ---       #78
      00FF1876H   LINE      ---      ---       #79
      00FF187CH   LINE      ---      ---       #80
      00FF1882H   LINE      ---      ---       #81
      00FF1894H   LINE      ---      ---       #82
      00FF189AH   LINE      ---      ---       #83
      00FF18A0H   LINE      ---      ---       #84
      00FF18A6H   LINE      ---      ---       #86
      00FF18ACH   LINE      ---      ---       #87
      00FF18B1H   LINE      ---      ---       #88
      00FF18B7H   LINE      ---      ---       #89
      00FF18BDH   LINE      ---      ---       #90
      00FF18C5H   LINE      ---      ---       #91
      00FF18D5H   LINE      ---      ---       #92
      00FF18DBH   LINE      ---      ---       #93
      00FF18E3H   LINE      ---      ---       #95
      00FF18E9H   LINE      ---      ---       #96
      00FF18EEH   LINE      ---      ---       #97
      00FF18F2H   LINE      ---      ---       #98
      00FF18F6H   LINE      ---      ---       #99
      00FF18FCH   LINE      ---      ---       #100
      00FF1900H   LINE      ---      ---       #101
      00FF1904H   LINE      ---      ---       #102
      0000B432H   SYMBOL    EDATA    ---       taskControl
      ---         BLOCKEND  CODE     ---       LVL=1
      00FF190CH   LINE      ---      ---       #106
      00FF190CH   LINE      CODE     ---       #106

      00FF977FH   BLOCK     CODE     ---       LVL=0
      00FF977FH   LINE      ---      ---       #111
      00FF9781H   LINE      ---      ---       #114
      00FF978CH   LINE      ---      ---       #116
      DR8         REGSYM    ---      DWORD     ccaDuration
      ---         BLOCKEND  ---      ---       LVL=0

      00FF9605H   BLOCK     CODE     ---       LVL=0
      00FF9605H   LINE      ---      ---       #118
      00FF9607H   LINE      ---      ---       #119
      DR28        REGSYM    ---      DWORD     rxOnTime
L251 LINKER/LOCATER V4.66.93.0                                                        04/08/2024  14:48:14  PAGE 108


      00FF9607H   BLOCK     CODE     NEAR LAB  LVL=1
      00FF9607H   LINE      ---      ---       #123
      00FF960DH   LINE      ---      ---       #124
      00FF9612H   LINE      ---      ---       #125
      00FF9618H   LINE      ---      ---       #126
      00FF961DH   LINE      ---      ---       #127
      00FF9635H   LINE      ---      ---       #128
      00FF963BH   LINE      ---      ---       #129
      00FF9641H   LINE      ---      ---       #131
      00FF964AH   LINE      ---      ---       #133
      0000B4DFH   SYMBOL    EDATA    ---       taskControl
      ---         BLOCKEND  CODE     ---       LVL=1
      ---         BLOCKEND  CODE     ---       LVL=0

      00FF978DH   BLOCK     CODE     ---       LVL=0
      00FF978DH   LINE      ---      ---       #139
      00FF9797H   LINE      ---      ---       #140
      WR6         REGSYM    ---      WORD      pktInterval
      R15         REGSYM    ---      BYTE      mode
      0000B440H   SYMBOL    EDATA    DWORD     rtcAnchor
      00FF9797H   BLOCK     CODE     NEAR LAB  LVL=1
      00FF9797H   LINE      ---      ---       #144
      00FF97A5H   LINE      ---      ---       #145
      00FF97A9H   LINE      ---      ---       #146
      00FF97B0H   LINE      ---      ---       #149
      00FF97B6H   LINE      ---      ---       #150
      00FF97BAH   LINE      ---      ---       #151
      00FF97BEH   LINE      ---      ---       #153
      00FF97C7H   LINE      ---      ---       #155
      00FF97CDH   LINE      ---      ---       #156
      00FF97D4H   LINE      ---      ---       #159
      00FF97DAH   LINE      ---      ---       #160
      00FF97DEH   LINE      ---      ---       #161
      00FF97E3H   LINE      ---      ---       #162
      00FF97E7H   LINE      ---      ---       #164
      00FF97EFH   LINE      ---      ---       #166
      0000B444H   SYMBOL    EDATA    ---       taskControl
      WR12        REGSYM    ---      WORD      pktIntervalTemp
      ---         BLOCKEND  CODE     ---       LVL=1
      00FF97F8H   LINE      ---      ---       #168
      00FF97F8H   LINE      CODE     ---       #168

      00FF97FDH   BLOCK     CODE     ---       LVL=0
      00FF97FDH   LINE      ---      ---       #172
      00FF9803H   LINE      ---      ---       #173
      R15         REGSYM    ---      BYTE      mode
      DR0         REGSYM    ---      DWORD     rtcAnchor
      00FF9803H   BLOCK     CODE     NEAR LAB  LVL=1
      00FF9803H   LINE      ---      ---       #176
      00FF9807H   LINE      ---      ---       #177
      00FF980CH   LINE      ---      ---       #178
      00FF9810H   LINE      ---      ---       #179
      00FF9814H   LINE      ---      ---       #180
      00FF981AH   LINE      ---      ---       #181
      00FF981EH   LINE      ---      ---       #182
      00FF9823H   LINE      ---      ---       #183
      00FF982BH   LINE      ---      ---       #185
      00FF982FH   LINE      ---      ---       #187
      00FF9838H   LINE      ---      ---       #188
      0000B4EDH   SYMBOL    EDATA    ---       taskControl
      ---         BLOCKEND  CODE     ---       LVL=1
      00FF983FH   LINE      ---      ---       #189
      00FF983FH   LINE      CODE     ---       #189

      00FF19CDH   BLOCK     CODE     ---       LVL=0
L251 LINKER/LOCATER V4.66.93.0                                                        04/08/2024  14:48:14  PAGE 109


      00FF19CDH   LINE      ---      ---       #193
      00FF19D9H   LINE      ---      ---       #194
      WR12        REGSYM    ---      WORD      interFrameSpace
      0000B404H   SYMBOL    EDATA    DWORD     rxWaitDuration
      R14         REGSYM    ---      BYTE      bRtcAutoEn
      0000B408H   SYMBOL    EDATA    DWORD     rtcValue
      R15         REGSYM    ---      BYTE      bRxFramePending
      00FF19D9H   BLOCK     CODE     NEAR LAB  LVL=1
      00FF19D9H   LINE      ---      ---       #198
      00FF19DFH   LINE      ---      ---       #199
      00FF19E4H   LINE      ---      ---       #200
      00FF19EAH   LINE      ---      ---       #202
      00FF19EEH   LINE      ---      ---       #204
      00FF1A00H   LINE      ---      ---       #205
      00FF1A02H   LINE      ---      ---       #206
      00FF1A04H   LINE      ---      ---       #210
      00FF1A0AH   LINE      ---      ---       #211
      00FF1A0FH   LINE      ---      ---       #212
      00FF1A0FH   LINE      ---      ---       #213
      00FF1A17H   LINE      ---      ---       #214
      00FF1A1DH   LINE      ---      ---       #215
      00FF1A25H   LINE      ---      ---       #218
      00FF1A29H   LINE      ---      ---       #220
      00FF1A2FH   LINE      ---      ---       #221
      00FF1A34H   LINE      ---      ---       #222
      00FF1A3AH   LINE      ---      ---       #223
      00FF1A40H   LINE      ---      ---       #224
      00FF1A45H   LINE      ---      ---       #225
      00FF1A4DH   LINE      ---      ---       #226
      00FF1A53H   LINE      ---      ---       #227
      00FF1A5BH   LINE      ---      ---       #228
      00FF1A5BH   LINE      ---      ---       #231
      00FF1A60H   LINE      ---      ---       #232
      00FF1A64H   LINE      ---      ---       #233
      00FF1A6AH   LINE      ---      ---       #234
      00FF1A70H   LINE      ---      ---       #235
      00FF1A82H   LINE      ---      ---       #236
      00FF1AA6H   LINE      ---      ---       #238
      00FF1AACH   LINE      ---      ---       #239
      00FF1AC6H   LINE      ---      ---       #240
      00FF1ACEH   LINE      ---      ---       #241
      00FF1AD3H   LINE      ---      ---       #242
      00FF1AD5H   LINE      ---      ---       #245
      00FF1ADBH   LINE      ---      ---       #246
      00FF1AE1H   LINE      ---      ---       #247
      00FF1AE7H   LINE      ---      ---       #248
      00FF1AEEH   LINE      ---      ---       #249
      0000B40DH   SYMBOL    EDATA    ---       taskControl
      ---         BLOCKEND  CODE     ---       LVL=1
      00FF1AEEH   LINE      ---      ---       #253
      00FF1AEEH   LINE      CODE     ---       #253

      00FF9842H   BLOCK     CODE     ---       LVL=0
      00FF9842H   LINE      ---      ---       #255
      00FF9844H   LINE      ---      ---       #256
      DR0         REGSYM    ---      DWORD     rtcValue
      00FF9844H   BLOCK     CODE     NEAR LAB  LVL=1
      00FF9844H   LINE      ---      ---       #260
      00FF984AH   LINE      ---      ---       #261
      00FF984FH   LINE      ---      ---       #262
      00FF9853H   LINE      ---      ---       #263
      00FF9857H   LINE      ---      ---       #264
      00FF985DH   LINE      ---      ---       #265
      00FF9861H   LINE      ---      ---       #266
      00FF9865H   LINE      ---      ---       #268
L251 LINKER/LOCATER V4.66.93.0                                                        04/08/2024  14:48:14  PAGE 110


      00FF986EH   LINE      ---      ---       #270
      0000B4FBH   SYMBOL    EDATA    ---       taskControl
      ---         BLOCKEND  CODE     ---       LVL=1
      ---         BLOCKEND  CODE     ---       LVL=0

      00FF0008H   BLOCK     CODE     ---       LVL=0
      00FF0008H   LINE      ---      ---       #283
      00FF0008H   LINE      ---      ---       #286
      ---         BLOCKEND  ---      ---       LVL=0

      ---         MODULE    ---      ---       ruci_data_parse
      00FF9876H   PUBLIC    CODE     ---       PciDataControlFieldParse

      00FF9876H   BLOCK     CODE     ---       LVL=0
      00FF9876H   LINE      ---      ---       #39
      00FF987AH   LINE      ---      ---       #40
      REG=7       REGSYM    ---      ---       pCmdAddress
      00FF987AH   BLOCK     CODE     NEAR LAB  LVL=1
      00FF987AH   LINE      ---      ---       #43
      00FF9881H   LINE      ---      ---       #44
      00FF9887H   LINE      ---      ---       #45
      00FF988BH   LINE      ---      ---       #46
      00FF988BH   LINE      ---      ---       #47
      00FF9895H   LINE      ---      ---       #48
      00FF9897H   LINE      ---      ---       #50
      00FF989AH   LINE      ---      ---       #51
      00FF989CH   LINE      ---      ---       #53
      00FF98A6H   LINE      ---      ---       #54
      00FF98AEH   LINE      ---      ---       #55
      00FF98B5H   LINE      ---      ---       #59
      00FF98C1H   LINE      ---      ---       #60
      00FF98C3H   LINE      ---      ---       #61
      R10         REGSYM    ---      BYTE      tmp
      00FF98C3H   BLOCK     CODE     NEAR LAB  LVL=2
      00FF98C3H   LINE      ---      ---       #62
      00FF98CCH   LINE      ---      ---       #65
      00FF98CEH   LINE      ---      ---       #66
      00FF98D8H   LINE      ---      ---       #67
      00FF98DFH   LINE      ---      ---       #68
      00FF98EAH   LINE      ---      ---       #69
      00FF990AH   LINE      ---      ---       #70
      WR12        REGSYM    ---      WORD      bufferAddress_LOCAL
      REG=3       REGSYM    ---      ---       pOutput
      ---         BLOCKEND  CODE     ---       LVL=2
      00FF9915H   LINE      ---      ---       #71
      00FF9915H   LINE      ---      ---       #73
      00FF9915H   LINE      CODE     ---       #73
      ---         BLOCKEND  CODE     ---       LVL=0

      ---         MODULE    ---      ---       mac_event_gen
      00FF41E8H   PUBLIC    CODE     ---       PciCnfEventSendtoMsgQueue
      00FF45A2H   PUBLIC    CODE     ---       PciGetCrcEventSendtoMsgQueue
      00FF57A1H   PUBLIC    CODE     ---       PciGetPhyStatusEventSendtoMsgQueue
      00FF47ABH   PUBLIC    CODE     ---       PciBurstTxdoneEventSendtoMsgQueue
      00FF572DH   PUBLIC    CODE     ---       PciGetRssiEventSendtoMsgQueue
      00FF9919H   PUBLIC    CODE     ---       PciHtrpConnToEventdoneEventSendtoMsgQueue
      00FF42BEH   PUBLIC    CODE     ---       PciHtrpPerEventdoneEventSendtoMsgQueue
      00FF4272H   PUBLIC    CODE     ---       PciHtrpGetRssiEventSendtoMsgQueue
      00FF437BH   PUBLIC    CODE     ---       PciHtrpFwStatusEventdoneEventSendtoMsgQueue
      00FF4301H   PUBLIC    CODE     ---       PciHtrpHwStatusEventdoneEventSendtoMsgQueue
      00FF475BH   PUBLIC    CODE     ---       PciCslAccuracyEventSendtoMsgQueue
      00FF4783H   PUBLIC    CODE     ---       PciCslUncertaintyEventSendtoMsgQueue

      00FF41E3H   BLOCK     CODE     ---       LVL=0
      00FF41E8H   LINE      ---      ---       #60
L251 LINKER/LOCATER V4.66.93.0                                                        04/08/2024  14:48:14  PAGE 111


      00FF41F0H   LINE      ---      ---       #61
      00FF41E3H   SYMBOL    CODE     NEAR LAB  ?L?COM0030
      R13         REGSYM    ---      BYTE      cmdHeader
      R14         REGSYM    ---      BYTE      cmdSubheader
      R15         REGSYM    ---      BYTE      cmdCnfStatus
      00FF41F0H   BLOCK     CODE     NEAR LAB  LVL=1
      00FF41F0H   LINE      ---      ---       #63
      00FF41F4H   LINE      ---      ---       #64
      00FF41F6H   LINE      ---      ---       #66
      00FF4200H   LINE      ---      ---       #67
      00FF4207H   LINE      ---      ---       #68
      00FF420DH   LINE      ---      ---       #69
      00FF4213H   LINE      ---      ---       #70
      00FF4217H   LINE      ---      ---       #71
      00FF421BH   LINE      ---      ---       #72
      00FF421FH   LINE      ---      ---       #78
      REG=3       REGSYM    ---      ---       pEventPayload
      R12         REGSYM    ---      BYTE      qIdx
      ---         BLOCKEND  CODE     ---       LVL=1
      00FF422BH   LINE      ---      ---       #80
      00FF422BH   LINE      CODE     ---       #80

      00FF45A2H   BLOCK     CODE     ---       LVL=0
      00FF45A2H   LINE      ---      ---       #84
      00FF45A6H   LINE      ---      ---       #85
      00FF45A6H   BLOCK     CODE     NEAR LAB  LVL=1
      00FF45A6H   LINE      ---      ---       #87
      00FF45AAH   LINE      ---      ---       #90
      00FF45B4H   LINE      ---      ---       #91
      00FF45BBH   LINE      ---      ---       #92
      00FF45C1H   LINE      ---      ---       #93
      00FF45C7H   LINE      ---      ---       #95
      00FF45D4H   LINE      ---      ---       #101
      00FF45EEH   LINE      ---      ---       #103
      REG=6       REGSYM    ---      ---       pEventPayload
      R15         REGSYM    ---      BYTE      qIdx
      ---         BLOCKEND  CODE     ---       LVL=1
      00FF45FAH   LINE      ---      ---       #105
      00FF45FAH   LINE      CODE     ---       #105

      00FF57A1H   BLOCK     CODE     ---       LVL=0
      00FF57A1H   LINE      ---      ---       #107
      00FF57A5H   LINE      ---      ---       #108
      00FF57A5H   BLOCK     CODE     NEAR LAB  LVL=1
      00FF57A5H   LINE      ---      ---       #111
      00FF57AAH   LINE      ---      ---       #114
      00FF57B4H   LINE      ---      ---       #115
      00FF57BBH   LINE      ---      ---       #116
      00FF57C1H   LINE      ---      ---       #117
      00FF57C5H   LINE      ---      ---       #118
      00FF57CDH   LINE      ---      ---       #119
      00FF57D5H   LINE      ---      ---       #120
      00FF57DFH   LINE      ---      ---       #121
      00FF57EAH   LINE      ---      ---       #122
      00FF57F4H   LINE      ---      ---       #123
      00FF57FCH   LINE      ---      ---       #124
      00FF5812H   LINE      ---      ---       #126
      00FF5816H   LINE      ---      ---       #132
      REG=6       REGSYM    ---      ---       pEventPayload
      R7          REGSYM    ---      BYTE      cpmputeRssi
      R15         REGSYM    ---      BYTE      qIdx
      ---         BLOCKEND  CODE     ---       LVL=1
      00FF5823H   LINE      ---      ---       #134
      00FF5823H   LINE      CODE     ---       #134

L251 LINKER/LOCATER V4.66.93.0                                                        04/08/2024  14:48:14  PAGE 112


      00FF47ABH   BLOCK     CODE     ---       LVL=0
      00FF47ABH   LINE      ---      ---       #136
      00FF47ADH   LINE      ---      ---       #137
      00FF47ADH   BLOCK     CODE     NEAR LAB  LVL=1
      00FF47ADH   LINE      ---      ---       #139
      00FF47AFH   LINE      ---      ---       #142
      00FF47B9H   LINE      ---      ---       #143
      00FF47C0H   LINE      ---      ---       #144
      00FF47C6H   LINE      ---      ---       #145
      00FF47CBH   LINE      ---      ---       #150
      REG=3       REGSYM    ---      ---       pEventPayload
      R15         REGSYM    ---      BYTE      qIdx
      ---         BLOCKEND  CODE     ---       LVL=1
      00FF47D7H   LINE      ---      ---       #152
      00FF47D7H   LINE      CODE     ---       #152

      00FF572DH   BLOCK     CODE     ---       LVL=0
      00FF572DH   LINE      ---      ---       #154
      00FF5731H   LINE      ---      ---       #155
      00FF5731H   BLOCK     CODE     NEAR LAB  LVL=1
      00FF5731H   LINE      ---      ---       #159
      00FF5736H   LINE      ---      ---       #162
      00FF573DH   LINE      ---      ---       #163
      00FF5749H   LINE      ---      ---       #164
      00FF5751H   LINE      ---      ---       #165
      00FF5758H   LINE      ---      ---       #166
      00FF5762H   LINE      ---      ---       #168
      00FF576CH   LINE      ---      ---       #169
      00FF5773H   LINE      ---      ---       #170
      00FF5779H   LINE      ---      ---       #171
      00FF577FH   LINE      ---      ---       #172
      00FF5783H   LINE      ---      ---       #178
      REG=6       REGSYM    ---      ---       pEventPayload
      R5          REGSYM    ---      CHAR      ibRssi
      R10         REGSYM    ---      BYTE      cpmputeRssi
      R4          REGSYM    ---      BYTE      lnaGain
      R7          REGSYM    ---      BYTE      tiaGain
      R6          REGSYM    ---      BYTE      vgaGain
      R15         REGSYM    ---      BYTE      qIdx
      ---         BLOCKEND  CODE     ---       LVL=1
      00FF5786H   LINE      ---      ---       #180
      00FF5786H   LINE      CODE     ---       #180

      00FF9919H   BLOCK     CODE     ---       LVL=0
      00FF9919H   LINE      ---      ---       #183
      00FF991DH   LINE      ---      ---       #184
      R15         REGSYM    ---      BYTE      status
      00FF991DH   BLOCK     CODE     NEAR LAB  LVL=1
      00FF991DH   LINE      ---      ---       #186
      00FF9922H   LINE      ---      ---       #187
      00FF9925H   LINE      ---      ---       #189
      00FF992FH   LINE      ---      ---       #190
      00FF9936H   LINE      ---      ---       #191
      00FF993CH   LINE      ---      ---       #192
      00FF9942H   LINE      ---      ---       #193
      00FF9946H   LINE      ---      ---       #198
      REG=3       REGSYM    ---      ---       pEventPayload
      R14         REGSYM    ---      BYTE      qIdx
      ---         BLOCKEND  CODE     ---       LVL=1
      00FF994FH   LINE      ---      ---       #199
      00FF994FH   LINE      CODE     ---       #199

      00FF42BEH   BLOCK     CODE     ---       LVL=0
      00FF42BEH   LINE      ---      ---       #201
      00FF42C0H   LINE      ---      ---       #202
L251 LINKER/LOCATER V4.66.93.0                                                        04/08/2024  14:48:14  PAGE 113


      00FF42C0H   BLOCK     CODE     NEAR LAB  LVL=1
      00FF42C0H   LINE      ---      ---       #204
      00FF42C4H   LINE      ---      ---       #207
      00FF42CEH   LINE      ---      ---       #208
      00FF42D5H   LINE      ---      ---       #209
      00FF42DBH   LINE      ---      ---       #210
      00FF42E1H   LINE      ---      ---       #212
      00FF42F2H   LINE      ---      ---       #217
      REG=11      REGSYM    ---      ---       pEventPayload
      R15         REGSYM    ---      BYTE      qIdx
      ---         BLOCKEND  CODE     ---       LVL=1
      00FF42FEH   LINE      ---      ---       #218
      00FF42FEH   LINE      CODE     ---       #218

      00FF4272H   BLOCK     CODE     ---       LVL=0
      00FF4272H   LINE      ---      ---       #220
      00FF4274H   LINE      ---      ---       #221
      00FF4274H   BLOCK     CODE     NEAR LAB  LVL=1
      00FF4274H   LINE      ---      ---       #223
      00FF4278H   LINE      ---      ---       #226
      00FF4282H   LINE      ---      ---       #227
      00FF4289H   LINE      ---      ---       #228
      00FF428FH   LINE      ---      ---       #229
      00FF4295H   LINE      ---      ---       #230
      00FF429DH   LINE      ---      ---       #235
      REG=2       REGSYM    ---      ---       pEventPayload
      R15         REGSYM    ---      BYTE      qIdx
      ---         BLOCKEND  CODE     ---       LVL=1
      00FF429FH   LINE      ---      ---       #236
      00FF429FH   LINE      CODE     ---       #236

      00FF437BH   BLOCK     CODE     ---       LVL=0
      00FF437BH   LINE      ---      ---       #238
      00FF437FH   LINE      ---      ---       #239
      00FF437FH   BLOCK     CODE     NEAR LAB  LVL=1
      00FF437FH   LINE      ---      ---       #241
      00FF4383H   LINE      ---      ---       #244
      00FF438DH   LINE      ---      ---       #245
      00FF4394H   LINE      ---      ---       #246
      00FF439AH   LINE      ---      ---       #247
      00FF43A0H   LINE      ---      ---       #248
      00FF43A8H   LINE      ---      ---       #249
      00FF43AFH   LINE      ---      ---       #250
      00FF43B6H   LINE      ---      ---       #251
      00FF43BEH   LINE      ---      ---       #252
      00FF43C6H   LINE      ---      ---       #253
      00FF43CEH   LINE      ---      ---       #254
      00FF43D6H   LINE      ---      ---       #255
      00FF43DEH   LINE      ---      ---       #256
      00FF43E6H   LINE      ---      ---       #257
      00FF43F7H   LINE      ---      ---       #258
      00FF4408H   LINE      ---      ---       #264
      REG=6       REGSYM    ---      ---       pEventPayload
      R15         REGSYM    ---      BYTE      qIdx
      ---         BLOCKEND  CODE     ---       LVL=1
      00FF4414H   LINE      ---      ---       #265
      00FF4414H   LINE      CODE     ---       #265

      00FF4301H   BLOCK     CODE     ---       LVL=0
      00FF4301H   LINE      ---      ---       #267
      00FF4305H   LINE      ---      ---       #268
      00FF4305H   BLOCK     CODE     NEAR LAB  LVL=1
      00FF4305H   LINE      ---      ---       #270
      00FF4309H   LINE      ---      ---       #273
      00FF4313H   LINE      ---      ---       #274
L251 LINKER/LOCATER V4.66.93.0                                                        04/08/2024  14:48:14  PAGE 114


      00FF431AH   LINE      ---      ---       #275
      00FF4320H   LINE      ---      ---       #276
      00FF4326H   LINE      ---      ---       #277
      00FF4331H   LINE      ---      ---       #278
      00FF4342H   LINE      ---      ---       #279
      00FF434FH   LINE      ---      ---       #280
      00FF4356H   LINE      ---      ---       #281
      00FF435DH   LINE      ---      ---       #282
      00FF436AH   LINE      ---      ---       #288
      REG=6       REGSYM    ---      ---       pEventPayload
      R15         REGSYM    ---      BYTE      qIdx
      ---         BLOCKEND  CODE     ---       LVL=1
      00FF4376H   LINE      ---      ---       #289
      00FF4376H   LINE      CODE     ---       #289

      00FF475BH   BLOCK     CODE     ---       LVL=0
      00FF475BH   LINE      ---      ---       #293
      00FF475DH   LINE      ---      ---       #294
      00FF475DH   BLOCK     CODE     NEAR LAB  LVL=1
      00FF475DH   LINE      ---      ---       #296
      00FF475FH   LINE      ---      ---       #299
      00FF4769H   LINE      ---      ---       #300
      00FF4770H   LINE      ---      ---       #301
      00FF4776H   LINE      ---      ---       #302
      00FF477CH   LINE      ---      ---       #303
      REG=3       REGSYM    ---      ---       pEventPayload
      R15         REGSYM    ---      BYTE      qIdx
      ---         BLOCKEND  CODE     ---       LVL=1
      00FF4780H   LINE      ---      ---       #311
      00FF4780H   LINE      CODE     ---       #311

      00FF4783H   BLOCK     CODE     ---       LVL=0
      00FF4783H   LINE      ---      ---       #313
      00FF4785H   LINE      ---      ---       #314
      00FF4785H   BLOCK     CODE     NEAR LAB  LVL=1
      00FF4785H   LINE      ---      ---       #316
      00FF4787H   LINE      ---      ---       #319
      00FF4791H   LINE      ---      ---       #320
      00FF4798H   LINE      ---      ---       #321
      00FF479EH   LINE      ---      ---       #322
      00FF47A4H   LINE      ---      ---       #323
      REG=3       REGSYM    ---      ---       pEventPayload
      R15         REGSYM    ---      BYTE      qIdx
      ---         BLOCKEND  CODE     ---       LVL=1
      00FF47A8H   LINE      ---      ---       #330
      00FF47A8H   LINE      CODE     ---       #330

      ---         MODULE    ---      ---       mac_RaaSchedule
      00FF9952H   PUBLIC    CODE     ---       mac_Raa_SchInitHdlr
      00FF9431H   PUBLIC    CODE     ---       mac_Raa_SchConfigHdlr
      00FF24CBH   PUBLIC    CODE     ---       mac_Raa_SchWaitMHRHdlr
      00FF9953H   PUBLIC    CODE     ---       mac_Raa_SchWaitRxDoneHdlr
      00FF662CH   PUBLIC    CODE     ---       mac_Raa_SchWaitTxDoneHdlr
      00FF99EAH   PUBLIC    CODE     ---       mac_Raa_SchWaitResumeHdlr
      00FF99EBH   PUBLIC    CODE     ---       mac_Raa_SchEndHdlr
      00FF9A3AH   PUBLIC    CODE     ---       mac_Raa_SchReservedHdlr
      00FF3820H   PUBLIC    CODE     ---       Mac_RaaRxDoneHandle?_
      00FF6613H   PUBLIC    CODE     ---       Mac_RaaClearAckQandGenRxData
      00FF822CH   PUBLIC    CODE     ---       MAC_RaaSchedule
      00FF9A3BH   PUBLIC    CODE     ---       mac_org_mhr_done_handler
      00FF8749H   PUBLIC    CODE     ---       mac_org_rx_done_handler
      00FF873FH   PUBLIC    CODE     ---       MAC_MhrParse
      00FF2E98H   PUBLIC    CODE     ---       MAC_ScanVco_Get
      00FF3BB9H   PUBLIC    CODE     ---       MAC_RxDoneEventGen?_
      00FF9A58H   PUBLIC    CODE     ---       MAC_RXQ_CPY?_
L251 LINKER/LOCATER V4.66.93.0                                                        04/08/2024  14:48:14  PAGE 115


      00FF5FE8H   PUBLIC    CODE     ---       mac_genAck
      00FF34FCH   PUBLIC    CODE     ---       Mac_endianConvert
      00FF9BA2H   PUBLIC    CODE     ---       mac_genAckFrmCtrl
      00FF354FH   PUBLIC    CODE     ---       mac_RssiInfoCalc
      00FF9C09H   PUBLIC    CODE     ---       mod_replace
      00FF9C14H   PUBLIC    CODE     ---       mac_getCslPhase
      00FF31AAH   PUBLIC    CODE     ---       mac_genEnhAck
      00FF5D49H   PUBLIC    CODE     ---       MAC_AckSet
      00FF9C55H   PUBLIC    CODE     ---       MAC_NonceGen
      00FF9CC6H   PUBLIC    CODE     ---       mac_Filter?_
      0000B28DH   PUBLIC    EDATA    INT       gMacRaaState
      0000B28FH   PUBLIC    EDATA    ---       gMacPib
      0000B2AEH   PUBLIC    EDATA    BYTE      rtc_q_cnt
      0000B2AFH   PUBLIC    EDATA    ---       pll_choice
      0000B2EFH   PUBLIC    EDATA    ---       vco_choice
      0000B2FFH   PUBLIC    EDATA    BYTE      first_scan_enable
      0000B300H   PUBLIC    EDATA    ---       gRaa_Sch_Handler_Entry
      000000A8H.7 SFRSYM    DATA     BIT       EA
      00000080H   SFRSYM    DATA     BYTE      P0

      00FF873FH   BLOCK     CODE     ---       LVL=0
      00FF873FH   LINE      ---      ---       #95
      00FF873FH   LINE      ---      ---       #96
      00FF873FH   BLOCK     CODE     NEAR LAB  LVL=1
      00FF873FH   LINE      ---      ---       #97
      00FF8743H   LINE      ---      ---       #98
      REG=3       REGSYM    ---      ---       pMhr
      ---         BLOCKEND  CODE     ---       LVL=1
      ---         BLOCKEND  CODE     ---       LVL=0

      00FF2E98H   BLOCK     CODE     ---       LVL=0
      00FF2E98H   LINE      ---      ---       #102
      00FF2E9CH   LINE      ---      ---       #103
      DR12        REGSYM    ---      DWORD     Rf_freq
      00FF2E9CH   BLOCK     CODE     NEAR LAB  LVL=1
      00FF2E9CH   LINE      ---      ---       #110
      00FF2E9EH   LINE      ---      ---       #113
      00FF2EA0H   LINE      ---      ---       #114
      00FF2EACH   LINE      ---      ---       #115
      00FF2EB2H   LINE      ---      ---       #117
      00FF2EB5H   LINE      ---      ---       #118
      00FF2EBBH   LINE      ---      ---       #119
      00FF2EC2H   LINE      ---      ---       #120
      00FF2EC5H   LINE      ---      ---       #121
      00FF2ECBH   LINE      ---      ---       #123
      00FF2ECDH   LINE      ---      ---       #125
      R15         REGSYM    ---      BYTE      ret_vco
      ---         BLOCKEND  CODE     ---       LVL=1
      00FF2ECFH   LINE      ---      ---       #126
      00FF2ECFH   LINE      CODE     ---       #126

      00FF3BB9H   BLOCK     CODE     ---       LVL=0
      00FF3BB9H   LINE      ---      ---       #162
      00FF3BC1H   LINE      ---      ---       #163
      R10         REGSYM    ---      BYTE      isCrcPass
      00FF3BC1H   BLOCK     CODE     NEAR LAB  LVL=1
      00FF3BC1H   LINE      ---      ---       #166
      00FF3BCAH   LINE      ---      ---       #178
      00FF3BD6H   LINE      ---      ---       #179
      00FF3BDEH   LINE      ---      ---       #180
      00FF3BE4H   LINE      ---      ---       #181
      00FF3BFCH   LINE      ---      ---       #182
      00FF3C0BH   LINE      ---      ---       #187
      00FF3C0DH   LINE      ---      ---       #199
      00FF3C36H   LINE      ---      ---       #200
L251 LINKER/LOCATER V4.66.93.0                                                        04/08/2024  14:48:14  PAGE 116


      00FF3C41H   LINE      ---      ---       #201
      00FF3C41H   LINE      ---      ---       #202
      00FF3C56H   LINE      ---      ---       #205
      00FF3C64H   LINE      ---      ---       #208
      00FF3C6AH   LINE      ---      ---       #210
      00FF3C70H   LINE      ---      ---       #212
      00FF3C74H   LINE      ---      ---       #213
      00FF3C76H   LINE      ---      ---       #216
      00FF3C7CH   LINE      ---      ---       #217
      00FF3C82H   LINE      ---      ---       #219
      00FF3C99H   LINE      ---      ---       #220
      00FF3C99H   LINE      ---      ---       #222
      00FF3CC1H   LINE      ---      ---       #223
      00FF3CD0H   LINE      ---      ---       #224
      00FF3CD0H   LINE      ---      ---       #229
      00FF3CF8H   LINE      ---      ---       #230
      00FF3D03H   LINE      ---      ---       #231
      00FF3D14H   LINE      ---      ---       #235
      00FF3D1DH   LINE      ---      ---       #236
      00FF3D20H   LINE      ---      ---       #238
      00FF3D27H   LINE      ---      ---       #242
      00FF3D31H   LINE      ---      ---       #249
      00FF3D35H   LINE      ---      ---       #251
      00FF3D38H   LINE      ---      ---       #252
      00FF3D38H   LINE      ---      ---       #256
      00FF3D38H   LINE      ---      ---       #260
      00FF3D3EH   LINE      ---      ---       #262
      00FF3D47H   LINE      ---      ---       #263
      00FF3D47H   LINE      ---      ---       #265
      R10         REGSYM    ---      BYTE      retValue
      WR12        REGSYM    ---      WORD      bufferAddress_LOCAL
      REG=7       REGSYM    ---      ---       pOutput
      FFFFFFFDH   STKSYM    ---      DWORD     currRtc
      FFFFFFFCH   STKSYM    ---      BYTE      channelTmp
      FFFFFFF5H   STKSYM    ---      ---       sRxControlField
      ---         BLOCKEND  CODE     ---       LVL=1
      00FF3D49H   LINE      ---      ---       #266
      00FF3D49H   LINE      CODE     ---       #266

      00FF9A58H   BLOCK     CODE     ---       LVL=0
      00FF9A58H   LINE      ---      ---       #269
      00FF9A60H   LINE      ---      ---       #270
      R10         REGSYM    ---      BYTE      isCrcPass
      00FF9A60H   BLOCK     CODE     NEAR LAB  LVL=1
      00FF9A60H   LINE      ---      ---       #271
      00FF9A6DH   LINE      ---      ---       #272
      00FF9A76H   LINE      ---      ---       #273
      00FF9A8CH   LINE      ---      ---       #280
      00FF9A98H   LINE      ---      ---       #281
      00FF9AA0H   LINE      ---      ---       #282
      00FF9AA6H   LINE      ---      ---       #283
      00FF9ABEH   LINE      ---      ---       #284
      00FF9ACDH   LINE      ---      ---       #288
      00FF9AD0H   LINE      ---      ---       #300
      00FF9AF9H   LINE      ---      ---       #301
      00FF9B04H   LINE      ---      ---       #302
      00FF9B04H   LINE      ---      ---       #303
      00FF9B19H   LINE      ---      ---       #306
      00FF9B28H   LINE      ---      ---       #310
      00FF9B48H   LINE      ---      ---       #311
      00FF9B53H   LINE      ---      ---       #312
      00FF9B64H   LINE      ---      ---       #316
      00FF9B80H   LINE      ---      ---       #317
      00FF9B90H   LINE      ---      ---       #318
      00FF9B99H   LINE      ---      ---       #320
L251 LINKER/LOCATER V4.66.93.0                                                        04/08/2024  14:48:14  PAGE 117


      FFFFFFFFH   STKSYM    ---      WORD      bufferAddress_NORMAL
      WR12        REGSYM    ---      WORD      bufferAddress_LOCAL
      FFFFFFFDH   STKSYM    ---      WORD      bufferLength
      FFFFFFF9H   STKSYM    ---      DWORD     currRtc
      REG=2       REGSYM    ---      ---       pInput
      REG=7       REGSYM    ---      ---       pOutput
      FFFFFFF2H   STKSYM    ---      ---       sRxControlField
      ---         BLOCKEND  CODE     ---       LVL=1
      00FF9B9BH   LINE      ---      ---       #321
      00FF9B9BH   LINE      CODE     ---       #321

      00FF5FE8H   BLOCK     CODE     ---       LVL=0
      00FF5FE8H   LINE      ---      ---       #324
      00FF5FF2H   LINE      ---      ---       #325
      REG=7       REGSYM    ---      ---       pbuf
      R5          REGSYM    ---      BYTE      framePending
      R13         REGSYM    ---      BYTE      dsn
      00FF5FF2H   BLOCK     CODE     NEAR LAB  LVL=1
      00FF5FF2H   LINE      ---      ---       #326
      00FF6004H   LINE      ---      ---       #327
      00FF6010H   LINE      ---      ---       #328
      00FF6017H   LINE      ---      ---       #330
      00FF6021H   LINE      ---      ---       #331
      0000B657H   SYMBOL    EDATA    WORD      fcf
      ---         BLOCKEND  CODE     ---       LVL=1
      00FF6028H   LINE      ---      ---       #332
      00FF6028H   LINE      CODE     ---       #332

      00FF34F1H   BLOCK     CODE     ---       LVL=0
      00FF34FCH   LINE      ---      ---       #335
      00FF34FEH   LINE      ---      ---       #339
      00FF34F1H   SYMBOL    CODE     NEAR LAB  ?L?COM002D
      REG=3       REGSYM    ---      ---       pDataIn
      R5          REGSYM    ---      BYTE      TypeMap
      00FF34FEH   BLOCK     CODE     NEAR LAB  LVL=1
      00FF34FEH   LINE      ---      ---       #342
      00FF34FEH   LINE      ---      ---       #344
      00FF350AH   LINE      ---      ---       #346
      00FF350AH   LINE      ---      ---       #350
      00FF350CH   LINE      ---      ---       #351
      00FF352BH   LINE      ---      ---       #353
      00FF353FH   LINE      ---      ---       #356
      00FF3540H   LINE      ---      ---       #358
      00FF3540H   LINE      ---      ---       #361
      00FF3542H   LINE      ---      ---       #362
      00FF354BH   LINE      ---      ---       #364
      00FF354BH   LINE      ---      ---       #366
      00FF354BH   LINE      ---      ---       #368
      00FF354BH   LINE      ---      ---       #369
      00FF354BH   LINE      ---      ---       #370
      00FF354EH   LINE      ---      ---       #371
      00FF354EH   LINE      ---      ---       #374
      REG=1       REGSYM    ---      ---       pDwTemp
      REG=2       REGSYM    ---      ---       pWTemp
      REG=3       REGSYM    ---      ---       pData
      ---         BLOCKEND  CODE     ---       LVL=1
      00FF354EH   LINE      ---      ---       #375
      00FF354EH   LINE      CODE     ---       #375

      00FF9BA2H   BLOCK     CODE     ---       LVL=0
      00FF9BA2H   LINE      ---      ---       #384
      00FF9BA8H   LINE      ---      ---       #386
      00FF9C08H   LINE      ---      ---       #393
      REG=0       REGSYM    ---      ---       pbuf
      R10         REGSYM    ---      BYTE      framePending
L251 LINKER/LOCATER V4.66.93.0                                                        04/08/2024  14:48:14  PAGE 118


      REG=1       REGSYM    ---      ---       hdr
      ---         BLOCKEND  ---      ---       LVL=0

      00FF354FH   BLOCK     CODE     ---       LVL=0
      00FF354FH   LINE      ---      ---       #395
      00FF3551H   LINE      ---      ---       #397
      00FF3561H   LINE      ---      ---       #398
      R11         REGSYM    ---      BYTE      rssi
      R5          REGSYM    ---      BYTE      a
      R6          REGSYM    ---      BYTE      b
      ---         BLOCKEND  ---      ---       LVL=0

      00FF9C09H   BLOCK     CODE     ---       LVL=0
      00FF9C09H   LINE      ---      ---       #400
      00FF9C0BH   LINE      ---      ---       #401
      DR4         REGSYM    ---      DWORD     input1
      DR8         REGSYM    ---      DWORD     input2
      00FF9C0BH   BLOCK     CODE     NEAR LAB  LVL=1
      00FF9C0BH   LINE      ---      ---       #402
      00FF9C0BH   LINE      ---      ---       #403
      00FF9C0DH   LINE      ---      ---       #405
      00FF9C0FH   LINE      ---      ---       #406
      00FF9C13H   LINE      ---      ---       #407
      DR4         REGSYM    ---      DWORD     rem
      ---         BLOCKEND  CODE     ---       LVL=1
      00FF9C13H   LINE      ---      ---       #408
      00FF9C13H   LINE      CODE     ---       #408

      00FF9C14H   BLOCK     CODE     ---       LVL=0
      00FF9C14H   LINE      ---      ---       #409
      00FF9C1CH   LINE      ---      ---       #410
      0000B5B8H   SYMBOL    EDATA    DWORD     cslPeriodUs
      DR12        REGSYM    ---      DWORD     cslSampleTime
      00FF9C1CH   BLOCK     CODE     NEAR LAB  LVL=1
      00FF9C1CH   LINE      ---      ---       #413
      00FF9C21H   LINE      ---      ---       #419
      00FF9C25H   LINE      ---      ---       #420
      00FF9C2FH   LINE      ---      ---       #423
      00FF9C33H   LINE      ---      ---       #424
      00FF9C36H   LINE      ---      ---       #425
      00FF9C39H   LINE      ---      ---       #426
      00FF9C39H   LINE      ---      ---       #428
      00FF9C43H   LINE      ---      ---       #429
      00FF9C49H   LINE      ---      ---       #431
      00FF9C4BH   LINE      ---      ---       #433
      DR0         REGSYM    ---      DWORD     curTime
      DR4         REGSYM    ---      DWORD     diff
      0000B5BCH   SYMBOL    EDATA    DWORD     diff1
      DR4         REGSYM    ---      DWORD     diff2
      DR4         REGSYM    ---      DWORD     diffPlusPeriod
      ---         BLOCKEND  CODE     ---       LVL=1
      00FF9C52H   LINE      ---      ---       #434
      00FF9C52H   LINE      CODE     ---       #434

      00FF31AAH   BLOCK     CODE     ---       LVL=0
      00FF31AAH   LINE      ---      ---       #443
      00FF31B4H   LINE      ---      ---       #444
      REG=7       REGSYM    ---      ---       pbuf
      0000B618H   SYMBOL    EDATA    BYTE      framePending
      REG=6       REGSYM    ---      ---       hdr
      00FF31B4H   BLOCK     CODE     NEAR LAB  LVL=1
      00FF31B4H   LINE      ---      ---       #448
      00FF31B9H   LINE      ---      ---       #450
      00FF31C2H   LINE      ---      ---       #451
      00FF31C9H   LINE      ---      ---       #452
L251 LINKER/LOCATER V4.66.93.0                                                        04/08/2024  14:48:14  PAGE 119


      00FF31CFH   LINE      ---      ---       #454
      00FF31D5H   LINE      ---      ---       #455
      00FF31DAH   LINE      ---      ---       #457
      00FF31E1H   LINE      ---      ---       #458
      00FF31F0H   LINE      ---      ---       #461
      00FF31F5H   LINE      ---      ---       #463
      00FF3208H   LINE      ---      ---       #464
      00FF320AH   LINE      ---      ---       #468
      00FF3212H   LINE      ---      ---       #469
      00FF3212H   LINE      ---      ---       #471
      00FF321DH   LINE      ---      ---       #473
      00FF321FH   LINE      ---      ---       #474
      00FF3227H   LINE      ---      ---       #476
      00FF3231H   LINE      ---      ---       #477
      00FF3239H   LINE      ---      ---       #478
      00FF323FH   LINE      ---      ---       #481
      00FF3248H   LINE      ---      ---       #483
      00FF324FH   LINE      ---      ---       #486
      00FF3259H   LINE      ---      ---       #488
      00FF3261H   LINE      ---      ---       #489
      00FF3267H   LINE      ---      ---       #490
      00FF3267H   LINE      ---      ---       #492
      00FF326EH   LINE      ---      ---       #495
      00FF3278H   LINE      ---      ---       #497
      00FF3280H   LINE      ---      ---       #498
      00FF3286H   LINE      ---      ---       #499
      00FF3288H   LINE      ---      ---       #503
      00FF3295H   LINE      ---      ---       #505
      00FF329DH   LINE      ---      ---       #506
      00FF32AAH   LINE      ---      ---       #508
      00FF32B2H   LINE      ---      ---       #509
      00FF32BCH   LINE      ---      ---       #510
      00FF32BCH   LINE      ---      ---       #511
      00FF32BCH   LINE      ---      ---       #513
      00FF32C5H   LINE      ---      ---       #515
      00FF32D3H   LINE      ---      ---       #516
      00FF32DBH   LINE      ---      ---       #518
      00FF32E4H   LINE      ---      ---       #519
      00FF32EBH   LINE      ---      ---       #520
      00FF32F3H   LINE      ---      ---       #522
      00FF32FBH   LINE      ---      ---       #523
      00FF3303H   LINE      ---      ---       #525
      00FF330DH   LINE      ---      ---       #556
      00FF330DH   LINE      ---      ---       #558
      00FF3313H   LINE      ---      ---       #561
      00FF331BH   LINE      ---      ---       #562
      00FF3323H   LINE      ---      ---       #563
      00FF332BH   LINE      ---      ---       #564
      00FF3333H   LINE      ---      ---       #566
      00FF3339H   LINE      ---      ---       #568
      00FF3341H   LINE      ---      ---       #569
      00FF3347H   LINE      ---      ---       #571
      00FF334FH   LINE      ---      ---       #573
      00FF3359H   LINE      ---      ---       #574
      00FF3359H   LINE      ---      ---       #576
      00FF3362H   LINE      ---      ---       #578
      00FF3368H   LINE      ---      ---       #579
      00FF3370H   LINE      ---      ---       #580
      0000B619H   SYMBOL    EDATA    BYTE      hdrSize
      0000B61AH   SYMBOL    EDATA    BYTE      LmIesize
      00FF3370H   BLOCK     CODE     NEAR LAB  LVL=2
      00FF3370H   LINE      ---      ---       #584
      00FF3378H   LINE      ---      ---       #585
      00FF337FH   LINE      ---      ---       #586
      00FF3387H   LINE      ---      ---       #588
L251 LINKER/LOCATER V4.66.93.0                                                        04/08/2024  14:48:14  PAGE 120


      00FF338FH   LINE      ---      ---       #589
      00FF3398H   LINE      ---      ---       #590
      00FF33A1H   LINE      ---      ---       #591
      00FF33A9H   LINE      ---      ---       #592
      00FF33B1H   LINE      ---      ---       #602
      00FF33DAH   LINE      ---      ---       #605
      00FF33E0H   LINE      ---      ---       #609
      00FF33F2H   LINE      ---      ---       #610
      00FF33FAH   LINE      ---      ---       #611
      00FF3400H   LINE      ---      ---       #612
      00FF3400H   LINE      ---      ---       #613
      00FF3406H   LINE      ---      ---       #617
      00FF3418H   LINE      ---      ---       #618
      00FF3420H   LINE      ---      ---       #619
      00FF3429H   LINE      ---      ---       #620
      00FF3429H   LINE      ---      ---       #621
      00FF3438H   LINE      ---      ---       #625
      00FF344AH   LINE      ---      ---       #626
      00FF3452H   LINE      ---      ---       #627
      00FF345BH   LINE      ---      ---       #628
      00FF345BH   LINE      ---      ---       #630
      00FF346BH   LINE      ---      ---       #631
      00FF3475H   LINE      ---      ---       #632
      00FF3485H   LINE      ---      ---       #634
      0000B61BH   SYMBOL    EDATA    BYTE      rssi
      ---         BLOCKEND  CODE     ---       LVL=2
      00FF3495H   LINE      ---      ---       #635
      00FF3495H   LINE      ---      ---       #638
      00FF349BH   LINE      ---      ---       #640
      00FF34A4H   LINE      ---      ---       #643
      00FF34ACH   LINE      ---      ---       #644
      00FF34B4H   LINE      ---      ---       #645
      00FF34BCH   LINE      ---      ---       #646
      00FF34C4H   LINE      ---      ---       #647
      00FF34CEH   LINE      ---      ---       #648
      00FF34CEH   LINE      ---      ---       #652
      00FF34E0H   LINE      ---      ---       #655
      00FF34E0H   LINE      CODE     ---       #655
      ---         BLOCKEND  CODE     ---       LVL=0

      00FF5D49H   BLOCK     CODE     ---       LVL=0
      00FF5D49H   LINE      ---      ---       #659
      00FF5D4BH   LINE      ---      ---       #660
      00FF5D4BH   BLOCK     CODE     NEAR LAB  LVL=1
      00FF5D4BH   LINE      ---      ---       #663
      00FF5D56H   LINE      ---      ---       #665
      00FF5D61H   LINE      ---      ---       #667
      00FF5D64H   LINE      ---      ---       #670
      00FF5D6DH   LINE      ---      ---       #673
      00FF5D81H   LINE      ---      ---       #677
      00FF5D89H   LINE      ---      ---       #678
      00FF5D8BH   LINE      ---      ---       #680
      00FF5D90H   LINE      ---      ---       #683
      00FF5D9AH   LINE      ---      ---       #685
      00FF5DB9H   LINE      ---      ---       #686
      00FF5DC1H   LINE      ---      ---       #687
      00FF5DC1H   LINE      ---      ---       #688
      00FF5DD6H   LINE      ---      ---       #692
      00FF5DD6H   LINE      ---      ---       #696
      00FF5DE4H   LINE      ---      ---       #697
      00FF5DECH   LINE      ---      ---       #700
      00FF5DF2H   LINE      ---      ---       #705
      00FF5DF4H   LINE      ---      ---       #706
      00FF5DF7H   LINE      ---      ---       #707
      00FF5DF7H   LINE      ---      ---       #708
L251 LINKER/LOCATER V4.66.93.0                                                        04/08/2024  14:48:14  PAGE 121


      R11         REGSYM    ---      BYTE      retValue
      ---         BLOCKEND  CODE     ---       LVL=1
      00FF5DF7H   LINE      ---      ---       #709
      00FF5DF7H   LINE      CODE     ---       #709

      00FF9C55H   BLOCK     CODE     ---       LVL=0
      00FF9C55H   LINE      ---      ---       #711
      00FF9C59H   LINE      ---      ---       #712
      00FF9C59H   BLOCK     CODE     NEAR LAB  LVL=1
      00FF9C59H   LINE      ---      ---       #713
      00FF9C62H   LINE      ---      ---       #718
      00FF9C64H   LINE      ---      ---       #720
      00FF9C78H   LINE      ---      ---       #721
      00FF9C7FH   LINE      ---      ---       #725
      00FF9C8CH   LINE      ---      ---       #727
      00FF9C96H   LINE      ---      ---       #728
      00FF9C96H   LINE      ---      ---       #729
      00FF9CB6H   LINE      ---      ---       #730
      WR14        REGSYM    ---      WORD      bufferAddress_LOCAL
      REG=3       REGSYM    ---      ---       pOutput
      R13         REGSYM    ---      BYTE      i
      ---         BLOCKEND  CODE     ---       LVL=1
      00FF9CC1H   LINE      ---      ---       #731
      00FF9CC1H   LINE      CODE     ---       #731

      00FF9CC6H   BLOCK     CODE     ---       LVL=0
      00FF9CC6H   LINE      ---      ---       #737
      00FF9CCAH   LINE      ---      ---       #738
      00FF9CCAH   BLOCK     CODE     NEAR LAB  LVL=1
      00FF9CCAH   LINE      ---      ---       #740
      00FF9CD1H   LINE      ---      ---       #743
      00FF9CD3H   LINE      ---      ---       #748
      00FF9CD5H   LINE      ---      ---       #750
      00FF9CE1H   LINE      ---      ---       #751
      00FF9CE7H   LINE      ---      ---       #756
      00FF9CF3H   LINE      ---      ---       #757
      00FF9CFCH   LINE      ---      ---       #759
      00FF9D08H   LINE      ---      ---       #765
      00FF9D12H   LINE      ---      ---       #768
      00FF9D1DH   LINE      ---      ---       #772
      00FF9D27H   LINE      ---      ---       #774
      00FF9D2AH   LINE      ---      ---       #775
      00FF9D2CH   LINE      ---      ---       #778
      00FF9D2EH   LINE      ---      ---       #780
      00FF9D55H   LINE      ---      ---       #782
      00FF9D62H   LINE      ---      ---       #783
      00FF9D65H   LINE      ---      ---       #784
      00FF9D6BH   LINE      ---      ---       #786
      00FF9D6BH   LINE      ---      ---       #787
      00FF9D6FH   LINE      ---      ---       #789
      00FF9D72H   LINE      ---      ---       #790
      00FF9D75H   LINE      ---      ---       #791
      00FF9D75H   LINE      ---      ---       #810
      00FF9D77H   LINE      ---      ---       #812
      00FF9D90H   LINE      ---      ---       #813
      00FF9D9DH   LINE      ---      ---       #814
      00FF9DA3H   LINE      ---      ---       #815
      00FF9DA3H   LINE      ---      ---       #820
      00FF9DA7H   LINE      ---      ---       #823
      00FF9DA9H   LINE      ---      ---       #824
      00FF9DB3H   LINE      ---      ---       #826
      00FF9DB6H   LINE      ---      ---       #827
      00FF9DB8H   LINE      ---      ---       #830
      00FF9DBAH   LINE      ---      ---       #832
      00FF9DD5H   LINE      ---      ---       #834
L251 LINKER/LOCATER V4.66.93.0                                                        04/08/2024  14:48:14  PAGE 122


      00FF9DD8H   LINE      ---      ---       #835
      00FF9DDCH   LINE      ---      ---       #836
      00FF9DDFH   LINE      ---      ---       #837
      00FF9DE5H   LINE      ---      ---       #839
      00FF9DE5H   LINE      ---      ---       #840
      00FF9DEDH   LINE      ---      ---       #842
      00FF9DF0H   LINE      ---      ---       #843
      00FF9DF3H   LINE      ---      ---       #844
      00FF9DF3H   LINE      ---      ---       #860
      00FF9DF7H   LINE      ---      ---       #863
      00FF9DF9H   LINE      ---      ---       #864
      00FF9E0DH   LINE      ---      ---       #866
      00FF9E10H   LINE      ---      ---       #867
      00FF9E12H   LINE      ---      ---       #870
      00FF9E14H   LINE      ---      ---       #872
      00FF9E41H   LINE      ---      ---       #875
      00FF9E45H   LINE      ---      ---       #876
      00FF9E48H   LINE      ---      ---       #877
      00FF9E4EH   LINE      ---      ---       #879
      00FF9E4EH   LINE      ---      ---       #880
      00FF9E52H   LINE      ---      ---       #882
      00FF9E55H   LINE      ---      ---       #883
      00FF9E58H   LINE      ---      ---       #884
      00FF9E58H   LINE      ---      ---       #916
      00FF9E5BH   LINE      ---      ---       #918
      00FF9E5BH   LINE      ---      ---       #922
      00FF9E5DH   LINE      ---      ---       #923
      00FF9E5FH   LINE      ---      ---       #925
      00FF9E67H   LINE      ---      ---       #927
      00FF9E6AH   LINE      ---      ---       #928
      00FF9E70H   LINE      ---      ---       #930
      00FF9E78H   LINE      ---      ---       #932
      00FF9E7BH   LINE      ---      ---       #933
      00FF9E7EH   LINE      ---      ---       #934
      00FF9E7EH   LINE      ---      ---       #945
      00FF9E84H   LINE      ---      ---       #948
      00FF9E88H   LINE      ---      ---       #949
      00FF9E8CH   LINE      ---      ---       #950
      00FF9E92H   LINE      ---      ---       #951
      00FF9E96H   LINE      ---      ---       #956
      00FF9E98H   LINE      ---      ---       #957
      00FF9EA6H   LINE      ---      ---       #959
      00FF9EA8H   LINE      ---      ---       #961
      00FF9EBFH   LINE      ---      ---       #963
      00FF9EC2H   LINE      ---      ---       #964
      00FF9EC8H   LINE      ---      ---       #966
      00FF9ECCH   LINE      ---      ---       #968
      00FF9ECFH   LINE      ---      ---       #969
      00FF9ED2H   LINE      ---      ---       #970
      00FF9ED2H   LINE      ---      ---       #990
      00FF9ED2H   LINE      ---      ---       #991
      00FF9ED2H   LINE      ---      ---       #993
      00000000H   STKSYM    ---      BYTE      frameType
      R6          REGSYM    ---      BYTE      i
      R7          REGSYM    ---      BYTE      match_found
      FFFFFFFEH   STKSYM    ---      ---       is_pan_num
      ---         BLOCKEND  CODE     ---       LVL=1
      00FF9ED4H   LINE      ---      ---       #994
      00FF9ED4H   LINE      CODE     ---       #994

      00FF3820H   BLOCK     CODE     ---       LVL=0
      00FF3820H   LINE      ---      ---       #1027
      00FF3828H   LINE      ---      ---       #1028
      00FF3828H   BLOCK     CODE     NEAR LAB  LVL=1
      00FF3828H   LINE      ---      ---       #1030
L251 LINKER/LOCATER V4.66.93.0                                                        04/08/2024  14:48:14  PAGE 123


      00FF3835H   LINE      ---      ---       #1035
      00FF3835H   LINE      ---      ---       #1036
      00FF3838H   LINE      ---      ---       #1041
      00FF383BH   LINE      ---      ---       #1042
      00FF383EH   LINE      ---      ---       #1050
      00FF384AH   LINE      ---      ---       #1051
      00FF384EH   LINE      ---      ---       #1052
      00FF3850H   LINE      ---      ---       #1053
      00FF3850H   LINE      ---      ---       #1058
      00FF3853H   LINE      ---      ---       #1061
      00FF386CH   LINE      ---      ---       #1063
      00FF3873H   LINE      ---      ---       #1066
      00FF3876H   LINE      ---      ---       #1068
      00FF387AH   LINE      ---      ---       #1069
      00FF387CH   LINE      ---      ---       #1070
      00FF387CH   LINE      ---      ---       #1079
      00FF3886H   LINE      ---      ---       #1080
      00FF38A4H   LINE      ---      ---       #1081
      00FF38A6H   LINE      ---      ---       #1082
      00FF38B6H   LINE      ---      ---       #1083
      00FF38B9H   LINE      ---      ---       #1084
      00FF38B9H   LINE      ---      ---       #1090
      00FF38C5H   LINE      ---      ---       #1093
      00FF38CBH   LINE      ---      ---       #1095
      00FF38D0H   LINE      ---      ---       #1096
      00FF38D0H   LINE      ---      ---       #1098
      00FF38D5H   LINE      ---      ---       #1104
      00FF38DFH   LINE      ---      ---       #1106
      00FF38E3H   LINE      ---      ---       #1107
      00FF38E5H   LINE      ---      ---       #1109
      00FF38E9H   LINE      ---      ---       #1110
      00FF38EBH   LINE      ---      ---       #1113
      00FF38F2H   LINE      ---      ---       #1115
      00FF38F5H   LINE      ---      ---       #1117
      00FF3901H   LINE      ---      ---       #1119
      00FF3907H   LINE      ---      ---       #1120
      00FF390DH   LINE      ---      ---       #1122
      00FF3924H   LINE      ---      ---       #1125
      00FF3946H   LINE      ---      ---       #1126
      00FF3953H   LINE      ---      ---       #1127
      00FF3953H   LINE      ---      ---       #1129
      00FF395DH   LINE      ---      ---       #1131
      00FF3960H   LINE      ---      ---       #1133
      00FF3976H   LINE      ---      ---       #1135
      00FF3979H   LINE      ---      ---       #1137
      00FF397FH   LINE      ---      ---       #1140
      00FF3987H   LINE      ---      ---       #1141
      00FF398DH   LINE      ---      ---       #1142
      00FF3991H   LINE      ---      ---       #1144
      00FF3997H   LINE      ---      ---       #1146
      00FF399DH   LINE      ---      ---       #1148
      00FF39A8H   LINE      ---      ---       #1149
      00FF39ACH   LINE      ---      ---       #1150
      00FF39AEH   LINE      ---      ---       #1153
      00FF39B9H   LINE      ---      ---       #1154
      00FF39BDH   LINE      ---      ---       #1155
      00FF39BDH   LINE      ---      ---       #1156
      00FF39BFH   LINE      ---      ---       #1159
      00FF39D2H   LINE      ---      ---       #1160
      00FF39E3H   LINE      ---      ---       #1161
      00FF39F3H   LINE      ---      ---       #1162
      00FF39F3H   LINE      ---      ---       #1163
      00FF39F3H   LINE      ---      ---       #1168
      00FF39F9H   LINE      ---      ---       #1170
      00FF3A03H   LINE      ---      ---       #1171
L251 LINKER/LOCATER V4.66.93.0                                                        04/08/2024  14:48:14  PAGE 124


      FFFFFFFFH   STKSYM    ---      WORD      bufferAddress_LOCAL
      REG=3       REGSYM    ---      ---       pOutput
      FFFFFFFEH   STKSYM    ---      BYTE      channelTmp
      R10         REGSYM    ---      BYTE      macRxInfo
      R14         REGSYM    ---      BYTE      isCrcPass
      R14         REGSYM    ---      BYTE      srcAddrType
      R5          REGSYM    ---      BYTE      listidx
      00FF3A03H   BLOCK     CODE     NEAR LAB  LVL=2
      00FF3A03H   LINE      ---      ---       #1174
      00FF3A11H   LINE      ---      ---       #1176
      00FF3A1CH   LINE      ---      ---       #1177
      00FF3A20H   LINE      ---      ---       #1179
      00FF3A22H   LINE      ---      ---       #1180
      00FF3A24H   LINE      ---      ---       #1182
      00FF3A28H   LINE      ---      ---       #1184
      00FF3A39H   LINE      ---      ---       #1185
      00FF3A3BH   LINE      ---      ---       #1188
      00FF3A4CH   LINE      ---      ---       #1189
      00FF3A4CH   LINE      ---      ---       #1190
      00FF3A5AH   LINE      ---      ---       #1202
      00FF3A6DH   LINE      ---      ---       #1203
      00FF3A75H   LINE      ---      ---       #1204
      00FF3A7DH   LINE      ---      ---       #1205
      R15         REGSYM    ---      BYTE      status
      ---         BLOCKEND  CODE     ---       LVL=2
      00FF3A85H   LINE      ---      ---       #1206
      00FF3A85H   LINE      ---      ---       #1211
      00FF3A88H   LINE      ---      ---       #1213
      00FF3A8DH   LINE      ---      ---       #1217
      00FF3A96H   LINE      ---      ---       #1219
      00FF3A99H   LINE      ---      ---       #1221
      00FF3AA8H   LINE      ---      ---       #1225
      00FF3AC0H   LINE      ---      ---       #1227
      00FF3AC7H   LINE      ---      ---       #1229
      00FF3ACAH   LINE      ---      ---       #1231
      00FF3ACEH   LINE      ---      ---       #1232
      00FF3ACEH   LINE      ---      ---       #1235
      00FF3AD1H   LINE      ---      ---       #1237
      00FF3AD7H   LINE      ---      ---       #1238
      00FF3ADDH   LINE      ---      ---       #1240
      00FF3AE0H   LINE      ---      ---       #1243
      00FF3AFBH   LINE      ---      ---       #1244
      00FF3B04H   LINE      ---      ---       #1247
      00FF3B0EH   LINE      ---      ---       #1249
      00FF3B12H   LINE      ---      ---       #1250
      00FF3B14H   LINE      ---      ---       #1252
      00FF3B18H   LINE      ---      ---       #1254
      00FF3B1AH   LINE      ---      ---       #1258
      00FF3B20H   LINE      ---      ---       #1260
      00FF3B25H   LINE      ---      ---       #1261
      00FF3B25H   LINE      ---      ---       #1264
      00FF3B2AH   LINE      ---      ---       #1267
      00FF3B34H   LINE      ---      ---       #1269
      00FF3B38H   LINE      ---      ---       #1270
      00FF3B3AH   LINE      ---      ---       #1272
      00FF3B3EH   LINE      ---      ---       #1273
      00FF3B3EH   LINE      ---      ---       #1275
      00FF3B3EH   LINE      ---      ---       #1276
      00FF3B40H   LINE      ---      ---       #1279
      00FF3B43H   LINE      ---      ---       #1281
      00FF3B49H   LINE      ---      ---       #1282
      00FF3B4FH   LINE      ---      ---       #1284
      00FF3B54H   LINE      ---      ---       #1288
      00FF3B57H   LINE      ---      ---       #1292
      00FF3B6BH   LINE      ---      ---       #1297
L251 LINKER/LOCATER V4.66.93.0                                                        04/08/2024  14:48:14  PAGE 125


      00FF3B6FH   LINE      ---      ---       #1298
      00FF3B71H   LINE      ---      ---       #1300
      00FF3B75H   LINE      ---      ---       #1302
      00FF3B75H   LINE      ---      ---       #1303
      00FF3B77H   LINE      ---      ---       #1306
      00FF3B7AH   LINE      ---      ---       #1308
      00FF3B80H   LINE      ---      ---       #1309
      00FF3B86H   LINE      ---      ---       #1311
      00FF3B8BH   LINE      ---      ---       #1315
      00FF3B8EH   LINE      ---      ---       #1319
      00FF3BA2H   LINE      ---      ---       #1324
      00FF3BA6H   LINE      ---      ---       #1325
      00FF3BA8H   LINE      ---      ---       #1327
      00FF3BAFH   LINE      ---      ---       #1328
      00FF3BAFH   LINE      ---      ---       #1329
      00FF3BAFH   LINE      ---      ---       #1331
      00FF3BAFH   LINE      CODE     ---       #1331
      ---         BLOCKEND  CODE     ---       LVL=0

      00FF6613H   BLOCK     CODE     ---       LVL=0
      00FF6613H   LINE      ---      ---       #1334
      00FF6613H   LINE      ---      ---       #1337
      00FF661AH   LINE      ---      ---       #1340
      00FF6620H   LINE      ---      ---       #1342
      00FF6625H   LINE      ---      ---       #1343
      00FF6625H   LINE      ---      ---       #1346
      ---         BLOCKEND  ---      ---       LVL=0

      00FF9952H   BLOCK     CODE     ---       LVL=0
      00FF9952H   LINE      ---      ---       #1351
      00FF9952H   LINE      ---      ---       #1353
      ---         BLOCKEND  ---      ---       LVL=0

      00FF9431H   BLOCK     CODE     ---       LVL=0
      00FF9431H   LINE      ---      ---       #1355
      00FF9433H   LINE      ---      ---       #1356
      00FF9433H   BLOCK     CODE     NEAR LAB  LVL=1
      00FF9433H   LINE      ---      ---       #1360
      00FF9441H   LINE      ---      ---       #1362
      00FF944FH   LINE      ---      ---       #1364
      00FF944FH   LINE      ---      ---       #1365
      00FF944FH   LINE      ---      ---       #1368
      00FF9452H   LINE      ---      ---       #1369
      00FF9455H   LINE      ---      ---       #1397
      DR0         REGSYM    ---      LONG      rx_time_letf
      00FF9455H   BLOCK     CODE     NEAR LAB  LVL=2
      00FF9455H   LINE      ---      ---       #1399
      00FF945DH   LINE      ---      ---       #1400
      00FF9465H   LINE      ---      ---       #1401
      00FF946DH   LINE      ---      ---       #1402
      00FF9475H   LINE      ---      ---       #1403
      0000B509H   SYMBOL    EDATA    ---       cb
      ---         BLOCKEND  CODE     ---       LVL=2
      00FF947CH   BLOCK     CODE     NEAR LAB  LVL=2
      00FF947CH   LINE      ---      ---       #1404
      00FF947CH   LINE      ---      ---       #1413
      0000B509H   SYMBOL    EDATA    ---       rxScanCfg
      R15         REGSYM    ---      BYTE      channelTmp
      ---         BLOCKEND  CODE     ---       LVL=2
      00FF947CH   LINE      ---      ---       #1417
      00FF948CH   LINE      ---      ---       #1419
      00FF948EH   LINE      ---      ---       #1421
      00FF94A6H   LINE      ---      ---       #1422
      00FF94ADH   LINE      ---      ---       #1423
      00FF94B5H   LINE      ---      ---       #1424
L251 LINKER/LOCATER V4.66.93.0                                                        04/08/2024  14:48:14  PAGE 126


      00FF94C6H   LINE      ---      ---       #1425
      00FF94D0H   LINE      ---      ---       #1426
      00FF94E0H   LINE      ---      ---       #1427
      00FF94F1H   LINE      ---      ---       #1428
      00FF94FBH   LINE      ---      ---       #1429
      00FF950EH   LINE      ---      ---       #1430
      00FF9514H   LINE      ---      ---       #1431
      00FF9519H   LINE      ---      ---       #1432
      00FF9519H   LINE      CODE     ---       #1432
      ---         BLOCKEND  CODE     ---       LVL=0

      00FF24CBH   BLOCK     CODE     ---       LVL=0
      00FF24CBH   LINE      ---      ---       #1531
      00FF24CBH   LINE      ---      ---       #1532
      00FF24CBH   BLOCK     CODE     NEAR LAB  LVL=1
      00FF24CBH   LINE      ---      ---       #1533
      00FF24CBH   LINE      ---      ---       #1545
      00FF24D7H   LINE      ---      ---       #1547
      00FF24D7H   LINE      ---      ---       #1549
      00FF24E1H   LINE      ---      ---       #1551
      00FF24E4H   LINE      ---      ---       #1554
      00FF24E6H   LINE      ---      ---       #1555
      00FF24E9H   LINE      ---      ---       #1556
      00FF24EBH   LINE      ---      ---       #1557
      00FF24F2H   LINE      ---      ---       #1579
      00FF24F5H   LINE      ---      ---       #1581
      00FF24F7H   LINE      ---      ---       #1582
      00FF24FEH   LINE      ---      ---       #1584
      00FF2509H   LINE      ---      ---       #1585
      00FF250BH   LINE      ---      ---       #1586
      00FF250BH   LINE      ---      ---       #1598
      00FF250BH   LINE      ---      ---       #1601
      00FF250DH   LINE      ---      ---       #1616
      00FF2513H   LINE      ---      ---       #1618
      00FF2516H   LINE      ---      ---       #1633
      00FF2518H   LINE      ---      ---       #1645
      00FF251CH   LINE      ---      ---       #1646
      00FF251EH   LINE      ---      ---       #1648
      00FF2524H   LINE      ---      ---       #1650
      00FF2527H   LINE      ---      ---       #1651
      00FF2531H   LINE      ---      ---       #1653
      00FF2534H   LINE      ---      ---       #1654
      00FF2535H   LINE      ---      ---       #1655
      00FF2535H   LINE      ---      ---       #1657
      00FF253FH   LINE      ---      ---       #1659
      00FF2542H   LINE      ---      ---       #1660
      00FF254AH   LINE      ---      ---       #1661
      00FF254BH   LINE      ---      ---       #1662
      00FF254BH   LINE      ---      ---       #1664
      00FF2553H   LINE      ---      ---       #1665
      00FF2559H   LINE      ---      ---       #1667
      00FF2562H   LINE      ---      ---       #1668
      WR6         REGSYM    ---      WORD      macFunEventQueue
      0000B66FH   SYMBOL    EDATA    BYTE      result
      ---         BLOCKEND  CODE     ---       LVL=1
      00FF2562H   LINE      ---      ---       #1711
      00FF2562H   LINE      CODE     ---       #1711

      00FF9953H   BLOCK     CODE     ---       LVL=0
      00FF9953H   LINE      ---      ---       #1713
      00FF9953H   LINE      ---      ---       #1714
      00FF9953H   BLOCK     CODE     NEAR LAB  LVL=1
      00FF9953H   LINE      ---      ---       #1715
      00FF9953H   LINE      ---      ---       #1717
      00FF9956H   LINE      ---      ---       #1718
L251 LINKER/LOCATER V4.66.93.0                                                        04/08/2024  14:48:14  PAGE 127


      00FF9974H   LINE      ---      ---       #1720
      00FF9974H   LINE      ---      ---       #1721
      00FF9974H   LINE      ---      ---       #1723
      00FF9977H   LINE      ---      ---       #1728
      00FF997BH   LINE      ---      ---       #1729
      00FF997DH   LINE      ---      ---       #1730
      00FF997DH   LINE      ---      ---       #1732
      00FF9980H   LINE      ---      ---       #1738
      00FF998CH   LINE      ---      ---       #1739
      00FF998EH   LINE      ---      ---       #1741
      00FF9992H   LINE      ---      ---       #1742
      00FF9994H   LINE      ---      ---       #1743
      00FF9994H   LINE      ---      ---       #1744
      00FF9998H   LINE      ---      ---       #1745
      00FF999AH   LINE      ---      ---       #1746
      00FF999AH   LINE      ---      ---       #1747
      00FF999AH   LINE      ---      ---       #1748
      00FF99A2H   LINE      ---      ---       #1749
      00FF99A4H   LINE      ---      ---       #1750
      00FF99A4H   LINE      ---      ---       #1751
      00FF99A7H   LINE      ---      ---       #1752
      00FF99A7H   LINE      ---      ---       #1753
      00FF99A7H   LINE      ---      ---       #1754
      WR6         REGSYM    ---      WORD      macFunEventQueue
      ---         BLOCKEND  CODE     ---       LVL=1
      ---         BLOCKEND  CODE     ---       LVL=0

      00FF662CH   BLOCK     CODE     ---       LVL=0
      00FF662CH   LINE      ---      ---       #1758
      00FF662CH   LINE      ---      ---       #1759
      00FF662CH   BLOCK     CODE     NEAR LAB  LVL=1
      00FF662CH   LINE      ---      ---       #1777
      00FF662FH   LINE      ---      ---       #1778
      00FF6635H   LINE      ---      ---       #1780
      00FF6638H   LINE      ---      ---       #1781
      00FF663BH   LINE      ---      ---       #1788
      00FF663DH   LINE      ---      ---       #1791
      00FF6647H   LINE      ---      ---       #1793
      00FF664FH   LINE      ---      ---       #1795
      00FF6653H   LINE      ---      ---       #1801
      00FF6653H   LINE      ---      ---       #1803
      00FF665BH   LINE      ---      ---       #1804
      WR6         REGSYM    ---      WORD      macFunEventQueue
      ---         BLOCKEND  CODE     ---       LVL=1
      ---         BLOCKEND  CODE     ---       LVL=0

      00FF99EAH   BLOCK     CODE     ---       LVL=0
      00FF99EAH   LINE      ---      ---       #1808
      00FF99EAH   LINE      ---      ---       #1832
      ---         BLOCKEND  ---      ---       LVL=0

      00FF99EBH   BLOCK     CODE     ---       LVL=0
      00FF99EBH   LINE      ---      ---       #1834
      00FF99EBH   LINE      ---      ---       #1836
      00FF99EEH   LINE      ---      ---       #1837
      00FF99F1H   LINE      ---      ---       #1845
      00FF99F4H   LINE      ---      ---       #1850
      00FF99FAH   LINE      ---      ---       #1852
      00FF9A00H   LINE      ---      ---       #1853
      00FF9A06H   LINE      ---      ---       #1854
      00FF9A15H   LINE      ---      ---       #1855
      00FF9A27H   LINE      ---      ---       #1856
      00FF9A31H   LINE      ---      ---       #1857
      00FF9A31H   LINE      ---      ---       #1861
      00FF9A34H   LINE      ---      ---       #1872
L251 LINKER/LOCATER V4.66.93.0                                                        04/08/2024  14:48:14  PAGE 128


      00FF9A39H   LINE      ---      ---       #1875
      ---         BLOCKEND  ---      ---       LVL=0

      00FF9A3AH   BLOCK     CODE     ---       LVL=0
      00FF9A3AH   LINE      ---      ---       #1877
      00FF9A3AH   LINE      ---      ---       #1879
      ---         BLOCKEND  ---      ---       LVL=0

      00FF822CH   BLOCK     CODE     ---       LVL=0
      00FF822CH   LINE      ---      ---       #1881
      00FF822CH   LINE      ---      ---       #1884
      00FF8233H   LINE      ---      ---       #1886
      00FF8233H   LINE      ---      ---       #1887
      00FF8233H   LINE      ---      ---       #1892
      00FF823FH   LINE      ---      ---       #1893
      ---         BLOCKEND  ---      ---       LVL=0

      00FF9A3BH   BLOCK     CODE     ---       LVL=0
      00FF9A3BH   LINE      ---      ---       #1897
      00FF9A3BH   LINE      ---      ---       #1899
      00FF9A42H   LINE      ---      ---       #1901
      00FF9A50H   LINE      ---      ---       #1906
      00FF9A57H   LINE      ---      ---       #1907
      ---         BLOCKEND  ---      ---       LVL=0

      00FF8749H   BLOCK     CODE     ---       LVL=0
      00FF8749H   LINE      ---      ---       #1925
      00FF8749H   LINE      ---      ---       #1937
      00FF8759H   LINE      ---      ---       #1942
      00FF875BH   LINE      ---      ---       #1945
      00FF8761H   LINE      ---      ---       #1952
      00FF8764H   LINE      ---      ---       #1969
      00FF8764H   LINE      ---      ---       #1973
      00FF876DH   LINE      ---      ---       #1974
      00FF876DH   LINE      ---      ---       #1975
      ---         BLOCKEND  ---      ---       LVL=0
      00FF9519H   LINE      ---      ---       #1436
      00FF951EH   LINE      ---      ---       #1438
      00FF9521H   LINE      ---      ---       #1441
      00FF9521H   LINE      ---      ---       #1443
      00FF952BH   LINE      ---      ---       #1445
      00FF952EH   LINE      ---      ---       #1446
      00FF9531H   LINE      ---      ---       #1457
      00FF9531H   LINE      ---      ---       #1461
      00FF9537H   LINE      ---      ---       #1464
      00FF9543H   LINE      ---      ---       #1466
      00FF9549H   LINE      ---      ---       #1467
      00FF954BH   LINE      ---      ---       #1468
      00FF954BH   LINE      ---      ---       #1472
      00FF9551H   LINE      ---      ---       #1474
      00FF9561H   LINE      ---      ---       #1477
      00FF9567H   LINE      ---      ---       #1479
      00FF956FH   LINE      ---      ---       #1481
      00FF957EH   LINE      ---      ---       #1482
      00FF9586H   LINE      ---      ---       #1483
      00FF9588H   LINE      ---      ---       #1486
      00FF9591H   LINE      ---      ---       #1487
      00FF9595H   LINE      ---      ---       #1488
      00FF9595H   LINE      ---      ---       #1489
      00FF9597H   LINE      ---      ---       #1492
      00FF959BH   LINE      ---      ---       #1493
      00FF959DH   LINE      ---      ---       #1498
      00FF95A9H   LINE      ---      ---       #1500
      00FF95ACH   LINE      ---      ---       #1501
      00FF95AEH   LINE      ---      ---       #1504
L251 LINKER/LOCATER V4.66.93.0                                                        04/08/2024  14:48:14  PAGE 129


      00FF95B7H   LINE      ---      ---       #1505
      00FF95B7H   LINE      ---      ---       #1512
      00FF95B7H   LINE      ---      ---       #1513
      00FF95B9H   LINE      ---      ---       #1517
      00FF95C5H   LINE      ---      ---       #1518
      00FF95C9H   LINE      ---      ---       #1520
      00FF95CBH   LINE      ---      ---       #1524
      00FF95CBH   LINE      ---      ---       #1526
      00FF95D7H   LINE      ---      ---       #1528
      00FF95DFH   LINE      ---      ---       #1529
      00FF3BB0H   LINE      ---      ---       #1332
      00FF34EEH   LINE      ---      ---       #656

      ---         MODULE    ---      ---       mac_TarSchedule
      00FF9ED9H   PUBLIC    CODE     ---       mac_Tar_SchInitHdlr
      00FF5C1BH   PUBLIC    CODE     ---       mac_Tar_SchConfigHdlr
      00FF810AH   PUBLIC    CODE     ---       mac_Tar_SchWaitCCADoneHdlr
      00FF66AEH   PUBLIC    CODE     ---       mac_Tar_SchWaitTxDoneHdlr
      00FF665CH   PUBLIC    CODE     ---       mac_Tar_SchWaitAckRxMHRHdlr
      00FF28C8H   PUBLIC    CODE     ---       mac_Tar_SchWaitAckRxDoneHdlr
      00FF64CEH   PUBLIC    CODE     ---       mac_Tar_SchWaitNormalRxMsgHdlr
      00FF65E3H   PUBLIC    CODE     ---       mac_Tar_SchWaitNormalAckDoneHdlr
      00FF9EDAH   PUBLIC    CODE     ---       mac_Tar_SchEndHdlr
      00FF9F0AH   PUBLIC    CODE     ---       mac_Tar_SchReservedHdlr
      00FF8240H   PUBLIC    CODE     ---       MAC_TarSchedule
      00FF27F1H   PUBLIC    CODE     ---       MAC_TarParInit
      00FF6435H   PUBLIC    CODE     ---       MacTxFreeBmuData
      00FF264CH   PUBLIC    CODE     ---       Mac_TxGetBmuData
      00FF27EBH   PUBLIC    CODE     ---       mac_org_tx_done_handler
      00FF9F0BH   PUBLIC    CODE     ---       mac_org_cca_done_handler
      00FF5AD8H   PUBLIC    CODE     ---       MAC_TxHwSet
      00FF2D85H   PUBLIC    CODE     ---       MAC_RxHwSet
      00FF3048H   PUBLIC    CODE     ---       MAC_BackoffTimeCal
      00FF9F24H   PUBLIC    CODE     ---       MAC_AckFrameCheck
      00FF6454H   PUBLIC    CODE     ---       MAC_TxDoneEventGen
      00FF5B6EH   PUBLIC    CODE     ---       MAC_TxTaskSet
      00FFA055H   PUBLIC    CODE     ---       mac_tar_check_data_requst
      00FF5F47H   PUBLIC    CODE     ---       MAC_SecLbHwSet
      00FF5F1DH   PUBLIC    CODE     ---       MAC_TxStart
      00FF5B34H   PUBLIC    CODE     ---       MAC_VCO_TxStart
      00FF3038H   PUBLIC    CODE     ---       MAC_WaitforRxTaskReady
      00FF2FEDH   PUBLIC    CODE     ---       MAC_CcaStart
      00FF808EH   PUBLIC    CODE     ---       MAC_CcaStatusGet
      00FF2FE9H   PUBLIC    CODE     ---       mac_tar_cca_setup
      0000A000H   PUBLIC    EDATA    INT       gMacTarState
      0000A002H   PUBLIC    EDATA    ---       gMacTxPar
      0000A024H   PUBLIC    EDATA    ---       gMacRxPar
      0000A09DH   PUBLIC    EDATA    ---       gMacHdr
      0000A0E0H   PUBLIC    EDATA    ---       gMacBuf
      0000A918H   PUBLIC    EDATA    ---       gPhyStatus
      0000A91DH   PUBLIC    EDATA    BYTE      gRetransmissionCount
      0000A91EH   PUBLIC    EDATA    BYTE      gCsmacaRetry
      0000A91FH   PUBLIC    EDATA    BYTE      gBackoffExpIdx
      0000A920H   PUBLIC    EDATA    ---       gTar_ScheHandler_Entry
      000000A8H.7 SFRSYM    DATA     BIT       EA
      00000080H   SFRSYM    DATA     BYTE      P0

      00FF5ACBH   BLOCK     CODE     ---       LVL=0
      00FF5AD8H   LINE      ---      ---       #91
      00FF5AE4H   LINE      ---      ---       #92
      00FF5ACBH   SYMBOL    CODE     NEAR LAB  ?L?COM0025
      R11         REGSYM    ---      BYTE      bLocalTxQueue
      R10         REGSYM    ---      BYTE      txQueueIdx
      0000B644H   SYMBOL    EDATA    INT       aesLv
      WR12        REGSYM    ---      WORD      aDataLen
L251 LINKER/LOCATER V4.66.93.0                                                        04/08/2024  14:48:14  PAGE 130


      WR14        REGSYM    ---      WORD      mDataLen
      00FF5AE4H   BLOCK     CODE     NEAR LAB  LVL=1
      00FF5AE4H   LINE      ---      ---       #96
      00FF5AE6H   LINE      ---      ---       #98
      00FF5AECH   LINE      ---      ---       #99
      00FF5AEDH   LINE      ---      ---       #100
      00FF5AEFH   LINE      ---      ---       #103
      00FF5AFBH   LINE      ---      ---       #105
      00FF5B01H   LINE      ---      ---       #106
      00FF5B05H   LINE      ---      ---       #109
      00FF5B0EH   LINE      ---      ---       #110
      00FF5B0EH   LINE      ---      ---       #119
      00FF5B14H   LINE      ---      ---       #121
      00FF5B17H   LINE      ---      ---       #122
      00FF5B17H   LINE      ---      ---       #125
      00FF5B2FH   LINE      ---      ---       #133
      0000B646H   SYMBOL    EDATA    BYTE      retValue
      ---         BLOCKEND  CODE     ---       LVL=1
      00FF5B31H   LINE      ---      ---       #134
      00FF5B31H   LINE      CODE     ---       #134

      00FF2D82H   BLOCK     CODE     ---       LVL=0
      00FF2D85H   LINE      ---      ---       #136
      00FF2D8DH   LINE      ---      ---       #137
      00FF2D82H   SYMBOL    CODE     NEAR LAB  ?L?COM003B
      R7          REGSYM    ---      BYTE      bLocalRxQueue
      WR14        REGSYM    ---      INT       aesLv
      00FF2D8DH   BLOCK     CODE     NEAR LAB  LVL=1
      00FF2D8DH   LINE      ---      ---       #141
      00FF2D91H   LINE      ---      ---       #143
      00FF2D99H   LINE      ---      ---       #144
      00FF2D9AH   LINE      ---      ---       #145
      00FF2D9CH   LINE      ---      ---       #148
      00FF2DA2H   LINE      ---      ---       #149
      00FF2DABH   LINE      ---      ---       #150
      00FF2DABH   LINE      ---      ---       #158
      00FF2DAFH   LINE      ---      ---       #160
      00FF2DB2H   LINE      ---      ---       #161
      00FF2DB2H   LINE      ---      ---       #164
      00FF2DB6H   LINE      ---      ---       #168
      00FF2DCDH   LINE      ---      ---       #169
      00FF2DCFH   LINE      ---      ---       #174
      00FF2DEEH   LINE      ---      ---       #175
      00FF2DEEH   LINE      ---      ---       #183
      R13         REGSYM    ---      BYTE      retValue
      ---         BLOCKEND  CODE     ---       LVL=1
      00FF2DF0H   LINE      ---      ---       #184
      00FF2DF0H   LINE      CODE     ---       #184

      00FF3048H   BLOCK     CODE     ---       LVL=0
      00FF3048H   LINE      ---      ---       #187
      00FF304CH   LINE      ---      ---       #188
      REG=7       REGSYM    ---      ---       backoffDuration
      00FF304CH   BLOCK     CODE     NEAR LAB  LVL=1
      00FF304CH   LINE      ---      ---       #191
      00FF3057H   LINE      ---      ---       #192
      00FF306CH   LINE      ---      ---       #193
      0000B670H   SYMBOL    EDATA    BYTE      randValue
      R7          REGSYM    ---      BYTE      backoffExp
      ---         BLOCKEND  CODE     ---       LVL=1
      00FF307EH   LINE      ---      ---       #194
      00FF307EH   LINE      CODE     ---       #194

      00FF9F24H   BLOCK     CODE     ---       LVL=0
      00FF9F24H   LINE      ---      ---       #199
L251 LINKER/LOCATER V4.66.93.0                                                        04/08/2024  14:48:14  PAGE 131


      00FF9F26H   LINE      ---      ---       #200
      R5          REGSYM    ---      BYTE      dsn
      00FF9F26H   BLOCK     CODE     NEAR LAB  LVL=1
      00FF9F26H   LINE      ---      ---       #201
      00FF9F28H   LINE      ---      ---       #205
      00FF9F2AH   LINE      ---      ---       #210
      00FF9F2CH   LINE      ---      ---       #212
      00FF9F33H   LINE      ---      ---       #213
      00FF9F39H   LINE      ---      ---       #217
      00FF9F45H   LINE      ---      ---       #219
      00FF9F4BH   LINE      ---      ---       #221
      00FF9F4EH   LINE      ---      ---       #222
      00FF9F4EH   LINE      ---      ---       #224
      00FF9F63H   LINE      ---      ---       #227
      00FF9F69H   LINE      ---      ---       #229
      00FF9F6BH   LINE      ---      ---       #231
      00FF9F90H   LINE      ---      ---       #233
      00FF9F98H   LINE      ---      ---       #234
      00FF9F9BH   LINE      ---      ---       #235
      00FF9FA1H   LINE      ---      ---       #237
      00FF9FA5H   LINE      ---      ---       #239
      00FF9FA8H   LINE      ---      ---       #240
      00FF9FAAH   LINE      ---      ---       #241
      00FF9FAAH   LINE      ---      ---       #245
      00FF9FACH   LINE      ---      ---       #247
      00FF9FC3H   LINE      ---      ---       #248
      00FF9FCBH   LINE      ---      ---       #249
      00FF9FD1H   LINE      ---      ---       #250
      00FF9FD1H   LINE      ---      ---       #252
      00FF9FDAH   LINE      ---      ---       #254
      00FF9FE1H   LINE      ---      ---       #256
      00FF9FE3H   LINE      ---      ---       #257
      00FF9FE5H   LINE      ---      ---       #259
      00FF9FFBH   LINE      ---      ---       #260
      00FF9FFEH   LINE      ---      ---       #261
      00FFA004H   LINE      ---      ---       #262
      00FFA008H   LINE      ---      ---       #264
      00FFA00BH   LINE      ---      ---       #265
      00FFA00DH   LINE      ---      ---       #266
      00FFA00FH   LINE      ---      ---       #270
      00FFA011H   LINE      ---      ---       #271
      00FFA013H   LINE      ---      ---       #273
      00FFA040H   LINE      ---      ---       #275
      00FFA043H   LINE      ---      ---       #276
      00FFA049H   LINE      ---      ---       #277
      00FFA04DH   LINE      ---      ---       #279
      00FFA050H   LINE      ---      ---       #280
      00FFA052H   LINE      ---      ---       #281
      00FFA052H   LINE      ---      ---       #283
      00FFA052H   LINE      ---      ---       #314
      00FFA052H   LINE      ---      ---       #315
      R4          REGSYM    ---      BYTE      retValue
      R6          REGSYM    ---      BYTE      i
      R7          REGSYM    ---      BYTE      match_found
      0000B659H   SYMBOL    EDATA    ---       is_pan_num
      ---         BLOCKEND  CODE     ---       LVL=1
      00FFA054H   LINE      ---      ---       #316
      00FFA054H   LINE      CODE     ---       #316

      00FF644CH   BLOCK     CODE     ---       LVL=0
      00FF6454H   LINE      ---      ---       #320
      00FF6458H   LINE      ---      ---       #321
      00FF644CH   SYMBOL    CODE     NEAR LAB  ?L?COM0004
      R15         REGSYM    ---      BYTE      txState
      R7          REGSYM    ---      BYTE      localTxQueue
L251 LINKER/LOCATER V4.66.93.0                                                        04/08/2024  14:48:14  PAGE 132


      R6          REGSYM    ---      BYTE      txQueueIdx
      00FF6458H   BLOCK     CODE     NEAR LAB  LVL=1
      00FF6458H   LINE      ---      ---       #323
      00FF6458H   LINE      ---      ---       #324
      00FF645BH   LINE      ---      ---       #326
      00FF645FH   LINE      ---      ---       #328
      00FF6463H   LINE      ---      ---       #329
      00FF6465H   LINE      ---      ---       #332
      00FF646DH   LINE      ---      ---       #333
      00FF646DH   LINE      ---      ---       #336
      00FF6486H   LINE      ---      ---       #338
      00FF6486H   LINE      ---      ---       #339
      00FF648FH   LINE      ---      ---       #340
      00FF6491H   LINE      ---      ---       #341
      00FF6491H   LINE      ---      ---       #342
      00FF649AH   LINE      ---      ---       #343
      00FF649CH   LINE      ---      ---       #344
      00FF649CH   LINE      ---      ---       #345
      00FF64A5H   LINE      ---      ---       #346
      00FF64A7H   LINE      ---      ---       #347
      00FF64A7H   LINE      ---      ---       #348
      00FF64B0H   LINE      ---      ---       #349
      00FF64B2H   LINE      ---      ---       #350
      00FF64B2H   LINE      ---      ---       #351
      00FF64BEH   LINE      ---      ---       #352
      00FF64BEH   LINE      ---      ---       #354
      00FF64BEH   LINE      ---      ---       #356
      00FF64C7H   LINE      ---      ---       #360
      00FF64C9H   LINE      ---      ---       #363
      R14         REGSYM    ---      BYTE      retValue
      ---         BLOCKEND  CODE     ---       LVL=1
      00FF64CBH   LINE      ---      ---       #364
      00FF64CBH   LINE      CODE     ---       #364

      00FF5B6EH   BLOCK     CODE     ---       LVL=0
      00FF5B6EH   LINE      ---      ---       #370
      00FF5B72H   LINE      ---      ---       #373
      00FF5B76H   LINE      ---      ---       #376
      00FF5B7BH   LINE      ---      ---       #385
      00FF5B7DH   LINE      ---      ---       #389
      00FF5B84H   LINE      ---      ---       #390
      00FF5B84H   LINE      ---      ---       #392
      R5          REGSYM    ---      BYTE      ackRequest
      WR6         REGSYM    ---      WORD      interFrameSpace
      DR28        REGSYM    ---      DWORD     ackWaitDuration
      ---         BLOCKEND  ---      ---       LVL=0

      00FFA055H   BLOCK     CODE     ---       LVL=0
      00FFA055H   LINE      ---      ---       #396
      00FFA059H   LINE      ---      ---       #397
      R10         REGSYM    ---      BYTE      qId
      00FFA059H   BLOCK     CODE     NEAR LAB  LVL=1
      00FFA059H   LINE      ---      ---       #399
      00FFA05CH   LINE      ---      ---       #401
      00FFA062H   LINE      ---      ---       #402
      00FFA06EH   LINE      ---      ---       #404
      00FFA07FH   LINE      ---      ---       #406
      00FFA08CH   LINE      ---      ---       #407
      00FFA096H   LINE      ---      ---       #409
      00FFA0A3H   LINE      ---      ---       #410
      00FFA0A6H   LINE      ---      ---       #411
      00FFA0A6H   LINE      ---      ---       #413
      00FFA0AAH   LINE      ---      ---       #414
      00FFA0ADH   LINE      ---      ---       #415
      00FFA0B3H   LINE      ---      ---       #416
L251 LINKER/LOCATER V4.66.93.0                                                        04/08/2024  14:48:14  PAGE 133


      00FFA0B6H   LINE      ---      ---       #417
      00FFA0B6H   LINE      ---      ---       #419
      00FFA0BAH   LINE      ---      ---       #420
      00FFA0BFH   LINE      ---      ---       #421
      00FFA0C1H   LINE      ---      ---       #422
      00FFA0C3H   LINE      ---      ---       #423
      00FFA0C5H   LINE      ---      ---       #424
      00FFA0C5H   LINE      ---      ---       #425
      00FFA0CBH   LINE      ---      ---       #426
      00FFA0D0H   LINE      ---      ---       #427
      00FFA0D3H   LINE      ---      ---       #428
      00FFA0D5H   LINE      ---      ---       #429
      00FFA0D8H   LINE      ---      ---       #430
      00FFA0D8H   LINE      ---      ---       #431
      00FFA0D8H   LINE      ---      ---       #434
      00FFA0DDH   LINE      ---      ---       #435
      00FFA0E0H   LINE      ---      ---       #436
      00FFA0F5H   LINE      ---      ---       #438
      00FFA0F5H   LINE      ---      ---       #439
      00FFA0F5H   LINE      ---      ---       #440
      00FFA0F5H   LINE      ---      ---       #441
      00FFA0F7H   LINE      ---      ---       #442
      00FFA0F9H   LINE      ---      ---       #443
      00FFA0F9H   LINE      ---      ---       #444
      00FFA0FBH   LINE      ---      ---       #445
      00FFA0FDH   LINE      ---      ---       #446
      00FFA0FDH   LINE      ---      ---       #447
      00FFA100H   LINE      ---      ---       #448
      00FFA100H   LINE      ---      ---       #449
      00FFA100H   LINE      ---      ---       #450
      00FFA100H   LINE      ---      ---       #451
      00FFA100H   LINE      ---      ---       #452
      00FFA100H   LINE      ---      ---       #455
      0000B345H   SYMBOL    EDATA    ---       mhr
      R15         REGSYM    ---      BYTE      offset
      R6          REGSYM    ---      BYTE      dest_mode
      R7          REGSYM    ---      BYTE      src_mode
      ---         BLOCKEND  CODE     ---       LVL=1
      00FFA10EH   LINE      ---      ---       #456
      00FFA10EH   LINE      CODE     ---       #456

      00FF5F47H   BLOCK     CODE     ---       LVL=0
      00FF5F47H   LINE      ---      ---       #460
      00FF5F53H   LINE      ---      ---       #461
      0000B61CH   SYMBOL    EDATA    INT       aesLv
      0000B61EH   SYMBOL    EDATA    WORD      aDataLen
      WR12        REGSYM    ---      WORD      mDataLen
      00FF5F53H   BLOCK     CODE     NEAR LAB  LVL=1
      00FF5F53H   LINE      ---      ---       #465
      00FF5F5AH   LINE      ---      ---       #466
      00FF5F64H   LINE      ---      ---       #467
      00FF5F66H   LINE      ---      ---       #470
      00FF5F6EH   LINE      ---      ---       #471
      00FF5F75H   LINE      ---      ---       #475
      00FF5FA1H   LINE      ---      ---       #476
      00FF5FA5H   LINE      ---      ---       #477
      00FF5FA5H   LINE      ---      ---       #479
      R15         REGSYM    ---      BYTE      retValue
      ---         BLOCKEND  CODE     ---       LVL=1
      00FF5FA6H   LINE      ---      ---       #480
      00FF5FA6H   LINE      CODE     ---       #480

      00FF5F1DH   BLOCK     CODE     ---       LVL=0
      00FF5F1DH   LINE      ---      ---       #483
      00FF5F1DH   LINE      ---      ---       #485
L251 LINKER/LOCATER V4.66.93.0                                                        04/08/2024  14:48:14  PAGE 134


      00FF5F20H   LINE      ---      ---       #502
      ---         BLOCKEND  ---      ---       LVL=0

      00FF5B34H   BLOCK     CODE     ---       LVL=0
      00FF5B34H   LINE      ---      ---       #507
      00FF5B34H   LINE      ---      ---       #508
      00FF5B34H   BLOCK     CODE     NEAR LAB  LVL=1
      00FF5B34H   LINE      ---      ---       #510
      00FF5B3CH   LINE      ---      ---       #513
      00FF5B42H   LINE      ---      ---       #515
      00FF5B4BH   LINE      ---      ---       #517
      00FF5B53H   LINE      ---      ---       #518
      00FF5B59H   LINE      ---      ---       #523
      00FF5B5BH   LINE      ---      ---       #524
      00FF5B5EH   LINE      ---      ---       #526
      00FF5B67H   LINE      ---      ---       #527
      R11         REGSYM    ---      BYTE      retValue
      ---         BLOCKEND  CODE     ---       LVL=1
      ---         BLOCKEND  CODE     ---       LVL=0

      00FF3038H   BLOCK     CODE     ---       LVL=0
      00FF3038H   LINE      ---      ---       #531
      00FF3038H   LINE      ---      ---       #532
      00FF3038H   BLOCK     CODE     NEAR LAB  LVL=1
      00FF3038H   LINE      ---      ---       #536
      00FF3038H   LINE      ---      ---       #537
      00FF3042H   LINE      ---      ---       #539
      R10         REGSYM    ---      BYTE      rfStateTmp
      ---         BLOCKEND  CODE     ---       LVL=1
      00FF3047H   LINE      ---      ---       #541
      00FF3047H   LINE      CODE     ---       #541

      00FF2FEDH   BLOCK     CODE     ---       LVL=0
      00FF2FEDH   LINE      ---      ---       #544
      00FF2FEDH   LINE      ---      ---       #545
      00FF2FEDH   BLOCK     CODE     NEAR LAB  LVL=1
      00FF2FEDH   LINE      ---      ---       #547
      00FF2FF3H   LINE      ---      ---       #549
      00FF2FF6H   LINE      ---      ---       #551
      00FF2FFCH   LINE      ---      ---       #554
      00FF3003H   LINE      ---      ---       #556
      00FF300CH   LINE      ---      ---       #557
      00FF3024H   LINE      ---      ---       #560
      00FF3030H   LINE      ---      ---       #562
      00FF3036H   LINE      ---      ---       #564
      DR0         REGSYM    ---      DWORD     ccaTime
      0000B620H   SYMBOL    EDATA    DWORD     backoffDuration
      ---         BLOCKEND  CODE     ---       LVL=1
      ---         BLOCKEND  CODE     ---       LVL=0

      00FF808EH   BLOCK     CODE     ---       LVL=0
      00FF808EH   LINE      ---      ---       #573
      00FF8092H   LINE      ---      ---       #574
      00FF8092H   BLOCK     CODE     NEAR LAB  LVL=1
      00FF8092H   LINE      ---      ---       #578
      00FF8094H   LINE      ---      ---       #579
      00FF8096H   LINE      ---      ---       #580
      00FF8098H   LINE      ---      ---       #582
      00FF809FH   LINE      ---      ---       #583
      00FF80ABH   LINE      ---      ---       #584
      00FF80B3H   LINE      ---      ---       #585
      00FF80BAH   LINE      ---      ---       #586
      00FF80C4H   LINE      ---      ---       #591
      00FF80CAH   LINE      ---      ---       #592
      00FF80CDH   LINE      ---      ---       #597
L251 LINKER/LOCATER V4.66.93.0                                                        04/08/2024  14:48:14  PAGE 135


      00FF80DDH   LINE      ---      ---       #600
      00FF80E0H   LINE      ---      ---       #601
      00FF80E0H   LINE      ---      ---       #605
      00FF80F1H   LINE      ---      ---       #607
      00FF80F1H   LINE      ---      ---       #608
      00FF80F3H   LINE      ---      ---       #609
      00FF80F5H   LINE      ---      ---       #610
      00FF80F5H   LINE      ---      ---       #611
      00FF80F7H   LINE      ---      ---       #612
      00FF80F9H   LINE      ---      ---       #613
      00FF80F9H   LINE      ---      ---       #614
      00FF80FDH   LINE      ---      ---       #615
      00FF80FFH   LINE      ---      ---       #616
      00FF80FFH   LINE      ---      ---       #617
      00FF8103H   LINE      ---      ---       #618
      00FF8103H   LINE      ---      ---       #619
      00FF8103H   LINE      ---      ---       #620
      R5          REGSYM    ---      CHAR      ibRssi
      R7          REGSYM    ---      BYTE      cpmputeRssi
      R4          REGSYM    ---      BYTE      lnaGain
      R7          REGSYM    ---      BYTE      tiaGain
      R6          REGSYM    ---      BYTE      vgaGain
      R13         REGSYM    ---      BYTE      edState
      R14         REGSYM    ---      BYTE      csState
      R15         REGSYM    ---      BYTE      ccaStatus
      ---         BLOCKEND  CODE     ---       LVL=1
      00FF8105H   LINE      ---      ---       #621
      00FF8105H   LINE      CODE     ---       #621

      00FF27F1H   BLOCK     CODE     ---       LVL=0
      00FF27F1H   LINE      ---      ---       #625
      00FF27F1H   LINE      ---      ---       #628
      00FF27F6H   LINE      ---      ---       #629
      00FF27FAH   LINE      ---      ---       #630
      ---         BLOCKEND  ---      ---       LVL=0

      00FF6435H   BLOCK     CODE     ---       LVL=0
      00FF6435H   LINE      ---      ---       #671
      00FF6435H   LINE      ---      ---       #676
      00FF643BH   LINE      ---      ---       #678
      00FF6441H   LINE      ---      ---       #679
      00FF6447H   LINE      ---      ---       #680
      00FF644BH   LINE      ---      ---       #681
      ---         BLOCKEND  ---      ---       LVL=0

      00FF264CH   BLOCK     CODE     ---       LVL=0
      00FF264CH   LINE      ---      ---       #683
      00FF264CH   LINE      ---      ---       #684
      00FF264CH   BLOCK     CODE     NEAR LAB  LVL=1
      00FF264CH   LINE      ---      ---       #687
      00FF2654H   LINE      ---      ---       #688
      00FF265AH   LINE      ---      ---       #692
      00FF265AH   LINE      ---      ---       #694
      00FF265AH   LINE      ---      ---       #696
      00FF265CH   LINE      ---      ---       #697
      00FF2662H   LINE      ---      ---       #698
      00FF2673H   LINE      ---      ---       #699
      00FF2679H   LINE      ---      ---       #703
      00FF2694H   LINE      ---      ---       #706
      00FF2696H   LINE      ---      ---       #707
      00FF2699H   LINE      ---      ---       #708
      00FF269BH   LINE      ---      ---       #709
      00FF269EH   LINE      ---      ---       #710
      00FF269FH   LINE      ---      ---       #711
      00FF269FH   LINE      ---      ---       #717
L251 LINKER/LOCATER V4.66.93.0                                                        04/08/2024  14:48:14  PAGE 136


      00FF26A2H   LINE      ---      ---       #722
      00FF26A5H   LINE      ---      ---       #724
      00FF26A5H   LINE      ---      ---       #730
      00FF26AAH   LINE      ---      ---       #734
      00FF26ADH   LINE      ---      ---       #735
      00FF26ADH   LINE      ---      ---       #737
      00FF26B8H   LINE      ---      ---       #739
      00FF26BBH   LINE      ---      ---       #740
      00FF26C0H   LINE      ---      ---       #741
      00FF26C2H   LINE      ---      ---       #742
      00FF26C3H   LINE      ---      ---       #743
      00FF26C3H   LINE      ---      ---       #746
      00FF26CEH   LINE      ---      ---       #748
      00FF26D0H   LINE      ---      ---       #750
      00FF26D3H   LINE      ---      ---       #751
      00FF26D6H   LINE      ---      ---       #753
      00FF26E4H   LINE      ---      ---       #757
      00FF26EAH   LINE      ---      ---       #760
      00FF26F2H   LINE      ---      ---       #763
      00FF26F4H   LINE      ---      ---       #764
      R10         REGSYM    ---      BYTE      raaState
      ---         BLOCKEND  CODE     ---       LVL=1
      ---         BLOCKEND  CODE     ---       LVL=0

      00FF2FE9H   BLOCK     CODE     ---       LVL=0
      00FF2FE9H   LINE      ---      ---       #769
      00FF2FE9H   LINE      ---      ---       #772
      00FF2FEBH   LINE      ---      ---       #783
      ---         BLOCKEND  ---      ---       LVL=0

      00FF9ED9H   BLOCK     CODE     ---       LVL=0
      00FF9ED9H   LINE      ---      ---       #795
      00FF9ED9H   LINE      ---      ---       #797
      ---         BLOCKEND  ---      ---       LVL=0

      00FF5C1BH   BLOCK     CODE     ---       LVL=0
      00FF5C1BH   LINE      ---      ---       #799
      00FF5C1BH   LINE      ---      ---       #800
      00FF5C1BH   BLOCK     CODE     NEAR LAB  LVL=1
      00FF5C1BH   LINE      ---      ---       #809
      00FF5C1EH   LINE      ---      ---       #810
      00FF5C21H   LINE      ---      ---       #828
      R11         REGSYM    ---      BYTE      channelTmp
      00FF5C21H   BLOCK     CODE     NEAR LAB  LVL=2
      00FF5C21H   LINE      ---      ---       #830
      00FF5C29H   LINE      ---      ---       #831
      00FF5C31H   LINE      ---      ---       #832
      00FF5C39H   LINE      ---      ---       #833
      00FF5C41H   LINE      ---      ---       #834
      0000B5C0H   SYMBOL    EDATA    ---       cb
      ---         BLOCKEND  CODE     ---       LVL=2
      00FF5C47H   LINE      ---      ---       #835
      00FF5C47H   LINE      ---      ---       #838
      00FF5C4DH   LINE      ---      ---       #840
      00FF5C5EH   LINE      ---      ---       #841
      00FF5C6BH   LINE      ---      ---       #842
      00FF5C7BH   LINE      ---      ---       #843
      00FF5C7BH   LINE      ---      ---       #855
      00FF5C81H   LINE      ---      ---       #858
      00FF5C83H   LINE      ---      ---       #861
      00FF5C85H   LINE      ---      ---       #864
      00FF5C89H   LINE      ---      ---       #868
      00FF5C8CH   LINE      ---      ---       #871
      00FF5C8EH   LINE      ---      ---       #874
      00FF5C92H   LINE      ---      ---       #875
L251 LINKER/LOCATER V4.66.93.0                                                        04/08/2024  14:48:14  PAGE 137


      00FF5C94H   LINE      ---      ---       #879
      00FF5C9BH   LINE      ---      ---       #882
      00FF5C9EH   LINE      ---      ---       #885
      00FF5CA3H   LINE      ---      ---       #890
      00FF5CA7H   LINE      ---      ---       #892
      00FF5CA9H   LINE      ---      ---       #895
      00FF5CACH   LINE      ---      ---       #898
      00FF5CB3H   LINE      ---      ---       #903
      00FF5CB6H   LINE      ---      ---       #904
      00FF5CB6H   LINE      ---      ---       #906
      00FF5CBEH   LINE      ---      ---       #907
      00FF5CBEH   LINE      ---      ---       #910
      00FF5CBEH   LINE      CODE     ---       #910
      ---         BLOCKEND  CODE     ---       LVL=0

      00FF810AH   BLOCK     CODE     ---       LVL=0
      00FF810AH   LINE      ---      ---       #917
      00FF810EH   LINE      ---      ---       #918
      00FF810EH   BLOCK     CODE     NEAR LAB  LVL=1
      00FF810EH   LINE      ---      ---       #919
      00FF810EH   LINE      ---      ---       #920
      00FF810EH   LINE      ---      ---       #923
      00FF8113H   LINE      ---      ---       #924
      00FF811BH   LINE      ---      ---       #926
      00FF811DH   LINE      ---      ---       #930
      00FF812CH   LINE      ---      ---       #932
      00FF812EH   LINE      ---      ---       #934
      00FF8134H   LINE      ---      ---       #936
      00FF8137H   LINE      ---      ---       #938
      00FF813AH   LINE      ---      ---       #939
      00FF813CH   LINE      ---      ---       #940
      00FF813CH   LINE      ---      ---       #943
      00FF8140H   LINE      ---      ---       #944
      00FF8145H   LINE      ---      ---       #946
      00FF8148H   LINE      ---      ---       #947
      00FF8152H   LINE      ---      ---       #949
      00FF8155H   LINE      ---      ---       #953
      00FF815AH   LINE      ---      ---       #958
      00FF815DH   LINE      ---      ---       #959
      00FF815DH   LINE      ---      ---       #962
      00FF8160H   LINE      ---      ---       #963
      00FF8164H   LINE      ---      ---       #964
      00FF8166H   LINE      ---      ---       #965
      00FF8166H   LINE      ---      ---       #967
      00FF8169H   LINE      ---      ---       #970
      00FF816CH   LINE      ---      ---       #973
      00FF8174H   LINE      ---      ---       #975
      00FF817DH   LINE      ---      ---       #976
      00FF817FH   LINE      ---      ---       #977
      00FF8183H   LINE      ---      ---       #979
      00FF8186H   LINE      ---      ---       #982
      00FF8189H   LINE      ---      ---       #983
      00FF818CH   LINE      ---      ---       #987
      00FF8191H   LINE      ---      ---       #991
      00FF8194H   LINE      ---      ---       #994
      00FF8197H   LINE      ---      ---       #996
      00FF819FH   LINE      ---      ---       #997
      00FF81A4H   LINE      ---      ---       #1000
      00FF81ACH   LINE      ---      ---       #1001
      00FF81AEH   LINE      ---      ---       #1003
      00FF81B4H   LINE      ---      ---       #1005
      00FF81B7H   LINE      ---      ---       #1006
      00FF81BAH   LINE      ---      ---       #1009
      00FF81C0H   LINE      ---      ---       #1010
      00FF81C9H   LINE      ---      ---       #1023
L251 LINKER/LOCATER V4.66.93.0                                                        04/08/2024  14:48:14  PAGE 138


      00FF81CFH   LINE      ---      ---       #1024
      00FF81D4H   LINE      ---      ---       #1027
      00FF81DCH   LINE      ---      ---       #1028
      00FF81DFH   LINE      ---      ---       #1029
      WR14        REGSYM    ---      WORD      macFunEventQueue
      R13         REGSYM    ---      BYTE      ccaStatus
      0000B671H   SYMBOL    EDATA    BYTE      checkCCADrop
      ---         BLOCKEND  CODE     ---       LVL=1
      ---         BLOCKEND  CODE     ---       LVL=0

      00FF66AEH   BLOCK     CODE     ---       LVL=0
      00FF66AEH   LINE      ---      ---       #1033
      00FF66AEH   LINE      ---      ---       #1034
      00FF66AEH   BLOCK     CODE     NEAR LAB  LVL=1
      00FF66AEH   LINE      ---      ---       #1046
      00FF66B1H   LINE      ---      ---       #1047
      00FF66B7H   LINE      ---      ---       #1049
      00FF66BAH   LINE      ---      ---       #1050
      00FF66BDH   LINE      ---      ---       #1052
      00FF66D5H   LINE      ---      ---       #1059
      00FF66DDH   LINE      ---      ---       #1061
      00FF66E0H   LINE      ---      ---       #1064
      00FF66E0H   LINE      ---      ---       #1067
      00FF66E6H   LINE      ---      ---       #1069
      00FF66EAH   LINE      ---      ---       #1071
      00FF66ECH   LINE      ---      ---       #1075
      00FF66EFH   LINE      ---      ---       #1082
      00FF66F6H   LINE      ---      ---       #1083
      00FF66F9H   LINE      ---      ---       #1084
      00FF66F9H   LINE      ---      ---       #1087
      00FF6713H   LINE      ---      ---       #1091
      00FF6716H   LINE      ---      ---       #1094
      00FF671EH   LINE      ---      ---       #1095
      00FF671EH   LINE      ---      ---       #1097
      00FF671EH   LINE      ---      ---       #1098
      00FF6728H   LINE      ---      ---       #1100
      00FF672FH   LINE      ---      ---       #1105
      WR6         REGSYM    ---      WORD      macFunEventQueue
      ---         BLOCKEND  CODE     ---       LVL=1
      ---         BLOCKEND  CODE     ---       LVL=0

      00FF665CH   BLOCK     CODE     ---       LVL=0
      00FF665CH   LINE      ---      ---       #1108
      00FF665CH   LINE      ---      ---       #1109
      00FF665CH   BLOCK     CODE     NEAR LAB  LVL=1
      00FF665CH   LINE      ---      ---       #1110
      00FF665CH   LINE      ---      ---       #1112
      00FF665FH   LINE      ---      ---       #1113
      00FF6665H   LINE      ---      ---       #1115
      00FF6668H   LINE      ---      ---       #1117
      00FF6670H   LINE      ---      ---       #1118
      00FF6671H   LINE      ---      ---       #1119
      00FF6677H   LINE      ---      ---       #1121
      00FF667AH   LINE      ---      ---       #1124
      00FF6684H   LINE      ---      ---       #1126
      00FF6687H   LINE      ---      ---       #1128
      00FF668BH   LINE      ---      ---       #1129
      00FF668DH   LINE      ---      ---       #1132
      00FF6690H   LINE      ---      ---       #1136
      00FF6696H   LINE      ---      ---       #1140
      00FF6699H   LINE      ---      ---       #1143
      00FF669CH   LINE      ---      ---       #1145
      00FF66A4H   LINE      ---      ---       #1146
      00FF66A4H   LINE      ---      ---       #1147
      00FF66ADH   LINE      ---      ---       #1148
L251 LINKER/LOCATER V4.66.93.0                                                        04/08/2024  14:48:14  PAGE 139


      WR6         REGSYM    ---      WORD      macFunEventQueue
      ---         BLOCKEND  CODE     ---       LVL=1
      ---         BLOCKEND  CODE     ---       LVL=0

      00FF28C8H   BLOCK     CODE     ---       LVL=0
      00FF28C8H   LINE      ---      ---       #1151
      00FF28C8H   LINE      ---      ---       #1152
      00FF28C8H   BLOCK     CODE     NEAR LAB  LVL=1
      00FF28C8H   LINE      ---      ---       #1153
      00FF28C8H   LINE      ---      ---       #1155
      00FF28CBH   LINE      ---      ---       #1156
      00FF28DBH   LINE      ---      ---       #1157
      WR6         REGSYM    ---      WORD      macFunEventQueue
      00FF28DBH   BLOCK     CODE     NEAR LAB  LVL=2
      00FF28DBH   LINE      ---      ---       #1160
      00FF28DEH   LINE      ---      ---       #1165
      00FF28E7H   LINE      ---      ---       #1166
      00FF28EBH   LINE      ---      ---       #1168
      00FF28F5H   LINE      ---      ---       #1169
      R11         REGSYM    ---      BYTE      macRxInfo
      00FF28F5H   BLOCK     CODE     NEAR LAB  LVL=3
      00FF28F5H   LINE      ---      ---       #1172
      00FF28F8H   LINE      ---      ---       #1176
      00FF28FDH   LINE      ---      ---       #1177
      00FF2902H   LINE      ---      ---       #1182
      00FF290FH   LINE      ---      ---       #1183
      00FF2914H   LINE      ---      ---       #1188
      00FF2917H   LINE      ---      ---       #1191
      00FF2928H   LINE      ---      ---       #1192
      00FF292EH   LINE      ---      ---       #1194
      00FF2939H   LINE      ---      ---       #1204
      00FF293DH   LINE      ---      ---       #1205
      00FF293FH   LINE      ---      ---       #1206
      00FF2947H   LINE      ---      ---       #1207
      00FF2947H   LINE      ---      ---       #1208
      00FF2949H   LINE      ---      ---       #1212
      00FF294EH   LINE      ---      ---       #1215
      00FF2956H   LINE      ---      ---       #1216
      00FF2959H   LINE      ---      ---       #1217
      00FF2959H   LINE      ---      ---       #1219
      00FF2965H   LINE      ---      ---       #1220
      R11         REGSYM    ---      BYTE      trx_state
      ---         BLOCKEND  CODE     ---       LVL=3
      00FF2965H   LINE      ---      ---       #1221
      00FF2965H   LINE      ---      ---       #1224
      00FF296AH   LINE      ---      ---       #1227
      00FF296DH   LINE      ---      ---       #1228
      00FF296DH   LINE      ---      ---       #1229
      00FF296FH   LINE      ---      ---       #1233
      00FF2974H   LINE      ---      ---       #1235
      00FF2977H   LINE      ---      ---       #1236
      00FF2977H   LINE      ---      ---       #1237
      00FF297AH   LINE      ---      ---       #1238
      00FF2986H   LINE      ---      ---       #1242
      00FF2990H   LINE      ---      ---       #1245
      00FF2994H   LINE      ---      ---       #1246
      00FF2996H   LINE      ---      ---       #1249
      00FF2999H   LINE      ---      ---       #1253
      00FF29A0H   LINE      ---      ---       #1257
      00FF29A3H   LINE      ---      ---       #1259
      00FF29ABH   LINE      ---      ---       #1260
      00FF29ABH   LINE      ---      ---       #1261
      00FF29ABH   LINE      CODE     ---       #1261
      ---         BLOCKEND  CODE     ---       LVL=1
      00FF29B4H   LINE      ---      ---       #1262
L251 LINKER/LOCATER V4.66.93.0                                                        04/08/2024  14:48:14  PAGE 140


      00FF29B4H   LINE      CODE     ---       #1262

      00FF64CEH   BLOCK     CODE     ---       LVL=0
      00FF64CEH   LINE      ---      ---       #1265
      00FF64CEH   LINE      ---      ---       #1266
      00FF64CEH   BLOCK     CODE     NEAR LAB  LVL=1
      00FF64CEH   LINE      ---      ---       #1267
      00FF64CEH   LINE      ---      ---       #1269
      00FF64D1H   LINE      ---      ---       #1270
      00FF64D4H   LINE      ---      ---       #1271
      00FF64D8H   LINE      ---      ---       #1272
      00FF64DBH   LINE      ---      ---       #1273
      00FF6562H   LINE      ---      ---       #1275
      00FF6562H   LINE      ---      ---       #1276
      00FF6562H   LINE      ---      ---       #1277
      00FF6562H   LINE      ---      ---       #1278
      00FF6562H   LINE      ---      ---       #1279
      00FF6562H   LINE      ---      ---       #1280
      00FF6566H   LINE      ---      ---       #1281
      00FF6568H   LINE      ---      ---       #1282
      00FF6568H   LINE      ---      ---       #1283
      00FF656BH   LINE      ---      ---       #1284
      00FF656DH   LINE      ---      ---       #1285
      00FF656DH   LINE      ---      ---       #1286
      00FF656DH   LINE      ---      ---       #1298
      00FF6570H   LINE      ---      ---       #1301
      00FF6577H   LINE      ---      ---       #1302
      00FF657AH   LINE      ---      ---       #1304
      00FF657EH   LINE      ---      ---       #1305
      00FF6580H   LINE      ---      ---       #1309
      00FF6587H   LINE      ---      ---       #1311
      00FF6589H   LINE      ---      ---       #1315
      00FF6589H   LINE      ---      ---       #1317
      00FF658DH   LINE      ---      ---       #1318
      00FF658DH   LINE      ---      ---       #1321
      00FF658FH   LINE      ---      ---       #1323
      00FF658FH   LINE      ---      ---       #1324
      00FF658FH   LINE      ---      ---       #1325
      00FF658FH   LINE      ---      ---       #1326
      00FF6592H   LINE      ---      ---       #1329
      00FF6599H   LINE      ---      ---       #1330
      00FF659CH   LINE      ---      ---       #1332
      00FF65A0H   LINE      ---      ---       #1333
      00FF65A2H   LINE      ---      ---       #1337
      00FF65A9H   LINE      ---      ---       #1339
      00FF65ABH   LINE      ---      ---       #1343
      00FF65ABH   LINE      ---      ---       #1345
      00FF65B3H   LINE      ---      ---       #1346
      00FF65B3H   LINE      ---      ---       #1348
      00FF65B5H   LINE      ---      ---       #1349
      00FF65B5H   LINE      ---      ---       #1350
      00FF65B8H   LINE      ---      ---       #1351
      00FF65B8H   LINE      ---      ---       #1352
      00FF65B8H   LINE      ---      ---       #1353
      WR6         REGSYM    ---      WORD      macFunEventQueue
      ---         BLOCKEND  CODE     ---       LVL=1
      ---         BLOCKEND  CODE     ---       LVL=0

      00FF65E3H   BLOCK     CODE     ---       LVL=0
      00FF65E3H   LINE      ---      ---       #1356
      00FF65E3H   LINE      ---      ---       #1357
      00FF65E3H   BLOCK     CODE     NEAR LAB  LVL=1
      00FF65E3H   LINE      ---      ---       #1360
      00FF65E6H   LINE      ---      ---       #1361
      00FF65E9H   LINE      ---      ---       #1362
L251 LINKER/LOCATER V4.66.93.0                                                        04/08/2024  14:48:14  PAGE 141


      00FF65EFH   LINE      ---      ---       #1364
      00FF65F1H   LINE      ---      ---       #1367
      00FF65F8H   LINE      ---      ---       #1368
      00FF65FBH   LINE      ---      ---       #1370
      00FF65FFH   LINE      ---      ---       #1371
      00FF6601H   LINE      ---      ---       #1375
      00FF6608H   LINE      ---      ---       #1377
      00FF660AH   LINE      ---      ---       #1382
      00FF660AH   LINE      ---      ---       #1384
      00FF6612H   LINE      ---      ---       #1385
      00FF6612H   LINE      ---      ---       #1387
      WR6         REGSYM    ---      WORD      macFunEventQueue
      ---         BLOCKEND  CODE     ---       LVL=1
      ---         BLOCKEND  CODE     ---       LVL=0

      00FF9EDAH   BLOCK     CODE     ---       LVL=0
      00FF9EDAH   LINE      ---      ---       #1390
      00FF9EDAH   LINE      ---      ---       #1392
      00FF9EDDH   LINE      ---      ---       #1423
      00FF9EE2H   LINE      ---      ---       #1427
      00FF9EE8H   LINE      ---      ---       #1428
      00FF9EEEH   LINE      ---      ---       #1431
      00FF9EF3H   LINE      ---      ---       #1432
      00FF9EF5H   LINE      ---      ---       #1436
      00FF9EFBH   LINE      ---      ---       #1437
      00FF9F03H   LINE      ---      ---       #1438
      00FF9F03H   LINE      ---      ---       #1441
      ---         BLOCKEND  ---      ---       LVL=0

      00FF9F0AH   BLOCK     CODE     ---       LVL=0
      00FF9F0AH   LINE      ---      ---       #1450
      00FF9F0AH   LINE      ---      ---       #1452
      ---         BLOCKEND  ---      ---       LVL=0

      00FF8240H   BLOCK     CODE     ---       LVL=0
      00FF8240H   LINE      ---      ---       #1454
      00FF8240H   LINE      ---      ---       #1458
      00FF8247H   LINE      ---      ---       #1460
      00FF8247H   LINE      ---      ---       #1461
      00FF8247H   LINE      ---      ---       #1466
      00FF8253H   LINE      ---      ---       #1468
      ---         BLOCKEND  ---      ---       LVL=0

      00FF9F0BH   BLOCK     CODE     ---       LVL=0
      00FF9F0BH   LINE      ---      ---       #1470
      00FF9F0BH   LINE      ---      ---       #1472
      00FF9F1CH   LINE      ---      ---       #1473
      00FF9F23H   LINE      ---      ---       #1474
      ---         BLOCKEND  ---      ---       LVL=0

      00FF27EBH   BLOCK     CODE     ---       LVL=0
      00FF27EBH   LINE      ---      ---       #1478
      00FF27EBH   LINE      ---      ---       #1480
      ---         BLOCKEND  ---      ---       LVL=0

      ---         MODULE    ---      ---       mac_cad

      ---         MODULE    ---      ---       mac_scheduler

      ---         MODULE    ---      ---       mac_RfeRx
      00FF2F6AH   PUBLIC    CODE     ---       MAC_RfeRxDisable
      00FFA111H   PUBLIC    CODE     ---       MAC_RfeRxRptGet
      00FF55DDH   PUBLIC    CODE     ---       MAC_RfeRxParInit
      00FF2A81H   PUBLIC    CODE     ---       MAC_RfeRxSchedule
      00FF2FB1H   PUBLIC    CODE     ---       MAC_RfeRxAonTaskDisable
L251 LINKER/LOCATER V4.66.93.0                                                        04/08/2024  14:48:14  PAGE 142


      00FFA124H   PUBLIC    CODE     ---       MAC_RfeSecLbHwSet
      00FF719CH   PUBLIC    CODE     ---       MAC_RfeRxDataConfirm
      0000B3EBH   PUBLIC    EDATA    INT       gMacRfeRxState
      0000B3EDH   PUBLIC    EDATA    ---       gMacRfeRxCtrl
      0000B3FCH   PUBLIC    EDATA    ---       gMacRfeRpt
      000000A8H.7 SFRSYM    DATA     BIT       EA
      00000080H   SFRSYM    DATA     BYTE      P0

      00FF2F6AH   BLOCK     CODE     ---       LVL=0
      00FF2F6AH   LINE      ---      ---       #55
      00FF2F6EH   LINE      ---      ---       #57
      00FF2F70H   LINE      ---      ---       #61
      00FF2F73H   LINE      ---      ---       #62
      00FF2F8EH   LINE      ---      ---       #63
      00FF2F91H   LINE      ---      ---       #64
      00FF2F97H   LINE      ---      ---       #65
      00FF2F9CH   LINE      ---      ---       #66
      00FF2FA3H   LINE      ---      ---       #67
      00FF2FA7H   LINE      ---      ---       #68
      00FF2FAEH   LINE      ---      ---       #69
      R15         REGSYM    ---      BYTE      bTxSecClr
      ---         BLOCKEND  ---      ---       LVL=0

      00FF2FB1H   BLOCK     CODE     ---       LVL=0
      00FF2FB1H   LINE      ---      ---       #71
      00FF2FB1H   LINE      ---      ---       #73
      00FF2FB3H   LINE      ---      ---       #74
      00FF2FB9H   LINE      ---      ---       #75
      00FF2FBCH   LINE      ---      ---       #76
      00FF2FBEH   LINE      ---      ---       #77
      ---         BLOCKEND  ---      ---       LVL=0

      00FFA111H   BLOCK     CODE     ---       LVL=0
      00FFA111H   LINE      ---      ---       #79
      00FFA111H   LINE      ---      ---       #81
      00FFA118H   LINE      ---      ---       #82
      00FFA123H   LINE      ---      ---       #83
      REG=3       REGSYM    ---      ---       pPassCnt
      REG=2       REGSYM    ---      ---       pFailCnt
      ---         BLOCKEND  ---      ---       LVL=0

      00FFA124H   BLOCK     CODE     ---       LVL=0
      00FFA124H   LINE      ---      ---       #85
      00FFA126H   LINE      ---      ---       #86
      WR8         REGSYM    ---      WORD      pktLen
      00FFA126H   BLOCK     CODE     NEAR LAB  LVL=1
      00FFA126H   LINE      ---      ---       #90
      00FFA12AH   LINE      ---      ---       #91
      00FFA12EH   LINE      ---      ---       #92
      00FFA14FH   LINE      ---      ---       #93
      00FFA155H   LINE      ---      ---       #94
      00FFA157H   LINE      ---      ---       #95
      00FFA15DH   LINE      ---      ---       #96
      00FFA163H   LINE      ---      ---       #98
      00FFA167H   LINE      ---      ---       #99
      00FFA169H   LINE      ---      ---       #101
      00FFA16DH   LINE      ---      ---       #102
      00FFA16FH   LINE      ---      ---       #103
      00FFA175H   LINE      ---      ---       #105
      00FFA179H   LINE      ---      ---       #106
      00FFA17BH   LINE      ---      ---       #108
      00FFA17FH   LINE      ---      ---       #109
      00FFA17FH   LINE      ---      ---       #111
      WR4         REGSYM    ---      WORD      aDataLen
      WR2         REGSYM    ---      WORD      mDataLen
L251 LINKER/LOCATER V4.66.93.0                                                        04/08/2024  14:48:14  PAGE 143


      WR6         REGSYM    ---      WORD      payloadLen
      R7          REGSYM    ---      BYTE      micLen
      ---         BLOCKEND  CODE     ---       LVL=1
      ---         BLOCKEND  CODE     ---       LVL=0

      00FF719CH   BLOCK     CODE     ---       LVL=0
      00FF719CH   LINE      ---      ---       #114
      00FF719EH   LINE      ---      ---       #115
      00FF719EH   BLOCK     CODE     NEAR LAB  LVL=1
      00FF719EH   LINE      ---      ---       #120
      00FF71B0H   LINE      ---      ---       #122
      00FF71D5H   LINE      ---      ---       #123
      00FF71DBH   LINE      ---      ---       #126
      00FF71E1H   LINE      ---      ---       #127
      00FF71F6H   LINE      ---      ---       #129
      00FF7204H   LINE      ---      ---       #131
      00FF720CH   LINE      ---      ---       #133
      00FF7210H   LINE      ---      ---       #135
      00FF722DH   LINE      ---      ---       #136
      00FF7230H   LINE      ---      ---       #137
      00FF7236H   LINE      ---      ---       #138
      00FF7238H   LINE      ---      ---       #141
      00FF7247H   LINE      ---      ---       #142
      00FF724BH   LINE      ---      ---       #144
      00FF7257H   LINE      ---      ---       #145
      00FF725AH   LINE      ---      ---       #146
      00FF7260H   LINE      ---      ---       #147
      00FF7260H   LINE      ---      ---       #148
      00FF7260H   LINE      ---      ---       #149
      R7          REGSYM    ---      BYTE      dataTemp
      0000B672H   SYMBOL    EDATA    BYTE      phrLenTemp
      WR12        REGSYM    ---      WORD      dataLenTemp
      WR14        REGSYM    ---      WORD      idx
      ---         BLOCKEND  CODE     ---       LVL=1
      00FF7262H   LINE      ---      ---       #150
      00FF7262H   LINE      CODE     ---       #150

      00FF55DDH   BLOCK     CODE     ---       LVL=0
      00FF55DDH   LINE      ---      ---       #152
      00FF55E7H   LINE      ---      ---       #154
      00FF55ECH   LINE      ---      ---       #155
      00FF55F2H   LINE      ---      ---       #156
      00FF55F8H   LINE      ---      ---       #157
      00FF55FCH   LINE      ---      ---       #158
      00FF5600H   LINE      ---      ---       #159
      00FF5604H   LINE      ---      ---       #160
      00FF560EH   LINE      ---      ---       #161
      00FF5618H   LINE      ---      ---       #163
      00FF561CH   LINE      ---      ---       #164
      00FF5620H   LINE      ---      ---       #165
      00FF5624H   LINE      ---      ---       #171
      00FF5628H   LINE      ---      ---       #173
      00FF5630H   LINE      ---      ---       #174
      00FF563FH   LINE      ---      ---       #175
      00FF564EH   LINE      ---      ---       #176
      R1          REGSYM    ---      BYTE      pktType
      R2          REGSYM    ---      BYTE      queueType
      R3          REGSYM    ---      BYTE      rxType
      R10         REGSYM    ---      BYTE      ackEnable
      WR8         REGSYM    ---      WORD      ackInterval
      ---         BLOCKEND  ---      ---       LVL=0

      00FF2A81H   BLOCK     CODE     ---       LVL=0
      00FF2A81H   LINE      ---      ---       #179
      00FF2A83H   LINE      ---      ---       #180
L251 LINKER/LOCATER V4.66.93.0                                                        04/08/2024  14:48:14  PAGE 144


      00FF2A83H   BLOCK     CODE     NEAR LAB  LVL=1
      00FF2A83H   LINE      ---      ---       #181
      00FF2A83H   LINE      ---      ---       #185
      00FF2A8EH   LINE      ---      ---       #187
      00FF2A8EH   LINE      ---      ---       #188
      00FF2A8EH   LINE      ---      ---       #191
      00FF2ABEH   LINE      ---      ---       #193
      00FF2ABEH   LINE      ---      ---       #194
      00FF2AC1H   LINE      ---      ---       #196
      WR6         REGSYM    ---      WORD      macFunEventQueue
      R15         REGSYM    ---      BYTE      retValue
      00FF2AC1H   BLOCK     CODE     NEAR LAB  LVL=2
      00FF2AC1H   LINE      ---      ---       #198
      00FF2AC9H   LINE      ---      ---       #199
      00FF2AD1H   LINE      ---      ---       #200
      00FF2AD9H   LINE      ---      ---       #201
      00FF2AE1H   LINE      ---      ---       #202
      0000B5C8H   SYMBOL    EDATA    ---       cb
      ---         BLOCKEND  CODE     ---       LVL=2
      00FF2AE8H   LINE      ---      ---       #203
      00FF2AE8H   LINE      ---      ---       #206
      00FF2AEBH   LINE      ---      ---       #209
      00FF2B00H   LINE      ---      ---       #211
      00FF2B04H   LINE      ---      ---       #214
      00FF2B04H   LINE      ---      ---       #215
      00FF2B06H   LINE      ---      ---       #218
      00FF2B0CH   LINE      ---      ---       #219
      00FF2B12H   LINE      ---      ---       #221
      00FF2B17H   LINE      ---      ---       #240
      00FF2B1DH   LINE      ---      ---       #243
      00FF2B23H   LINE      ---      ---       #245
      00FF2B26H   LINE      ---      ---       #246
      00FF2B2BH   LINE      ---      ---       #247
      00FF2B2BH   LINE      ---      ---       #251
      00FF2B31H   LINE      ---      ---       #252
      00FF2B3AH   LINE      ---      ---       #253
      00FF2B40H   LINE      ---      ---       #255
      00FF2B43H   LINE      ---      ---       #256
      00FF2B48H   LINE      ---      ---       #257
      00FF2B48H   LINE      ---      ---       #260
      00FF2B4CH   LINE      ---      ---       #261
      00FF2B4CH   LINE      ---      ---       #286
      00FF2B4EH   LINE      ---      ---       #288
      00FF2B4EH   LINE      ---      ---       #289
      00FF2B51H   LINE      ---      ---       #290
      00FF2B57H   LINE      ---      ---       #292
      00FF2B5AH   LINE      ---      ---       #293
      00FF2B5EH   LINE      ---      ---       #296
      00FF2B5EH   LINE      ---      ---       #297
      00FF2B60H   LINE      ---      ---       #298
      00FF2B66H   LINE      ---      ---       #300
      00FF2B6DH   LINE      ---      ---       #301
      00FF2B70H   LINE      ---      ---       #302
      00FF2B74H   LINE      ---      ---       #303
      00FF2B76H   LINE      ---      ---       #304
      00FF2B7EH   LINE      ---      ---       #306
      00FF2B81H   LINE      ---      ---       #307
      00FF2B85H   LINE      ---      ---       #310
      00FF2B85H   LINE      ---      ---       #311
      00FF2B85H   LINE      ---      ---       #330
      00FF2B87H   LINE      ---      ---       #332
      00FF2B87H   LINE      ---      ---       #333
      00FF2B8AH   LINE      ---      ---       #334
      00FF2B92H   LINE      ---      ---       #336
      00FF2B95H   LINE      ---      ---       #339
L251 LINKER/LOCATER V4.66.93.0                                                        04/08/2024  14:48:14  PAGE 145


      00FF2BB6H   LINE      ---      ---       #342
      00FF2BC7H   LINE      ---      ---       #343
      00FF2BCAH   LINE      ---      ---       #346
      00FF2BD1H   LINE      ---      ---       #348
      00FF2BE4H   LINE      ---      ---       #352
      00FF2BEBH   LINE      ---      ---       #355
      00FF2BF1H   LINE      ---      ---       #357
      00FF2BF3H   LINE      ---      ---       #358
      00FF2BF9H   LINE      ---      ---       #359
      00FF2BF9H   LINE      ---      ---       #362
      00FF2C04H   LINE      ---      ---       #365
      00FF2C06H   LINE      ---      ---       #366
      00FF2C0CH   LINE      ---      ---       #369
      00FF2C10H   LINE      ---      ---       #372
      00FF2C10H   LINE      ---      ---       #373
      00FF2C10H   LINE      ---      ---       #374
      00FF2C12H   LINE      ---      ---       #378
      00FF2C16H   LINE      ---      ---       #381
      00FF2C16H   LINE      ---      ---       #382
      00FF2C16H   LINE      ---      ---       #383
      00FF2C16H   LINE      ---      ---       #384
      00FF2C18H   LINE      ---      ---       #386
      00FF2C18H   LINE      ---      ---       #387
      00FF2C1BH   LINE      ---      ---       #388
      00FF2C23H   LINE      ---      ---       #390
      00FF2C26H   LINE      ---      ---       #393
      00FF2C2DH   LINE      ---      ---       #396
      00FF2C31H   LINE      ---      ---       #399
      00FF2C31H   LINE      ---      ---       #400
      00FF2C31H   LINE      ---      ---       #401
      00FF2C33H   LINE      ---      ---       #403
      00FF2C33H   LINE      ---      ---       #406
      00FF2C36H   LINE      ---      ---       #408
      00FF2C45H   LINE      ---      ---       #410
      00FF2C4BH   LINE      ---      ---       #411
      00FF2C50H   LINE      ---      ---       #413
      00FF2C53H   LINE      ---      ---       #414
      00FF2C5DH   LINE      ---      ---       #415
      00FF2C76H   LINE      ---      ---       #416
      00FF2C78H   LINE      ---      ---       #417
      00FF2C7DH   LINE      ---      ---       #420
      00FF2C83H   LINE      ---      ---       #421
      00FF2C86H   LINE      ---      ---       #423
      00FF2C8BH   LINE      ---      ---       #424
      00FF2C8EH   LINE      ---      ---       #425
      00FF2C98H   LINE      ---      ---       #426
      00FF2C9AH   LINE      ---      ---       #429
      00FF2C9DH   LINE      ---      ---       #430
      00FF2CA7H   LINE      ---      ---       #431
      00FF2CA7H   LINE      ---      ---       #434
      00FF2CADH   LINE      ---      ---       #435
      00FF2CB0H   LINE      ---      ---       #437
      00FF2CB6H   LINE      ---      ---       #440
      00FF2CBCH   LINE      ---      ---       #443
      00FF2CC8H   LINE      ---      ---       #445
      00FF2CCAH   LINE      ---      ---       #446
      00FF2CD0H   LINE      ---      ---       #447
      00FF2CD0H   LINE      ---      ---       #450
      00FF2CD3H   LINE      ---      ---       #453
      00FF2CD9H   LINE      ---      ---       #456
      00FF2CDCH   LINE      ---      ---       #457
      00FF2CEEH   LINE      ---      ---       #458
      00FF2CF2H   LINE      ---      ---       #461
      00FF2D06H   LINE      ---      ---       #462
      00FF2D0EH   LINE      ---      ---       #464
L251 LINKER/LOCATER V4.66.93.0                                                        04/08/2024  14:48:14  PAGE 146


      00FF2D15H   LINE      ---      ---       #467
      00FF2D19H   LINE      ---      ---       #468
      00FF2D1BH   LINE      ---      ---       #472
      00FF2D1FH   LINE      ---      ---       #473
      00FF2D1FH   LINE      ---      ---       #474
      00FF2D21H   LINE      ---      ---       #478
      00FF2D29H   LINE      ---      ---       #481
      00FF2D2CH   LINE      ---      ---       #482
      00FF2D2CH   LINE      ---      ---       #483
      00FF2D2EH   LINE      ---      ---       #485
      00FF2D2EH   LINE      ---      ---       #486
      00FF2D31H   LINE      ---      ---       #487
      00FF2D37H   LINE      ---      ---       #489
      00FF2D3AH   LINE      ---      ---       #492
      00FF2D4BH   LINE      ---      ---       #493
      00FF2D4EH   LINE      ---      ---       #496
      00FF2D5BH   LINE      ---      ---       #499
      00FF2D63H   LINE      ---      ---       #502
      00FF2D67H   LINE      ---      ---       #505
      00FF2D6DH   LINE      ---      ---       #506
      00FF2D6DH   LINE      ---      ---       #507
      00FF2D6FH   LINE      ---      ---       #509
      00FF2D6FH   LINE      ---      ---       #511
      00FF2D72H   LINE      ---      ---       #514
      00FF2D74H   LINE      ---      ---       #519
      00FF2D7CH   LINE      ---      ---       #520
      00FF2D7CH   LINE      ---      ---       #522
      00FF2D7CH   LINE      ---      ---       #523
      00FF2D7CH   LINE      ---      ---       #525
      00FF2D7CH   LINE      ---      ---       #527
      00FF2D7CH   LINE      CODE     ---       #527
      ---         BLOCKEND  CODE     ---       LVL=0
      00FF2D7FH   LINE      ---      ---       #528

      ---         MODULE    ---      ---       mac_RfeTx
      00FF5E85H   PUBLIC    CODE     ---       MAC_RfeTxParInit
      00FF1514H   PUBLIC    CODE     ---       MAC_RfeTxSchedule
      00FFA188H   PUBLIC    CODE     ---       MAC_RfeTxTaskSet
      00FFA1CFH   PUBLIC    CODE     ---       MAC_RfeTxPktLenUpdate
      00FFA242H   PUBLIC    CODE     ---       MAC_RfeTxHwSecSet
      00FFA292H   PUBLIC    CODE     ---       MAC_RfeDataGen
      0000B464H   PUBLIC    EDATA    INT       gMacRfeTxState
      0000B466H   PUBLIC    EDATA    ---       gMacRfeTxCtrl
      00FF0FEDH   PUBLIC    HCONST   ---       MACRfeDataType
      00FF0FF3H   PUBLIC    HCONST   ---       MACRfePrbs9
      00000080H   SFRSYM    DATA     BYTE      P0

      00FFA188H   BLOCK     CODE     ---       LVL=0
      00FFA188H   LINE      ---      ---       #58
      00FFA18AH   LINE      ---      ---       #60
      00FFA190H   LINE      ---      ---       #63
      00FFA194H   LINE      ---      ---       #64
      00FFA1B0H   LINE      ---      ---       #66
      00FFA1C4H   LINE      ---      ---       #67
      00FFA1C4H   LINE      ---      ---       #71
      R10         REGSYM    ---      BYTE      bRtcAutoEn
      ---         BLOCKEND  ---      ---       LVL=0

      00FFA1CFH   BLOCK     CODE     ---       LVL=0
      00FFA1CFH   LINE      ---      ---       #75
      00FFA1CFH   LINE      ---      ---       #77
      00FFA1DBH   LINE      ---      ---       #78
      00FFA20CH   LINE      ---      ---       #80
      00FFA21BH   LINE      ---      ---       #81
      00FFA21DH   LINE      ---      ---       #84
L251 LINKER/LOCATER V4.66.93.0                                                        04/08/2024  14:48:14  PAGE 147


      00FFA235H   LINE      ---      ---       #85
      00FFA239H   LINE      ---      ---       #86
      00FFA241H   LINE      ---      ---       #87
      00FFA241H   LINE      ---      ---       #88
      ---         BLOCKEND  ---      ---       LVL=0

      00FFA242H   BLOCK     CODE     ---       LVL=0
      00FFA242H   LINE      ---      ---       #91
      00FFA244H   LINE      ---      ---       #92
      00FFA244H   BLOCK     CODE     NEAR LAB  LVL=1
      00FFA244H   LINE      ---      ---       #95
      00FFA253H   LINE      ---      ---       #97
      00FFA255H   LINE      ---      ---       #98
      00FFA259H   LINE      ---      ---       #99
      00FFA25BH   LINE      ---      ---       #102
      00FFA25FH   LINE      ---      ---       #103
      00FFA263H   LINE      ---      ---       #104
      00FFA269H   LINE      ---      ---       #105
      00FFA271H   LINE      ---      ---       #106
      00FFA277H   LINE      ---      ---       #107
      00FFA27DH   LINE      ---      ---       #108
      00FFA27DH   LINE      ---      ---       #110
      WR12        REGSYM    ---      WORD      aDataLen
      WR14        REGSYM    ---      WORD      mDataLen
      ---         BLOCKEND  CODE     ---       LVL=1
      00FFA28FH   LINE      ---      ---       #111
      00FFA28FH   LINE      CODE     ---       #111

      00FFA292H   BLOCK     CODE     ---       LVL=0
      00FFA292H   LINE      ---      ---       #113
      00FFA29CH   LINE      ---      ---       #114
      REG=6       REGSYM    ---      ---       pbuf
      WR14        REGSYM    ---      WORD      len
      0000B65BH   SYMBOL    EDATA    BYTE      dataType
      00FFA29CH   BLOCK     CODE     NEAR LAB  LVL=1
      00FFA29CH   LINE      ---      ---       #117
      00FFA2A2H   LINE      ---      ---       #120
      00FFA2A5H   LINE      ---      ---       #121
      00FFA2DBH   LINE      ---      ---       #122
      00FFA2E3H   LINE      ---      ---       #123
      00FFA2FCH   LINE      ---      ---       #124
      00FFA300H   LINE      ---      ---       #125
      00FFA300H   LINE      ---      ---       #126
      00FFA309H   LINE      ---      ---       #128
      00FFA323H   LINE      ---      ---       #129
      00FFA327H   LINE      ---      ---       #130
      00FFA327H   LINE      ---      ---       #135
      0000B65CH   SYMBOL    EDATA    BYTE      idx
      ---         BLOCKEND  CODE     ---       LVL=1
      00FFA328H   LINE      ---      ---       #136
      00FFA328H   LINE      CODE     ---       #136

      00FF5E85H   BLOCK     CODE     ---       LVL=0
      00FF5E85H   LINE      ---      ---       #138
      00FF5E8DH   LINE      ---      ---       #140
      00FF5E92H   LINE      ---      ---       #141
      00FF5E98H   LINE      ---      ---       #142
      00FF5E9CH   LINE      ---      ---       #143
      00FF5EA0H   LINE      ---      ---       #144
      00FF5EA6H   LINE      ---      ---       #145
      00FF5EABH   LINE      ---      ---       #146
      00FF5EB1H   LINE      ---      ---       #147
      00FF5EB5H   LINE      ---      ---       #148
      00FF5EBBH   LINE      ---      ---       #149
      00FF5EBFH   LINE      ---      ---       #152
L251 LINKER/LOCATER V4.66.93.0                                                        04/08/2024  14:48:14  PAGE 148


      00FF5EC7H   LINE      ---      ---       #153
      00FF5EFBH   LINE      ---      ---       #154
      00FF5F0AH   LINE      ---      ---       #155
      00FF5F18H   LINE      ---      ---       #158
      00FF5F1AH   LINE      ---      ---       #159
      WR2         REGSYM    ---      WORD      txTarget
      WR4         REGSYM    ---      WORD      txStepSize
      R14         REGSYM    ---      BYTE      pktType
      R15         REGSYM    ---      BYTE      pktPhrType
      ---         BLOCKEND  ---      ---       LVL=0

      00FF1514H   BLOCK     CODE     ---       LVL=0
      00FF1514H   LINE      ---      ---       #161
      00FF1514H   LINE      ---      ---       #162
      00FF1514H   BLOCK     CODE     NEAR LAB  LVL=1
      00FF1514H   LINE      ---      ---       #163
      00FF1514H   LINE      ---      ---       #167
      00FF151FH   LINE      ---      ---       #169
      00FF151FH   LINE      ---      ---       #170
      00FF151FH   LINE      ---      ---       #173
      00FF1541H   LINE      ---      ---       #175
      00FF1541H   LINE      ---      ---       #177
      00FF1544H   LINE      ---      ---       #179
      WR6         REGSYM    ---      WORD      macFunEventQueue
      R11         REGSYM    ---      BYTE      retValue
      00FF1544H   BLOCK     CODE     NEAR LAB  LVL=2
      00FF1544H   LINE      ---      ---       #181
      00FF154CH   LINE      ---      ---       #182
      00FF1554H   LINE      ---      ---       #183
      00FF155CH   LINE      ---      ---       #184
      00FF1564H   LINE      ---      ---       #185
      0000B557H   SYMBOL    EDATA    ---       cb
      ---         BLOCKEND  CODE     ---       LVL=2
      00FF156BH   BLOCK     CODE     NEAR LAB  LVL=2
      00FF156BH   LINE      ---      ---       #186
      00FF156BH   LINE      ---      ---       #188
      00FF157BH   LINE      ---      ---       #192
      00FF157EH   LINE      ---      ---       #196
      00FF157EH   LINE      ---      ---       #197
      00FF1580H   LINE      ---      ---       #201
      00FF15AAH   LINE      ---      ---       #207
      00FF15ADH   LINE      ---      ---       #210
      00FF15BCH   LINE      ---      ---       #212
      00FF15BEH   LINE      ---      ---       #215
      00FF15C2H   LINE      ---      ---       #216
      00FF15C4H   LINE      ---      ---       #219
      00FF15CAH   LINE      ---      ---       #221
      00FF15CFH   LINE      ---      ---       #240
      00FF15D5H   LINE      ---      ---       #243
      00FF15D6H   LINE      ---      ---       #244
      00FF15D8H   LINE      ---      ---       #245
      00FF15DEH   LINE      ---      ---       #247
      00FF15E3H   LINE      ---      ---       #250
      00FF15E9H   LINE      ---      ---       #253
      00FF15EEH   LINE      ---      ---       #254
      00FF15F0H   LINE      ---      ---       #255
      00FF15FCH   LINE      ---      ---       #258
      00FF15FEH   LINE      ---      ---       #259
      00FF15FEH   LINE      ---      ---       #262
      00FF1604H   LINE      ---      ---       #263
      00FF1607H   LINE      ---      ---       #266
      00FF160BH   LINE      ---      ---       #267
      00FF160BH   LINE      ---      ---       #268
      00FF160BH   LINE      ---      ---       #269
      00FF160DH   LINE      ---      ---       #271
L251 LINKER/LOCATER V4.66.93.0                                                        04/08/2024  14:48:14  PAGE 149


      00FF160DH   LINE      ---      ---       #272
      00FF1610H   LINE      ---      ---       #273
      00FF1618H   LINE      ---      ---       #276
      00FF161BH   LINE      ---      ---       #279
      00FF162CH   LINE      ---      ---       #280
      00FF162EH   LINE      ---      ---       #282
      00FF1634H   LINE      ---      ---       #285
      00FF163AH   LINE      ---      ---       #288
      00FF1641H   LINE      ---      ---       #291
      00FF164FH   LINE      ---      ---       #294
      00FF1652H   LINE      ---      ---       #295
      00FF1652H   LINE      ---      ---       #298
      00FF165CH   LINE      ---      ---       #301
      00FF1669H   LINE      ---      ---       #304
      00FF166CH   LINE      ---      ---       #307
      00FF1672H   LINE      ---      ---       #308
      00FF1678H   LINE      ---      ---       #310
      00FF167CH   LINE      ---      ---       #311
      00FF167CH   LINE      ---      ---       #312
      00FF167EH   LINE      ---      ---       #314
      00FF167EH   LINE      ---      ---       #315
      00FF1681H   LINE      ---      ---       #316
      00FF1689H   LINE      ---      ---       #319
      00FF1690H   LINE      ---      ---       #322
      00FF16A1H   LINE      ---      ---       #323
      00FF16A3H   LINE      ---      ---       #327
      00FF16AEH   LINE      ---      ---       #329
      00FF16B8H   LINE      ---      ---       #330
      00FF16BBH   LINE      ---      ---       #331
      00FF16BDH   LINE      ---      ---       #333
      0000B55FH   SYMBOL    EDATA    ---       ackContent
      ---         BLOCKEND  CODE     ---       LVL=2
      00FF16BDH   LINE      ---      ---       #337
      00FF16CDH   LINE      ---      ---       #338
      00FF16DDH   LINE      ---      ---       #340
      00FF16E7H   LINE      ---      ---       #341
      00FF16EAH   LINE      ---      ---       #342
      00FF16ECH   LINE      ---      ---       #345
      00FF16F6H   LINE      ---      ---       #346
      00FF16F9H   LINE      ---      ---       #347
      00FF16F9H   LINE      CODE     ---       #347
      ---         BLOCKEND  CODE     ---       LVL=0
      00FF16F9H   LINE      ---      ---       #348
      00FF16F9H   LINE      ---      ---       #352
      00FF1700H   LINE      ---      ---       #354
      00FF1706H   LINE      ---      ---       #357
      00FF170AH   LINE      ---      ---       #358
      00FF170CH   LINE      ---      ---       #359
      00FF1712H   LINE      ---      ---       #362
      00FF1719H   LINE      ---      ---       #364
      00FF171CH   LINE      ---      ---       #367
      00FF171EH   LINE      ---      ---       #371
      00FF1724H   LINE      ---      ---       #374
      00FF1728H   LINE      ---      ---       #375
      00FF1728H   LINE      ---      ---       #376
      00FF172AH   LINE      ---      ---       #378
      00FF172AH   LINE      ---      ---       #380
      00FF172DH   LINE      ---      ---       #385
      00FF1735H   LINE      ---      ---       #386
      00FF1737H   LINE      ---      ---       #388
      00FF1737H   LINE      ---      ---       #390
      00FF173AH   LINE      ---      ---       #399
      00FF173AH   LINE      ---      ---       #401
      00FF173AH   LINE      ---      ---       #402
      00FF173AH   LINE      ---      ---       #403
L251 LINKER/LOCATER V4.66.93.0                                                        04/08/2024  14:48:14  PAGE 150


      00FF173AH   LINE      ---      ---       #405
      00FF173DH   LINE      ---      ---       #406

      ---         MODULE    ---      ---       mac_DtmRx

      ---         MODULE    ---      ---       mac_DtmTx

      ---         MODULE    ---      ---       mac_htrp_control
      00FF90C1H   PUBLIC    CODE     ---       mac_htrp_ctrl_set_channel_map_from_bmu
      00FFA32BH   PUBLIC    CODE     ---       mac_htrp_ctrl_get_channel
      00FF742CH   PUBLIC    CODE     ---       mac_htrp_ctrl_increase_channel_index
      00FFA343H   PUBLIC    CODE     ---       mac_htrp_ctrl_clear_pkt_cnt
      00FF7A40H   PUBLIC    CODE     ---       mac_htrp_ctrl_increase_pkt_cnt
      00FF733EH   PUBLIC    CODE     ---       mac_htrp_ctrl_increase_slot_index
      00FFA368H   PUBLIC    CODE     ---       mac_htrp_ctrl_slot_sync
      00FF1FE3H   PUBLIC    CODE     ---       mac_htrp_ctrl_channel_set
      00FF77BFH   PUBLIC    CODE     ---       mac_htrp_ctrl_increase_cur_block
      00FF913EH   PUBLIC    CODE     ---       mac_htrp_set_sec_para
      00FF27E2H   PUBLIC    CODE     ---       mac_htrp_set_disable
      00FF65C4H   PUBLIC    CODE     ---       mac_htrp_send_tx_done
      00FF2482H   PUBLIC    CODE     ---       mac_htrp_reg_isr_cb
      00FF26F5H   PUBLIC    CODE     ---       mac_htrp_isr_tx_done_handler
      00FFA392H   PUBLIC    CODE     ---       mac_htrp_isr_rx_done_handler
      00FF7995H   PUBLIC    CODE     ---       mac_htrp_check_rx_valid
      00FF2FD2H   PUBLIC    CODE     ---       mac_htrp_set_rx_sw_queue
      00FF7288H   PUBLIC    CODE     ---       mac_htrp_update_lrx_buf_status
      00FF7830H   PUBLIC    CODE     ---       mac_htrp_relay_data_to_sw_rxq
      00FF782EH   PUBLIC    CODE     ---       mac_htrp_get_rx_sw_queue_wo_addr
      00FF75F2H   PUBLIC    CODE     ---       mac_htrp_set_rx_hw_queue
      00FF75E7H   PUBLIC    CODE     ---       mac_htrp_set_rx_queue
      00FF78D3H   PUBLIC    CODE     ---       mac_htrp_clear_rx_queue
      00FF91A2H   PUBLIC    CODE     ---       mac_htrp_reset_rx_conn_status
      00FFA3B6H   PUBLIC    CODE     ---       mac_htrp_check_rx_conn_status
      00FF248BH   PUBLIC    CODE     ---       mac_htrp_get_tx_data
      00FF2394H   PUBLIC    CODE     ---       mac_htrp_set_tx_queue
      00FF65CFH   PUBLIC    CODE     ---       mac_htrp_clear_tx_queue
      00FFA3D5H   PUBLIC    CODE     ---       mac_htrp_ctrl_init
      00FF587BH   PUBLIC    CODE     ---       mac_htrp_sleep_init
      00FFA3F8H   PUBLIC    CODE     ---       mac_htrp_rtc_isr_handler
      00FF276FH   PUBLIC    CODE     ---       mac_htrp_is_allow_sleep_state
      00FF3DB7H   PUBLIC    CODE     ---       mac_htrp_sleep_ctrl
      00FF3F82H   PUBLIC    CODE     ---       mac_htrp_ready_to_sleep
      0000B0C2H   PUBLIC    EDATA    ---       g_mac_htrp_ctrl
      0000B1F4H   PUBLIC    EDATA    BYTE      g_mac_htrp_rx_commit_type
      0000B1F5H   PUBLIC    EDATA    ---       g_mac_htrp_tx_local_data
      0000B1FBH   PUBLIC    EDATA    ---       gMac_htrp_tx_done_hdl
      0000B1FDH   PUBLIC    EDATA    ---       gMac_htrp_rx_done_hdl
      000000A8H.7 SFRSYM    DATA     BIT       EA
      00000080H   SFRSYM    DATA     BYTE      P0

      00FF90C1H   BLOCK     CODE     ---       LVL=0
      00FF90C1H   LINE      ---      ---       #87
      00FF90C7H   LINE      ---      ---       #88
      REG=0       REGSYM    ---      ---       map
      R9          REGSYM    ---      BYTE      start
      R10         REGSYM    ---      BYTE      length
      00FF90C7H   BLOCK     CODE     NEAR LAB  LVL=1
      00FF90C7H   LINE      ---      ---       #90
      00FF90D3H   LINE      ---      ---       #91
      00FF90D5H   LINE      ---      ---       #92
      00FF90D5H   LINE      ---      ---       #94
      00FF90D9H   LINE      ---      ---       #95
      00FF90FBH   LINE      ---      ---       #96
      00FF9101H   LINE      ---      ---       #98
      00FF910BH   LINE      ---      ---       #100
L251 LINKER/LOCATER V4.66.93.0                                                        04/08/2024  14:48:14  PAGE 151


      R8          REGSYM    ---      BYTE      count
      ---         BLOCKEND  CODE     ---       LVL=1
      00FF910DH   LINE      ---      ---       #101
      00FF910DH   LINE      CODE     ---       #101

      00FFA32BH   BLOCK     CODE     ---       LVL=0
      00FFA32BH   LINE      ---      ---       #103
      00FFA32DH   LINE      ---      ---       #105
      00FFA335H   LINE      ---      ---       #106
      R6          REGSYM    ---      BYTE      index
      ---         BLOCKEND  ---      ---       LVL=0

      00FF741FH   BLOCK     CODE     ---       LVL=0
      00FF742CH   LINE      ---      ---       #108
      00FF742CH   LINE      ---      ---       #109
      00FF741FH   SYMBOL    CODE     NEAR LAB  ?L?COM0033
      R7          REGSYM    ---      BYTE      count
      00FF742CH   BLOCK     CODE     NEAR LAB  LVL=1
      00FF742CH   LINE      ---      ---       #110
      00FF7436H   LINE      ---      ---       #111
      00FF743EH   LINE      ---      ---       #112
      00FF7447H   LINE      ---      ---       #113
      00FF7449H   LINE      ---      ---       #114
      00FF744DH   LINE      ---      ---       #115
      R7          REGSYM    ---      BYTE      temp_count
      ---         BLOCKEND  CODE     ---       LVL=1
      00FF744DH   LINE      ---      ---       #116
      00FF744DH   LINE      CODE     ---       #116

      00FFA336H   BLOCK     CODE     ---       LVL=0
      00FFA343H   LINE      ---      ---       #117
      00FFA343H   LINE      ---      ---       #119
      00FFA34FH   LINE      ---      ---       #120
      00FFA35BH   LINE      ---      ---       #121
      00FFA336H   SYMBOL    CODE     NEAR LAB  ?L?COM0035
      ---         BLOCKEND  ---      ---       LVL=0

      00FF7A40H   BLOCK     CODE     ---       LVL=0
      00FF7A40H   LINE      ---      ---       #124
      00FF7A42H   LINE      ---      ---       #125
      R3          REGSYM    ---      BYTE      crc_flag
      00FF7A42H   BLOCK     CODE     NEAR LAB  LVL=1
      00FF7A42H   LINE      ---      ---       #126
      00FF7A46H   LINE      ---      ---       #128
      00FF7A57H   LINE      ---      ---       #129
      00FF7A5BH   LINE      ---      ---       #130
      00FF7A6CH   LINE      ---      ---       #133
      00FF7A7AH   LINE      ---      ---       #134
      00FF7A8CH   LINE      ---      ---       #135
      00FF7A96H   LINE      ---      ---       #136
      00FF7AA1H   LINE      ---      ---       #137
      R6          REGSYM    ---      BYTE      ch_idx
      ---         BLOCKEND  CODE     ---       LVL=1
      ---         BLOCKEND  CODE     ---       LVL=0

      00FF7339H   BLOCK     CODE     ---       LVL=0
      00FF733EH   LINE      ---      ---       #141
      00FF733EH   LINE      ---      ---       #142
      00FF7339H   SYMBOL    CODE     NEAR LAB  ?L?COM002F
      R7          REGSYM    ---      BYTE      count
      00FF733EH   BLOCK     CODE     NEAR LAB  LVL=1
      00FF733EH   LINE      ---      ---       #143
      00FF7348H   LINE      ---      ---       #145
      00FF734DH   LINE      ---      ---       #146
      00FF7358H   LINE      ---      ---       #147
L251 LINKER/LOCATER V4.66.93.0                                                        04/08/2024  14:48:14  PAGE 152


      00FF735AH   LINE      ---      ---       #148
      00FF735EH   LINE      ---      ---       #149
      R7          REGSYM    ---      BYTE      temp_count
      ---         BLOCKEND  CODE     ---       LVL=1
      00FF735EH   LINE      ---      ---       #150
      00FF735EH   LINE      CODE     ---       #150

      00FFA368H   BLOCK     CODE     ---       LVL=0
      00FFA368H   LINE      ---      ---       #152
      00FFA368H   LINE      ---      ---       #153
      00FFA368H   BLOCK     CODE     NEAR LAB  LVL=1
      00FFA368H   LINE      ---      ---       #154
      00FFA375H   LINE      ---      ---       #155
      00FFA37EH   LINE      ---      ---       #157
      00FFA38DH   LINE      ---      ---       #158
      00FFA390H   LINE      ---      ---       #159
      DR4         REGSYM    ---      DWORD     phr
      R7          REGSYM    ---      BYTE      slot_cnt
      ---         BLOCKEND  CODE     ---       LVL=1
      00FFA391H   LINE      ---      ---       #160
      00FFA391H   LINE      CODE     ---       #160

      00FF1FE3H   BLOCK     CODE     ---       LVL=0
      00FF1FE3H   LINE      ---      ---       #162
      00FF1FE3H   LINE      ---      ---       #165
      00FF1FF6H   LINE      ---      ---       #170
      ---         BLOCKEND  ---      ---       LVL=0

      00FF77BFH   BLOCK     CODE     ---       LVL=0
      00FF77BFH   LINE      ---      ---       #174
      00FF77BFH   LINE      ---      ---       #175
      R7          REGSYM    ---      BYTE      count
      00FF77BFH   BLOCK     CODE     NEAR LAB  LVL=1
      00FF77BFH   LINE      ---      ---       #176
      00FF77C9H   LINE      ---      ---       #177
      00FF77D1H   LINE      ---      ---       #178
      00FF77DAH   LINE      ---      ---       #179
      00FF77DCH   LINE      ---      ---       #180
      00FF77E0H   LINE      ---      ---       #181
      R7          REGSYM    ---      BYTE      temp_count
      ---         BLOCKEND  CODE     ---       LVL=1
      00FF77E0H   LINE      ---      ---       #182
      00FF77E0H   LINE      CODE     ---       #182

      00FF913EH   BLOCK     CODE     ---       LVL=0
      00FF913EH   LINE      ---      ---       #184
      00FF9144H   LINE      ---      ---       #186
      00FF914FH   LINE      ---      ---       #187
      00FF915CH   LINE      ---      ---       #188
      REG=2       REGSYM    ---      ---       nonce
      REG=7       REGSYM    ---      ---       key
      ---         BLOCKEND  ---      ---       LVL=0

      00FF27D7H   BLOCK     CODE     ---       LVL=0
      00FF27E2H   LINE      ---      ---       #190
      00FF27E2H   LINE      ---      ---       #192
      00FF27E4H   LINE      ---      ---       #193
      00FF27E8H   LINE      ---      ---       #194
      00FF27EAH   LINE      ---      ---       #195
      00FF27D7H   SYMBOL    CODE     NEAR LAB  ?L?COM0037
      R11         REGSYM    ---      BYTE      is_disable
      ---         BLOCKEND  ---      ---       LVL=0

      00FF65C4H   BLOCK     CODE     ---       LVL=0
      00FF65C4H   LINE      ---      ---       #197
L251 LINKER/LOCATER V4.66.93.0                                                        04/08/2024  14:48:14  PAGE 153


      00FF65C4H   LINE      ---      ---       #199
      00FF65CDH   LINE      ---      ---       #200
      ---         BLOCKEND  ---      ---       LVL=0

      00FF2482H   BLOCK     CODE     ---       LVL=0
      00FF2482H   LINE      ---      ---       #203
      00FF2482H   LINE      ---      ---       #205
      00FF2486H   LINE      ---      ---       #206
      00FF248AH   LINE      ---      ---       #207
      REG=3       REGSYM    ---      ---       tx
      REG=2       REGSYM    ---      ---       rx
      ---         BLOCKEND  ---      ---       LVL=0

      00FF26F5H   BLOCK     CODE     ---       LVL=0
      00FF26F5H   LINE      ---      ---       #209
      00FF26F5H   LINE      ---      ---       #211
      00FF26F8H   LINE      ---      ---       #213
      00FF26FEH   LINE      ---      ---       #214
      00FF2705H   LINE      ---      ---       #215
      00FF270BH   LINE      ---      ---       #216
      00FF270FH   LINE      ---      ---       #217
      00FF2711H   LINE      ---      ---       #218
      00FF2713H   LINE      ---      ---       #219
      00FF2719H   LINE      ---      ---       #220
      00FF2719H   LINE      ---      ---       #222
      00FF2721H   LINE      ---      ---       #223
      00FF2727H   LINE      ---      ---       #224
      00FF2727H   LINE      ---      ---       #226
      00FF272DH   LINE      ---      ---       #227
      00FF272DH   LINE      ---      ---       #228
      ---         BLOCKEND  ---      ---       LVL=0

      00FFA392H   BLOCK     CODE     ---       LVL=0
      00FFA392H   LINE      ---      ---       #230
      00FFA392H   LINE      ---      ---       #232
      00FFA395H   LINE      ---      ---       #234
      00FFA39BH   LINE      ---      ---       #236
      00FFA3A3H   LINE      ---      ---       #237
      00FFA3A9H   LINE      ---      ---       #238
      00FFA3A9H   LINE      ---      ---       #240
      00FFA3ADH   LINE      ---      ---       #241
      00FFA3AFH   LINE      ---      ---       #242
      ---         BLOCKEND  ---      ---       LVL=0

      00FF7995H   BLOCK     CODE     ---       LVL=0
      00FF7995H   LINE      ---      ---       #246
      00FF7995H   LINE      ---      ---       #247
      00FF7995H   BLOCK     CODE     NEAR LAB  LVL=1
      00FF7995H   LINE      ---      ---       #249
      00FF7997H   LINE      ---      ---       #250
      00FF79A1H   LINE      ---      ---       #252
      00FF79AFH   LINE      ---      ---       #254
      00FF79B5H   LINE      ---      ---       #256
      00FF79C3H   LINE      ---      ---       #258
      00FF79C7H   LINE      ---      ---       #259
      00FF79CBH   LINE      ---      ---       #260
      00FF79CDH   LINE      ---      ---       #261
      00FF79CFH   LINE      ---      ---       #262
      00FF79D9H   LINE      ---      ---       #263
      00FF79D9H   LINE      ---      ---       #264
      00FF79D9H   LINE      ---      ---       #267
      00FF79E1H   LINE      ---      ---       #268
      00FF79E4H   LINE      ---      ---       #269
      00FF79E4H   LINE      ---      ---       #270
      R7          REGSYM    ---      BYTE      is_crc_pass
L251 LINKER/LOCATER V4.66.93.0                                                        04/08/2024  14:48:14  PAGE 154


      R10         REGSYM    ---      BYTE      sec_err
      R6          REGSYM    ---      BYTE      crc_err
      ---         BLOCKEND  CODE     ---       LVL=1
      00FF79E5H   LINE      ---      ---       #271
      00FF79E5H   LINE      CODE     ---       #271

      00FF2FD2H   BLOCK     CODE     ---       LVL=0
      00FF2FD2H   LINE      ---      ---       #274
      00FF2FD2H   LINE      ---      ---       #276
      00FF2FD5H   LINE      ---      ---       #277
      ---         BLOCKEND  ---      ---       LVL=0

      00FF7288H   BLOCK     CODE     ---       LVL=0
      00FF7288H   LINE      ---      ---       #280
      00FF7288H   LINE      ---      ---       #283
      00FF728AH   LINE      ---      ---       #284
      ---         BLOCKEND  ---      ---       LVL=0

      00FF782EH   BLOCK     CODE     ---       LVL=0
      00FF782EH   LINE      ---      ---       #287
      00FF782EH   LINE      ---      ---       #289
      ---         BLOCKEND  ---      ---       LVL=0

      00FF7830H   BLOCK     CODE     ---       LVL=0
      00FF7830H   LINE      ---      ---       #292
      00FF7832H   LINE      ---      ---       #293
      00FF7832H   BLOCK     CODE     NEAR LAB  LVL=1
      00FF7832H   LINE      ---      ---       #294
      00FF7837H   LINE      ---      ---       #300
      00FF783BH   LINE      ---      ---       #302
      00FF783FH   LINE      ---      ---       #305
      00FF7842H   LINE      ---      ---       #306
      00FF7859H   LINE      ---      ---       #307
      00FF7866H   LINE      ---      ---       #310
      00FF786FH   LINE      ---      ---       #311
      00FF7898H   LINE      ---      ---       #316
      00FF78A0H   LINE      ---      ---       #324
      00FF78A2H   LINE      ---      ---       #327
      00FF78ABH   LINE      ---      ---       #329
      REG=6       REGSYM    ---      ---       hwLrxBuf
      REG=7       REGSYM    ---      ---       swShareBufWo
      R10         REGSYM    ---      BYTE      pktLen
      0000B5FAH   SYMBOL    EDATA    ---       rxPhyStatus
      ---         BLOCKEND  CODE     ---       LVL=1
      00FF78B2H   LINE      ---      ---       #330
      00FF78B2H   LINE      CODE     ---       #330

      00FF75F2H   BLOCK     CODE     ---       LVL=0
      00FF75F2H   LINE      ---      ---       #333
      00FF75F2H   LINE      ---      ---       #335
      00FF75FCH   LINE      ---      ---       #336
      00FF75FFH   LINE      ---      ---       #337
      00FF7614H   LINE      ---      ---       #338
      00FF761AH   LINE      ---      ---       #341
      00FF7623H   LINE      ---      ---       #342
      00FF7624H   LINE      ---      ---       #343
      00FF7627H   LINE      ---      ---       #344
      00FF763DH   LINE      ---      ---       #345
      00FF7640H   LINE      ---      ---       #346
      00FF7640H   LINE      ---      ---       #348
      ---         BLOCKEND  ---      ---       LVL=0

      00FF75E3H   BLOCK     CODE     ---       LVL=0
      00FF75E7H   LINE      ---      ---       #350
      00FF75E9H   LINE      ---      ---       #353
L251 LINKER/LOCATER V4.66.93.0                                                        04/08/2024  14:48:14  PAGE 155


      00FF75EDH   LINE      ---      ---       #355
      00FF75F0H   LINE      ---      ---       #356
      00FF75F0H   LINE      ---      ---       #362
      00FF75E3H   SYMBOL    CODE     NEAR LAB  ?L?COM0043
      R7          REGSYM    ---      BYTE      queue_type
      ---         BLOCKEND  ---      ---       LVL=0

      00FF78CFH   BLOCK     CODE     ---       LVL=0
      00FF78D3H   LINE      ---      ---       #366
      00FF78D7H   LINE      ---      ---       #368
      00FF78DEH   LINE      ---      ---       #369
      00FF78E5H   LINE      ---      ---       #370
      00FF78EAH   LINE      ---      ---       #372
      00FF78EDH   LINE      ---      ---       #377
      00FF78EFH   LINE      ---      ---       #378
      00FF78CFH   SYMBOL    CODE     NEAR LAB  ?L?COM004F
      R15         REGSYM    ---      BYTE      queue_type
      00FF78F3H   BLOCK     CODE     NEAR LAB  LVL=1
      00FF78F3H   LINE      ---      ---       #381
      00FF7902H   LINE      ---      ---       #382
      00FF790CH   LINE      ---      ---       #385
      00FF7911H   LINE      ---      ---       #390
      00FF7913H   LINE      ---      ---       #392
      00FF7915H   LINE      ---      ---       #398
      00FF791EH   LINE      ---      ---       #400
      00FF7921H   LINE      ---      ---       #401
      00FF7921H   LINE      ---      ---       #403
      00FF7924H   LINE      ---      ---       #404
      00FF7926H   LINE      ---      ---       #405
      00FF792FH   LINE      ---      ---       #406
      00FF7932H   LINE      ---      ---       #407
      00FF7932H   LINE      ---      ---       #408
      0000B65DH   SYMBOL    EDATA    ---       phr
      ---         BLOCKEND  CODE     ---       LVL=1
      00FF7934H   LINE      ---      ---       #410
      00FF7936H   LINE      ---      ---       #411
      00FF793CH   LINE      ---      ---       #412
      00FF793FH   LINE      ---      ---       #413
      00FF7942H   LINE      ---      ---       #414
      00FF7942H   LINE      ---      ---       #415
      00FF7942H   LINE      CODE     ---       #415

      00FF91A2H   BLOCK     CODE     ---       LVL=0
      00FF91A2H   LINE      ---      ---       #417
      00FF91A2H   LINE      ---      ---       #419
      00FF91A7H   LINE      ---      ---       #420
      00FF91ADH   LINE      ---      ---       #421
      00FF91B1H   LINE      ---      ---       #422
      ---         BLOCKEND  ---      ---       LVL=0

      00FFA3B6H   BLOCK     CODE     ---       LVL=0
      00FFA3B6H   LINE      ---      ---       #424
      00FFA3B6H   LINE      ---      ---       #426
      00FFA3C0H   LINE      ---      ---       #427
      00FFA3C2H   LINE      ---      ---       #428
      00FFA3CAH   LINE      ---      ---       #429
      00FFA3D0H   LINE      ---      ---       #430
      00FFA3D0H   LINE      ---      ---       #432
      00FFA3D4H   LINE      ---      ---       #433
      ---         BLOCKEND  ---      ---       LVL=0

      00FF248BH   BLOCK     CODE     ---       LVL=0
      00FF248BH   LINE      ---      ---       #435
      00FF248BH   LINE      ---      ---       #436
      00FF248BH   BLOCK     CODE     NEAR LAB  LVL=1
L251 LINKER/LOCATER V4.66.93.0                                                        04/08/2024  14:48:14  PAGE 156


      00FF248BH   LINE      ---      ---       #439
      00FF2495H   LINE      ---      ---       #443
      00FF2497H   LINE      ---      ---       #445
      00FF249BH   LINE      ---      ---       #446
      00FF249DH   LINE      ---      ---       #447
      WR6         REGSYM    ---      WORD      macIntEventQueue
      ---         BLOCKEND  CODE     ---       LVL=1
      ---         BLOCKEND  CODE     ---       LVL=0

      00FF2392H   BLOCK     CODE     ---       LVL=0
      00FF2394H   LINE      ---      ---       #451
      00FF2394H   LINE      ---      ---       #452
      00FF2392H   SYMBOL    CODE     NEAR LAB  ?L?COM003A
      00FF2394H   BLOCK     CODE     NEAR LAB  LVL=1
      00FF2394H   LINE      ---      ---       #456
      00FF239CH   LINE      ---      ---       #457
      00FF239FH   LINE      ---      ---       #458
      00FF23A5H   LINE      ---      ---       #459
      00FF23A8H   LINE      ---      ---       #461
      00FF23AEH   LINE      ---      ---       #465
      00FF23B1H   LINE      ---      ---       #466
      00FF23B7H   LINE      ---      ---       #468
      00FF23C5H   LINE      ---      ---       #472
      00FF23E1H   LINE      ---      ---       #474
      00FF23FBH   LINE      ---      ---       #475
      00FF23FEH   LINE      ---      ---       #476
      00FF23FEH   LINE      ---      ---       #477
      00FF240CH   LINE      ---      ---       #478
      00FF240DH   LINE      ---      ---       #479
      00FF2415H   LINE      ---      ---       #481
      00FF2427H   LINE      ---      ---       #485
      00FF243DH   LINE      ---      ---       #487
      00FF2453H   LINE      ---      ---       #488
      00FF2456H   LINE      ---      ---       #489
      00FF2456H   LINE      ---      ---       #490
      00FF2478H   LINE      ---      ---       #491
      00FF247EH   LINE      ---      ---       #492
      00FF2481H   LINE      ---      ---       #493
      0000B65FH   SYMBOL    EDATA    ---       phr
      ---         BLOCKEND  CODE     ---       LVL=1
      00FF2481H   LINE      ---      ---       #494
      00FF2481H   LINE      CODE     ---       #494

      00FF65CFH   BLOCK     CODE     ---       LVL=0
      00FF65CFH   LINE      ---      ---       #496
      00FF65CFH   LINE      ---      ---       #498
      00FF65D5H   LINE      ---      ---       #499
      00FF65D8H   LINE      ---      ---       #503
      00FF65DAH   LINE      ---      ---       #505
      00FF65DAH   LINE      ---      ---       #506
      00FF65DDH   LINE      ---      ---       #507
      00FF65E2H   LINE      ---      ---       #508
      00FF65E2H   LINE      ---      ---       #509
      WR6         REGSYM    ---      WORD      funEvent
      ---         BLOCKEND  ---      ---       LVL=0

      00FFA3D5H   BLOCK     CODE     ---       LVL=0
      00FFA3D5H   LINE      ---      ---       #511
      00FFA3D5H   LINE      ---      ---       #513
      00FFA3E1H   LINE      ---      ---       #514
      00FFA3EDH   LINE      ---      ---       #515
      00FFA3F3H   LINE      ---      ---       #516
      00FFA3F7H   LINE      ---      ---       #517
      ---         BLOCKEND  ---      ---       LVL=0

L251 LINKER/LOCATER V4.66.93.0                                                        04/08/2024  14:48:14  PAGE 157


      00FF587BH   BLOCK     CODE     ---       LVL=0
      00FF587BH   LINE      ---      ---       #519
      00FF587BH   LINE      ---      ---       #521
      00FF5881H   LINE      ---      ---       #522
      00FF5886H   LINE      ---      ---       #523
      00FF588EH   LINE      ---      ---       #524
      00FF589AH   LINE      ---      ---       #525
      ---         BLOCKEND  ---      ---       LVL=0

      00FFA3F8H   BLOCK     CODE     ---       LVL=0
      00FFA3F8H   LINE      ---      ---       #527
      00FFA3F8H   LINE      ---      ---       #529
      00FFA3FDH   LINE      ---      ---       #530
      ---         BLOCKEND  ---      ---       LVL=0

      00FF276FH   BLOCK     CODE     ---       LVL=0
      00FF276FH   LINE      ---      ---       #532
      00FF2771H   LINE      ---      ---       #534
      00FF2777H   LINE      ---      ---       #536
      00FF277AH   LINE      ---      ---       #537
      00FF277AH   LINE      ---      ---       #539
      00FF2783H   LINE      ---      ---       #541
      00FF278FH   LINE      ---      ---       #544
      00FF2793H   LINE      ---      ---       #545
      00FF2793H   LINE      ---      ---       #547
      00FF2798H   LINE      ---      ---       #549
      00FF27A4H   LINE      ---      ---       #552
      00FF27A8H   LINE      ---      ---       #553
      00FF27A8H   LINE      ---      ---       #556
      00FF27A9H   LINE      ---      ---       #557
      ---         BLOCKEND  ---      ---       LVL=0

      00FF3DB7H   BLOCK     CODE     ---       LVL=0
      00FF3DB7H   LINE      ---      ---       #559
      00FF3DB9H   LINE      ---      ---       #560
      00FF3DB9H   BLOCK     CODE     NEAR LAB  LVL=1
      00FF3DB9H   LINE      ---      ---       #563
      00FF3DBFH   LINE      ---      ---       #565
      00FF3DBFH   LINE      ---      ---       #566
      00FF3DBFH   LINE      ---      ---       #572
      00FF3DCEH   LINE      ---      ---       #576
      00FF3DD8H   LINE      ---      ---       #577
      00FF3DE7H   LINE      ---      ---       #579
      00FF3DEFH   LINE      ---      ---       #580
      00FF3DF5H   LINE      ---      ---       #581
      DR12        REGSYM    ---      DWORD     nextAnchor
      ---         BLOCKEND  CODE     ---       LVL=1
      00FF3DF5H   LINE      ---      ---       #583
      00FF3DF5H   LINE      CODE     ---       #583

      00FF3F82H   BLOCK     CODE     ---       LVL=0
      00FF3F82H   LINE      ---      ---       #585
      00FF3F82H   LINE      ---      ---       #587
      00FF3F86H   LINE      ---      ---       #588
      ---         BLOCKEND  ---      ---       LVL=0

      ---         MODULE    ---      ---       mac_htrp_rx
      00FF1F79H   PUBLIC    CODE     ---       mac_htrp_rx_set_state
      00FF27ACH   PUBLIC    CODE     ---       mac_htrp_rx_get_state
      00FF1BAEH   PUBLIC    CODE     ---       mac_htrp_rx_handler
      00FFA3FEH   PUBLIC    CODE     ---       mac_htrp_rx_init
      00FF7742H   PUBLIC    CODE     ---       mac_htrp_rx_cal_drift_time
      00FF1AF5H   PUBLIC    CODE     ---       mac_htrp_rx_set_rf_task
      00FF7641H   PUBLIC    CODE     ---       mac_htrp_rx_set_next_task_and_channel
      00FF7702H   PUBLIC    CODE     ---       mac_htrp_rx_burst_rx_done
L251 LINKER/LOCATER V4.66.93.0                                                        04/08/2024  14:48:14  PAGE 158


      00FFA427H   PUBLIC    CODE     ---       mac_htrp_rx_slot_rx_done
      00FF77B7H   PUBLIC    CODE     ---       mac_htrp_rx_slot_tx_done
      00FF7AA2H   PUBLIC    CODE     ---       mac_htrp_rx_set_period_next_task
      00FF79E6H   PUBLIC    CODE     ---       mac_htrp_rx_period_rx_done
      00FFA51EH   PUBLIC    CODE     ---       mac_htrp_rx_period_tx_done
      0000B647H   PUBLIC    EDATA    BYTE      g_mac_htrp_rx_state
      0000B648H   PUBLIC    EDATA    BYTE      g_mac_htrp_rx_set_ch_time
      0000B649H   PUBLIC    EDATA    BYTE      g_mac_htrp_rx_sync_time
      00000080H   SFRSYM    DATA     BYTE      P0

      00FF1F79H   BLOCK     CODE     ---       LVL=0
      00FF1F79H   LINE      ---      ---       #114
      00FF1F79H   LINE      ---      ---       #116
      00FF1F7DH   LINE      ---      ---       #117
      R11         REGSYM    ---      BYTE      state
      ---         BLOCKEND  ---      ---       LVL=0

      00FF27ACH   BLOCK     CODE     ---       LVL=0
      00FF27ACH   LINE      ---      ---       #119
      00FF27ACH   LINE      ---      ---       #121
      00FF27B0H   LINE      ---      ---       #122
      ---         BLOCKEND  ---      ---       LVL=0

      00FF7727H   BLOCK     CODE     ---       LVL=0
      00FF7742H   LINE      ---      ---       #124
      00FF7742H   LINE      ---      ---       #126
      00FF7750H   LINE      ---      ---       #127
      00FF7753H   LINE      ---      ---       #128
      00FF775FH   LINE      ---      ---       #129
      00FF7768H   LINE      ---      ---       #141
      00FF7787H   LINE      ---      ---       #142
      00FF7787H   LINE      ---      ---       #143
      00FF778CH   LINE      ---      ---       #144
      00FF778CH   LINE      ---      ---       #145
      00FF778CH   LINE      ---      ---       #146
      00FF77AEH   LINE      ---      ---       #147
      00FF77AEH   LINE      ---      ---       #148
      00FF7727H   SYMBOL    CODE     NEAR LAB  ?L?COM000C
      ---         BLOCKEND  ---      ---       LVL=0

      00FF1AF1H   BLOCK     CODE     ---       LVL=0
      00FF1AF5H   LINE      ---      ---       #150
      00FF1AFDH   LINE      ---      ---       #151
      00FF1AF1H   SYMBOL    CODE     NEAR LAB  ?L?COM0044
      R13         REGSYM    ---      BYTE      need_tx
      REG=7       REGSYM    ---      ---       time
      00FF1AFDH   BLOCK     CODE     NEAR LAB  LVL=1
      00FF1AFDH   LINE      ---      ---       #155
      00FF1B03H   LINE      ---      ---       #156
      00FF1B08H   LINE      ---      ---       #157
      00FF1B0EH   LINE      ---      ---       #158
      00FF1B12H   LINE      ---      ---       #159
      00FF1B18H   LINE      ---      ---       #160
      00FF1B2CH   LINE      ---      ---       #161
      00FF1B2EH   LINE      ---      ---       #162
      00FF1B33H   LINE      ---      ---       #163
      00FF1B39H   LINE      ---      ---       #164
      00FF1B39H   LINE      ---      ---       #165
      00FF1B45H   LINE      ---      ---       #166
      00FF1B51H   LINE      ---      ---       #167
      00FF1B59H   LINE      ---      ---       #169
      00FF1B5DH   LINE      ---      ---       #170
      00FF1B63H   LINE      ---      ---       #171
      00FF1B68H   LINE      ---      ---       #172
      00FF1B6CH   LINE      ---      ---       #173
L251 LINKER/LOCATER V4.66.93.0                                                        04/08/2024  14:48:14  PAGE 159


      00FF1B70H   LINE      ---      ---       #174
      00FF1B76H   LINE      ---      ---       #175
      00FF1B7CH   LINE      ---      ---       #176
      00FF1B80H   LINE      ---      ---       #177
      00FF1B88H   LINE      ---      ---       #178
      00FF1B88H   LINE      ---      ---       #180
      00FF1B8CH   LINE      ---      ---       #182
      00FF1B92H   LINE      ---      ---       #183
      00FF1B95H   LINE      ---      ---       #184
      00FF1B97H   LINE      ---      ---       #185
      00FF1B9AH   LINE      ---      ---       #186
      00FF1B9DH   LINE      ---      ---       #187
      00FF1B9DH   LINE      ---      ---       #188
      DR8         REGSYM    ---      LONG      rtc
      0000B517H   SYMBOL    EDATA    ---       taskControl
      ---         BLOCKEND  CODE     ---       LVL=1
      00FF1BA9H   LINE      ---      ---       #189
      00FF1BA9H   LINE      CODE     ---       #189

      00FF7641H   BLOCK     CODE     ---       LVL=0
      00FF7641H   LINE      ---      ---       #193
      00FF764BH   LINE      ---      ---       #194
      0000B496H   SYMBOL    EDATA    BYTE      need_tx
      0000B497H   SYMBOL    EDATA    DWORD     rtc
      00FF764BH   BLOCK     CODE     NEAR LAB  LVL=1
      00FF764BH   LINE      ---      ---       #195
      00FF766EH   LINE      ---      ---       #199
      00FF7685H   LINE      ---      ---       #200
      00FF7698H   LINE      ---      ---       #201
      00FF76ADH   LINE      ---      ---       #202
      00FF76B1H   LINE      ---      ---       #203
      00FF76B1H   LINE      ---      ---       #205
      00FF76B4H   LINE      ---      ---       #206
      00FF76BAH   LINE      ---      ---       #208
      00FF76C2H   LINE      ---      ---       #209
      00FF76CCH   LINE      ---      ---       #210
      00FF76ECH   LINE      ---      ---       #211
      00FF76F7H   LINE      ---      ---       #212
      DR12        REGSYM    ---      DWORD     now
      R9          REGSYM    ---      BYTE      count
      0000B49BH   SYMBOL    EDATA    ---       time
      ---         BLOCKEND  CODE     ---       LVL=1
      00FF76FFH   LINE      ---      ---       #213
      00FF76FFH   LINE      CODE     ---       #213

      00FF7702H   BLOCK     CODE     ---       LVL=0
      00FF7702H   LINE      ---      ---       #215
      00FF7702H   LINE      ---      ---       #216
      00FF7702H   BLOCK     CODE     NEAR LAB  LVL=1
      00FF7702H   LINE      ---      ---       #217
      00FF771AH   LINE      ---      ---       #219
      00FF771DH   LINE      ---      ---       #222
      00FF7724H   LINE      ---      ---       #224
      00FF7726H   LINE      ---      ---       #225
      DR4         REGSYM    ---      DWORD     rtc
      ---         BLOCKEND  CODE     ---       LVL=1
      ---         BLOCKEND  CODE     ---       LVL=0

      00FFA427H   BLOCK     CODE     ---       LVL=0
      00FFA427H   LINE      ---      ---       #229
      00FFA429H   LINE      ---      ---       #230
      00FFA429H   BLOCK     CODE     NEAR LAB  LVL=1
      00FFA429H   LINE      ---      ---       #231
      00FFA441H   LINE      ---      ---       #233
      00FFA444H   LINE      ---      ---       #235
L251 LINKER/LOCATER V4.66.93.0                                                        04/08/2024  14:48:14  PAGE 160


      00FFA44AH   LINE      ---      ---       #237
      00FFA44EH   LINE      ---      ---       #240
      00FFA455H   LINE      ---      ---       #242
      00FFA458H   LINE      ---      ---       #243
      DR12        REGSYM    ---      DWORD     rtc
      ---         BLOCKEND  CODE     ---       LVL=1
      ---         BLOCKEND  CODE     ---       LVL=0

      00FF77B7H   BLOCK     CODE     ---       LVL=0
      00FF77B7H   LINE      ---      ---       #247
      00FF77B7H   LINE      ---      ---       #249
      ---         BLOCKEND  ---      ---       LVL=0

      00FF7AA2H   BLOCK     CODE     ---       LVL=0
      00FF7AA2H   LINE      ---      ---       #252
      00FF7AAAH   LINE      ---      ---       #253
      DR12        REGSYM    ---      DWORD     sync_time
      0000B563H   SYMBOL    EDATA    BYTE      is_timeout
      00FF7AAAH   BLOCK     CODE     NEAR LAB  LVL=1
      00FF7AAAH   LINE      ---      ---       #254
      00FF7AAFH   LINE      ---      ---       #255
      00FF7AAFH   LINE      ---      ---       #256
      00FF7AAFH   LINE      ---      ---       #259
      00FF7ACDH   LINE      ---      ---       #260
      00FF7ACDH   LINE      ---      ---       #261
      00FF7ADBH   LINE      ---      ---       #262
      00FF7AECH   LINE      ---      ---       #263
      00FF7AFDH   LINE      ---      ---       #264
      00FF7B03H   LINE      ---      ---       #265
      00FF7B05H   LINE      ---      ---       #266
      00FF7B11H   LINE      ---      ---       #267
      00FF7B1CH   LINE      ---      ---       #268
      00FF7B1CH   LINE      ---      ---       #269
      00FF7B30H   LINE      ---      ---       #270
      00FF7B38H   LINE      ---      ---       #271
      00FF7B41H   LINE      ---      ---       #272
      00FF7B43H   LINE      ---      ---       #273
      00FF7B58H   LINE      ---      ---       #274
      00FF7B5EH   LINE      ---      ---       #275
      00FF7B5EH   LINE      ---      ---       #276
      DR24        REGSYM    ---      DWORD     now
      0000B564H   SYMBOL    EDATA    BYTE      count
      R11         REGSYM    ---      BYTE      ch_count
      DR24        REGSYM    ---      DWORD     diff
      0000B565H   SYMBOL    EDATA    ---       time
      00FF7B60H   BLOCK     CODE     NEAR LAB  LVL=2
      00FF7B60H   LINE      ---      ---       #277
      00FF7B6BH   LINE      ---      ---       #278
      00FF7B7FH   LINE      ---      ---       #279
      R7          REGSYM    ---      BYTE      diff_count
      ---         BLOCKEND  CODE     ---       LVL=2
      00FF7B85H   BLOCK     CODE     NEAR LAB  LVL=2
      00FF7B85H   LINE      ---      ---       #280
      00FF7B85H   LINE      ---      ---       #281
      00FF7B87H   LINE      ---      ---       #282
      00FF7BA0H   LINE      ---      ---       #283
      00FF7BA9H   LINE      ---      ---       #284
      00FF7BABH   LINE      ---      ---       #285
      R7          REGSYM    ---      BYTE      diff_count
      ---         BLOCKEND  CODE     ---       LVL=2
      00FF7BADH   LINE      ---      ---       #286
      00FF7BB8H   LINE      ---      ---       #287
      00FF7BCCH   LINE      ---      ---       #288
      00FF7BCCH   LINE      CODE     ---       #288
      ---         BLOCKEND  CODE     ---       LVL=0
L251 LINKER/LOCATER V4.66.93.0                                                        04/08/2024  14:48:14  PAGE 161



      00FF79E6H   BLOCK     CODE     ---       LVL=0
      00FF79E6H   LINE      ---      ---       #337
      00FF79E8H   LINE      ---      ---       #338
      00FF79E8H   BLOCK     CODE     NEAR LAB  LVL=1
      00FF79E8H   LINE      ---      ---       #339
      00FF79FFH   LINE      ---      ---       #341
      DR12        REGSYM    ---      DWORD     rtc
      00FF7A03H   BLOCK     CODE     NEAR LAB  LVL=2
      00FF7A03H   LINE      ---      ---       #342
      00FF7A10H   LINE      ---      ---       #344
      00FF7A2AH   LINE      ---      ---       #349
      DR4         REGSYM    ---      DWORD     phr
      R3          REGSYM    ---      BYTE      blk_num
      ---         BLOCKEND  CODE     ---       LVL=2
      00FF7A2EH   LINE      ---      ---       #350
      00FF7A2EH   LINE      ---      ---       #352
      00FF7A33H   LINE      ---      ---       #355
      00FF7A3AH   LINE      ---      ---       #357
      00FF7A3DH   LINE      ---      ---       #358
      00FF7A3DH   LINE      CODE     ---       #358
      ---         BLOCKEND  CODE     ---       LVL=0

      00FFA51EH   BLOCK     CODE     ---       LVL=0
      00FFA51EH   LINE      ---      ---       #362
      00FFA51EH   LINE      ---      ---       #363
      00FFA51EH   BLOCK     CODE     NEAR LAB  LVL=1
      00FFA51EH   LINE      ---      ---       #366
      00FFA521H   LINE      ---      ---       #367
      00FFA527H   LINE      ---      ---       #369
      00FFA52FH   LINE      ---      ---       #370
      00FFA539H   LINE      ---      ---       #371
      00FFA55AH   LINE      ---      ---       #372
      0000B56FH   SYMBOL    EDATA    ---       time
      ---         BLOCKEND  CODE     ---       LVL=1
      ---         BLOCKEND  CODE     ---       LVL=0

      00FF1BAEH   BLOCK     CODE     ---       LVL=0
      00FF1BAEH   LINE      ---      ---       #375
      00FF1BB0H   LINE      ---      ---       #376
      00FF1BB0H   BLOCK     CODE     NEAR LAB  LVL=1
      00FF1BB0H   LINE      ---      ---       #377
      00FF1BB2H   LINE      ---      ---       #379
      00FF1BD0H   LINE      ---      ---       #380
      00FF1BD0H   LINE      ---      ---       #381
      WR14        REGSYM    ---      WORD      macFunEventQueue
      00FF1BD0H   BLOCK     CODE     NEAR LAB  LVL=2
      00FF1BD0H   LINE      ---      ---       #384
      00FF1BD3H   LINE      ---      ---       #385
      00FF1BD6H   LINE      ---      ---       #392
      00FF1BD8H   LINE      ---      ---       #394
      00FF1BEAH   LINE      ---      ---       #396
      00FF1C1EH   LINE      ---      ---       #398
      00FF1C26H   LINE      ---      ---       #399
      00FF1C2CH   LINE      ---      ---       #400
      00FF1C34H   LINE      ---      ---       #401
      00FF1C3AH   LINE      ---      ---       #403
      00FF1C40H   LINE      ---      ---       #404
      00FF1C43H   LINE      ---      ---       #406
      00FF1C43H   LINE      ---      ---       #408
      00FF1C49H   LINE      ---      ---       #409
      00FF1C5CH   LINE      ---      ---       #411
      00FF1C6BH   LINE      ---      ---       #412
      00FF1C6BH   LINE      ---      ---       #413
      00FF1C71H   LINE      ---      ---       #414
L251 LINKER/LOCATER V4.66.93.0                                                        04/08/2024  14:48:14  PAGE 162


      00FF1C73H   LINE      ---      ---       #416
      00FF1C73H   LINE      ---      ---       #417
      00FF1C7BH   LINE      ---      ---       #418
      00FF1C7DH   LINE      ---      ---       #420
      00FF1C7DH   LINE      ---      ---       #421
      00FF1C88H   LINE      ---      ---       #422
      00FF1C88H   LINE      ---      ---       #424
      00FF1C88H   LINE      ---      ---       #425
      00FF1C8EH   LINE      ---      ---       #426
      00FF1CB0H   LINE      ---      ---       #427
      00FF1CBAH   LINE      ---      ---       #429
      00FF1CC1H   LINE      ---      ---       #431
      00FF1CC7H   LINE      ---      ---       #433
      00FF1CCEH   LINE      ---      ---       #435
      0000B3AEH   SYMBOL    EDATA    ---       cb
      0000B3B6H   SYMBOL    EDATA    ---       time
      ---         BLOCKEND  CODE     ---       LVL=2
      00FF1CD0H   BLOCK     CODE     NEAR LAB  LVL=2
      00FF1CD0H   LINE      ---      ---       #437
      00FF1CD2H   LINE      ---      ---       #439
      00FF1CD2H   LINE      ---      ---       #440
      00FF1CD7H   LINE      ---      ---       #441
      00FF1CDFH   LINE      ---      ---       #443
      00FF1CE2H   LINE      ---      ---       #445
      00FF1CE9H   LINE      ---      ---       #446
      00FF1CEEH   LINE      ---      ---       #448
      00FF1CF8H   LINE      ---      ---       #452
      00FF1CFDH   LINE      ---      ---       #453
      00FF1D00H   LINE      ---      ---       #454
      00FF1D02H   LINE      ---      ---       #455
      00FF1D04H   LINE      ---      ---       #456
      00FF1D08H   LINE      ---      ---       #457
      00FF1D08H   LINE      ---      ---       #458
      00FF1D0AH   LINE      ---      ---       #459
      00FF1D0AH   LINE      ---      ---       #461
      00FF1D11H   LINE      ---      ---       #463
      00FF1D28H   LINE      ---      ---       #464
      00FF1D28H   LINE      ---      ---       #465
      00FF1D2AH   LINE      ---      ---       #470
      00FF1D40H   LINE      ---      ---       #471
      00FF1D43H   LINE      ---      ---       #472
      00FF1D43H   LINE      ---      ---       #475
      00FF1D4AH   LINE      ---      ---       #476
      00FF1D4FH   LINE      ---      ---       #477
      00FF1D52H   LINE      ---      ---       #478
      00FF1D52H   LINE      ---      ---       #480
      00FF1D56H   LINE      ---      ---       #482
      00FF1D60H   LINE      ---      ---       #483
      00FF1D62H   LINE      ---      ---       #484
      00FF1D68H   LINE      ---      ---       #485
      00FF1D6EH   LINE      ---      ---       #486
      00FF1D71H   LINE      ---      ---       #487
      00FF1D73H   LINE      ---      ---       #488
      00FF1D75H   LINE      ---      ---       #489
      00FF1D79H   LINE      ---      ---       #490
      00FF1D79H   LINE      ---      ---       #491
      00FF1D7CH   LINE      ---      ---       #492
      00FF1D86H   LINE      ---      ---       #493
      00FF1D91H   LINE      ---      ---       #494
      00FF1D95H   LINE      ---      ---       #495
      00FF1D98H   LINE      ---      ---       #496
      00FF1D98H   LINE      ---      ---       #497
      00FF1D9AH   LINE      ---      ---       #499
      00FF1D9AH   LINE      ---      ---       #500
      00FF1D9FH   LINE      ---      ---       #501
L251 LINKER/LOCATER V4.66.93.0                                                        04/08/2024  14:48:14  PAGE 163


      00FF1DA5H   LINE      ---      ---       #503
      00FF1DA9H   LINE      ---      ---       #505
      00FF1DACH   LINE      ---      ---       #507
      00FF1DAFH   LINE      ---      ---       #509
      00FF1DBEH   LINE      ---      ---       #510
      00FF1DC1H   LINE      ---      ---       #511
      00FF1DC3H   LINE      ---      ---       #512
      00FF1DC5H   LINE      ---      ---       #513
      00FF1DC7H   LINE      ---      ---       #514
      00FF1DC7H   LINE      ---      ---       #515
      00FF1DD1H   LINE      ---      ---       #516
      0000B3C0H   SYMBOL    EDATA    DWORD     rtc
      0000B3C4H   SYMBOL    EDATA    ---       time
      ---         BLOCKEND  CODE     ---       LVL=2
      00FF1DD9H   BLOCK     CODE     NEAR LAB  LVL=2
      00FF1DD9H   LINE      ---      ---       #520
      00FF1DEAH   LINE      ---      ---       #521
      00FF1DEAH   LINE      ---      ---       #522
      00FF1DF8H   LINE      ---      ---       #523
      00FF1DFAH   LINE      ---      ---       #524
      00FF1E00H   LINE      ---      ---       #526
      00FF1E08H   LINE      ---      ---       #527
      00FF1E12H   LINE      ---      ---       #528
      00FF1E33H   LINE      ---      ---       #529
      00FF1E34H   LINE      ---      ---       #530
      00FF1E34H   LINE      ---      ---       #531
      00FF1E36H   LINE      ---      ---       #533
      00FF1E36H   LINE      ---      ---       #534
      00FF1E39H   LINE      ---      ---       #535
      00FF1E42H   LINE      ---      ---       #536
      00FF1E44H   LINE      ---      ---       #538
      00FF1E44H   LINE      ---      ---       #539
      00FF1E52H   LINE      ---      ---       #540
      00FF1E55H   LINE      ---      ---       #541
      00FF1E57H   LINE      ---      ---       #542
      00FF1E5DH   LINE      ---      ---       #544
      00FF1E65H   LINE      ---      ---       #545
      00FF1E6FH   LINE      ---      ---       #546
      00FF1E90H   LINE      ---      ---       #547
      00FF1E98H   LINE      ---      ---       #548
      00FF1EA0H   LINE      ---      ---       #549
      00FF1EA0H   LINE      ---      ---       #550
      00FF1EA0H   LINE      ---      ---       #552
      00FF1EA3H   LINE      ---      ---       #553
      00FF1EA5H   LINE      ---      ---       #555
      00FF1EAFH   LINE      ---      ---       #556
      DR4         REGSYM    ---      DWORD     rtc
      ---         BLOCKEND  CODE     ---       LVL=2
      00FF1EB3H   LINE      ---      ---       #557
      00FF1EB5H   LINE      ---      ---       #558
      00FF1EB9H   LINE      ---      ---       #559
      00FF1EB9H   LINE      ---      ---       #560
      00FF1EC1H   LINE      ---      ---       #561
      00FF1EC5H   LINE      ---      ---       #563
      00FF1EC8H   LINE      ---      ---       #564
      00FF1EC8H   LINE      CODE     ---       #564
      ---         BLOCKEND  CODE     ---       LVL=0

      00FFA3FEH   BLOCK     CODE     ---       LVL=0
      00FFA3FEH   LINE      ---      ---       #1093
      00FFA400H   LINE      ---      ---       #1094
      00FFA400H   BLOCK     CODE     NEAR LAB  LVL=1
      00FFA400H   LINE      ---      ---       #1095
      00FFA400H   LINE      ---      ---       #1097
      00FFA404H   LINE      ---      ---       #1100
L251 LINKER/LOCATER V4.66.93.0                                                        04/08/2024  14:48:14  PAGE 164


      00FFA40AH   LINE      ---      ---       #1101
      REG=7       REGSYM    ---      ---       pRxSwqBlk
      ---         BLOCKEND  CODE     ---       LVL=1
      00FFA424H   LINE      ---      ---       #1105
      00FFA424H   LINE      CODE     ---       #1105
      00FF1ECAH   LINE      ---      ---       #565
      00FF1ECCH   LINE      ---      ---       #566
      00FF1EDDH   LINE      ---      ---       #567
      00FF1EE0H   LINE      ---      ---       #568
      00FF1EE0H   LINE      ---      ---       #571
      00FF1EE7H   LINE      ---      ---       #572
      00FF1EEAH   LINE      ---      ---       #573
      00FF1EEEH   LINE      ---      ---       #574
      00FF1EEEH   LINE      ---      ---       #576
      00FF1EF0H   LINE      ---      ---       #578
      00FF1EF0H   LINE      ---      ---       #579
      00FF1EF5H   LINE      ---      ---       #580
      00FF1F01H   LINE      ---      ---       #582
      00FF1F04H   LINE      ---      ---       #583
      00FF1F09H   LINE      ---      ---       #585
      00FF1F0CH   LINE      ---      ---       #587
      00FF1F10H   LINE      ---      ---       #588
      00FF1F12H   LINE      ---      ---       #589
      00FF1F12H   LINE      ---      ---       #590
      00FF1F14H   LINE      ---      ---       #592
      00FF1F14H   LINE      ---      ---       #593
      00FF1F1DH   LINE      ---      ---       #594
      00FF1F20H   LINE      ---      ---       #595
      00FF1F2CH   LINE      ---      ---       #598
      00FF1F32H   LINE      ---      ---       #600
      00FF1F3AH   LINE      ---      ---       #602
      00FF1F3DH   LINE      ---      ---       #603
      00FF1F40H   LINE      ---      ---       #604
      00FF1F40H   LINE      ---      ---       #605
      00FF1F45H   LINE      ---      ---       #606
      00FF1F47H   LINE      ---      ---       #607
      00FF1F4FH   LINE      ---      ---       #609
      00FF1F52H   LINE      ---      ---       #610
      00FF1F55H   LINE      ---      ---       #611
      00FF1F55H   LINE      ---      ---       #613
      00FF1F58H   LINE      ---      ---       #614
      00FF1F5AH   LINE      ---      ---       #616
      00FF1F5DH   LINE      ---      ---       #618
      00FF1F63H   LINE      ---      ---       #620
      00FF1F66H   LINE      ---      ---       #621
      00FF1F66H   LINE      ---      ---       #622
      00FF1F69H   LINE      ---      ---       #624
      00FF1F6CH   LINE      ---      ---       #625
      00FF1F70H   LINE      ---      ---       #627
      00FF1F70H   LINE      ---      ---       #628
      00FF1F70H   LINE      ---      ---       #630
      00FF1F73H   LINE      ---      ---       #632
      00FF1F76H   LINE      ---      ---       #633
      00FF7BDFH   LINE      ---      ---       #289
      00FF7BDFH   LINE      ---      ---       #290
      00FF7BDFH   LINE      ---      ---       #291
      00FF7BE7H   LINE      ---      ---       #292
      00FF7BEAH   LINE      ---      ---       #294
      00FF7BFCH   LINE      ---      ---       #295
      00FF7C1BH   LINE      ---      ---       #301
      00FF7C1FH   LINE      ---      ---       #302
      00FF7C23H   LINE      ---      ---       #303
      00FF7C26H   LINE      ---      ---       #304
      00FF7C3AH   LINE      ---      ---       #305
      00FF7C59H   LINE      ---      ---       #311
L251 LINKER/LOCATER V4.66.93.0                                                        04/08/2024  14:48:14  PAGE 165


      00FF7C5EH   LINE      ---      ---       #312
      00FF7C62H   LINE      ---      ---       #313
      00FF7C65H   LINE      ---      ---       #314
      00FF7C67H   LINE      ---      ---       #315
      00FF7C75H   LINE      ---      ---       #316
      00FF7C94H   LINE      ---      ---       #322
      00FF7CA3H   LINE      ---      ---       #323
      00FF7CA3H   LINE      ---      ---       #324
      00FF7CA5H   LINE      ---      ---       #325
      00FF7CA8H   LINE      ---      ---       #326
      00FF7CABH   LINE      ---      ---       #327
      00FF7CB1H   LINE      ---      ---       #329
      00FF7CB5H   LINE      ---      ---       #330
      00FF7CB5H   LINE      ---      ---       #331
      00FF7CB8H   LINE      ---      ---       #332
      00FF7CB8H   LINE      ---      ---       #334
      00FF7CBFH   LINE      ---      ---       #335

      ---         MODULE    ---      ---       mac_htrp_tx
      00FF238DH   PUBLIC    CODE     ---       mac_htrp_tx_set_state
      00FF276AH   PUBLIC    CODE     ---       mac_htrp_tx_get_state
      00FF2137H   PUBLIC    CODE     ---       mac_htrp_tx_handler
      00FF17EEH   PUBLIC    CODE     ---       mac_htrp_tx_init
      00FF749AH   PUBLIC    CODE     ---       mac_htrp_tx_set_rf_task
      00FF744EH   PUBLIC    CODE     ---       mac_htrp_tx_burst_tx_done
      00FF75DBH   PUBLIC    CODE     ---       mac_htrp_tx_slot_tx_done
      00FF7298H   PUBLIC    CODE     ---       mac_htrp_tx_slot_rx_done
      00FF755BH   PUBLIC    CODE     ---       mac_htrp_tx_period_burst_tx_done
      00FF735FH   PUBLIC    CODE     ---       mac_htrp_tx_period_burst_rx_done
      0000B661H   PUBLIC    EDATA    BYTE      g_mac_htrp_tx_state
      0000B662H   PUBLIC    EDATA    BYTE      g_mac_htrp_tx_set_ch_time
      00000080H   SFRSYM    DATA     BYTE      P0

      00FF238DH   BLOCK     CODE     ---       LVL=0
      00FF238DH   LINE      ---      ---       #93
      00FF238DH   LINE      ---      ---       #95
      00FF2391H   LINE      ---      ---       #96
      R11         REGSYM    ---      BYTE      state
      ---         BLOCKEND  ---      ---       LVL=0

      00FF276AH   BLOCK     CODE     ---       LVL=0
      00FF276AH   LINE      ---      ---       #98
      00FF276AH   LINE      ---      ---       #100
      00FF276EH   LINE      ---      ---       #101
      ---         BLOCKEND  ---      ---       LVL=0

      00FF749AH   BLOCK     CODE     ---       LVL=0
      00FF749AH   LINE      ---      ---       #103
      00FF74A2H   LINE      ---      ---       #104
      R13         REGSYM    ---      BYTE      need_rx
      REG=7       REGSYM    ---      ---       time
      00FF74A2H   BLOCK     CODE     NEAR LAB  LVL=1
      00FF74A2H   LINE      ---      ---       #108
      00FF74A8H   LINE      ---      ---       #109
      00FF74ADH   LINE      ---      ---       #110
      00FF74B1H   LINE      ---      ---       #111
      00FF74B5H   LINE      ---      ---       #112
      00FF74BBH   LINE      ---      ---       #113
      00FF74D1H   LINE      ---      ---       #114
      00FF74D3H   LINE      ---      ---       #115
      00FF74D8H   LINE      ---      ---       #116
      00FF74DEH   LINE      ---      ---       #117
      00FF74DEH   LINE      ---      ---       #118
      00FF74E4H   LINE      ---      ---       #119
      00FF74F0H   LINE      ---      ---       #120
L251 LINKER/LOCATER V4.66.93.0                                                        04/08/2024  14:48:14  PAGE 166


      00FF74F9H   LINE      ---      ---       #122
      00FF74FDH   LINE      ---      ---       #123
      00FF7503H   LINE      ---      ---       #124
      00FF7508H   LINE      ---      ---       #125
      00FF750EH   LINE      ---      ---       #126
      00FF7513H   LINE      ---      ---       #127
      00FF7519H   LINE      ---      ---       #128
      00FF7525H   LINE      ---      ---       #129
      00FF752BH   LINE      ---      ---       #130
      00FF7534H   LINE      ---      ---       #131
      00FF7534H   LINE      ---      ---       #133
      00FF7539H   LINE      ---      ---       #135
      00FF753FH   LINE      ---      ---       #136
      00FF7542H   LINE      ---      ---       #137
      00FF7544H   LINE      ---      ---       #138
      00FF7547H   LINE      ---      ---       #139
      00FF754AH   LINE      ---      ---       #140
      00FF754AH   LINE      ---      ---       #141
      DR8         REGSYM    ---      LONG      rtc
      0000B525H   SYMBOL    EDATA    ---       taskControl
      ---         BLOCKEND  CODE     ---       LVL=1
      00FF7556H   LINE      ---      ---       #142
      00FF7556H   LINE      CODE     ---       #142

      00FF744EH   BLOCK     CODE     ---       LVL=0
      00FF744EH   LINE      ---      ---       #145
      00FF7450H   LINE      ---      ---       #146
      00FF7450H   BLOCK     CODE     NEAR LAB  LVL=1
      00FF7450H   LINE      ---      ---       #149
      00FF7452H   LINE      ---      ---       #153
      00FF7458H   LINE      ---      ---       #155
      00FF7462H   LINE      ---      ---       #156
      00FF746AH   LINE      ---      ---       #157
      00FF7474H   LINE      ---      ---       #158
      00FF748CH   LINE      ---      ---       #159
      00FF7493H   LINE      ---      ---       #160
      DR12        REGSYM    ---      DWORD     rtc
      0000B579H   SYMBOL    EDATA    ---       time
      ---         BLOCKEND  CODE     ---       LVL=1
      00FF7497H   LINE      ---      ---       #161
      00FF7497H   LINE      CODE     ---       #161

      00FF75DBH   BLOCK     CODE     ---       LVL=0
      00FF75DBH   LINE      ---      ---       #163
      00FF75DBH   LINE      ---      ---       #165
      00FF75DDH   LINE      ---      ---       #167
      ---         BLOCKEND  ---      ---       LVL=0

      00FF7298H   BLOCK     CODE     ---       LVL=0
      00FF7298H   LINE      ---      ---       #170
      00FF729AH   LINE      ---      ---       #171
      00FF729AH   BLOCK     CODE     NEAR LAB  LVL=1
      00FF729AH   LINE      ---      ---       #172
      00FF72BDH   LINE      ---      ---       #177
      00FF72C7H   LINE      ---      ---       #178
      00FF72CEH   LINE      ---      ---       #179
      00FF72E7H   LINE      ---      ---       #180
      00FF72E9H   LINE      ---      ---       #183
      00FF72EFH   LINE      ---      ---       #185
      00FF72EFH   LINE      ---      ---       #187
      00FF72F1H   LINE      ---      ---       #191
      00FF72F7H   LINE      ---      ---       #193
      00FF72FFH   LINE      ---      ---       #194
      00FF7309H   LINE      ---      ---       #195
      00FF7321H   LINE      ---      ---       #196
L251 LINKER/LOCATER V4.66.93.0                                                        04/08/2024  14:48:14  PAGE 167


      00FF7329H   LINE      ---      ---       #197
      00FF732DH   LINE      ---      ---       #200
      00FF7334H   LINE      ---      ---       #202
      00FF7336H   LINE      ---      ---       #203
      0000B4A5H   SYMBOL    EDATA    DWORD     now
      DR12        REGSYM    ---      DWORD     rtc
      0000B4A9H   SYMBOL    EDATA    BYTE      count
      0000B4AAH   SYMBOL    EDATA    ---       time
      ---         BLOCKEND  CODE     ---       LVL=1
      ---         BLOCKEND  CODE     ---       LVL=0

      00FF755BH   BLOCK     CODE     ---       LVL=0
      00FF755BH   LINE      ---      ---       #207
      00FF755DH   LINE      ---      ---       #209
      00FF7571H   LINE      ---      ---       #210
      00FF7574H   LINE      ---      ---       #211
      00FF7576H   LINE      ---      ---       #212
      00FF7582H   BLOCK     CODE     NEAR LAB  LVL=1
      00FF7582H   LINE      ---      ---       #215
      00FF7585H   LINE      ---      ---       #217
      00FF7587H   LINE      ---      ---       #221
      00FF758DH   LINE      ---      ---       #223
      00FF7597H   LINE      ---      ---       #224
      00FF759FH   LINE      ---      ---       #225
      00FF75A9H   LINE      ---      ---       #226
      00FF75C1H   LINE      ---      ---       #227
      00FF75C9H   LINE      ---      ---       #228
      DR12        REGSYM    ---      DWORD     rtc
      0000B583H   SYMBOL    EDATA    ---       time
      ---         BLOCKEND  CODE     ---       LVL=1
      00FF75CDH   LINE      ---      ---       #230
      00FF75CFH   LINE      ---      ---       #231
      00FF75D2H   LINE      ---      ---       #232
      00FF75D4H   LINE      ---      ---       #233
      00FF75D4H   LINE      ---      ---       #234
      00FF75D8H   LINE      ---      ---       #235
      00FF75D8H   LINE      CODE     ---       #235

      00FF735FH   BLOCK     CODE     ---       LVL=0
      00FF735FH   LINE      ---      ---       #237
      00FF7361H   LINE      ---      ---       #238
      00FF7361H   BLOCK     CODE     NEAR LAB  LVL=1
      00FF7361H   LINE      ---      ---       #240
      00FF7384H   LINE      ---      ---       #244
      00FF73A1H   LINE      ---      ---       #245
      00FF73AAH   LINE      ---      ---       #246
      00FF73C3H   LINE      ---      ---       #247
      00FF73C5H   LINE      ---      ---       #250
      00FF73CBH   LINE      ---      ---       #252
      00FF73CBH   LINE      ---      ---       #253
      00FF73CDH   LINE      ---      ---       #257
      00FF73D3H   LINE      ---      ---       #259
      00FF73DBH   LINE      ---      ---       #260
      00FF73E5H   LINE      ---      ---       #261
      00FF73FDH   LINE      ---      ---       #262
      00FF740FH   LINE      ---      ---       #263
      00FF7413H   LINE      ---      ---       #266
      00FF741AH   LINE      ---      ---       #268
      00FF741CH   LINE      ---      ---       #269
      DR12        REGSYM    ---      DWORD     rtc
      0000B4B4H   SYMBOL    EDATA    DWORD     now
      0000B4B8H   SYMBOL    EDATA    BYTE      count
      0000B4B9H   SYMBOL    EDATA    ---       time
      ---         BLOCKEND  CODE     ---       LVL=1
      ---         BLOCKEND  CODE     ---       LVL=0
L251 LINKER/LOCATER V4.66.93.0                                                        04/08/2024  14:48:14  PAGE 168



      00FF2137H   BLOCK     CODE     ---       LVL=0
      00FF2137H   LINE      ---      ---       #273
      00FF2139H   LINE      ---      ---       #274
      00FF2139H   BLOCK     CODE     NEAR LAB  LVL=1
      00FF2139H   LINE      ---      ---       #275
      00FF2139H   LINE      ---      ---       #277
      00FF2151H   LINE      ---      ---       #278
      00FF2151H   LINE      ---      ---       #280
      00FF2154H   LINE      ---      ---       #282
      00FF2157H   LINE      ---      ---       #287
      00FF2169H   LINE      ---      ---       #289
      00FF216CH   LINE      ---      ---       #291
      WR14        REGSYM    ---      WORD      macFunEventQueue
      00FF216CH   BLOCK     CODE     NEAR LAB  LVL=2
      00FF216CH   LINE      ---      ---       #293
      00FF2174H   LINE      ---      ---       #294
      00FF217AH   LINE      ---      ---       #295
      00FF2182H   LINE      ---      ---       #296
      00FF2188H   LINE      ---      ---       #297
      0000B452H   SYMBOL    EDATA    ---       cb
      ---         BLOCKEND  CODE     ---       LVL=2
      00FF218FH   BLOCK     CODE     NEAR LAB  LVL=2
      00FF218FH   LINE      ---      ---       #298
      00FF218FH   LINE      ---      ---       #300
      00FF2195H   LINE      ---      ---       #301
      00FF2198H   LINE      ---      ---       #303
      00FF2198H   LINE      ---      ---       #305
      00FF219AH   LINE      ---      ---       #307
      00FF21ADH   LINE      ---      ---       #308
      00FF21ADH   LINE      ---      ---       #309
      DR12        REGSYM    ---      DWORD     rtc
      0000B45AH   SYMBOL    EDATA    ---       time
      ---         BLOCKEND  CODE     ---       LVL=2
      00FF21ADH   BLOCK     CODE     NEAR LAB  LVL=2
      00FF21ADH   LINE      ---      ---       #312
      00FF21B5H   LINE      ---      ---       #313
      00FF21BEH   LINE      ---      ---       #314
      00FF21C6H   LINE      ---      ---       #315
      00FF21D0H   LINE      ---      ---       #316
      00FF21E8H   LINE      ---      ---       #317
      00FF21EDH   LINE      ---      ---       #318
      DR12        REGSYM    ---      DWORD     rtc
      0000B45AH   SYMBOL    EDATA    ---       time
      ---         BLOCKEND  CODE     ---       LVL=2
      00FF21EDH   BLOCK     CODE     NEAR LAB  LVL=2
      00FF21EDH   LINE      ---      ---       #320
      00FF21EFH   LINE      ---      ---       #321
      00FF21EFH   LINE      ---      ---       #322
      DR12        REGSYM    ---      DWORD     rtc
      0000B45AH   SYMBOL    EDATA    ---       time
      ---         BLOCKEND  CODE     ---       LVL=2
      00FF21EFH   BLOCK     CODE     NEAR LAB  LVL=2
      00FF21EFH   LINE      ---      ---       #325
      00FF21F9H   LINE      ---      ---       #326
      00FF2202H   LINE      ---      ---       #327
      00FF220AH   LINE      ---      ---       #328
      00FF2214H   LINE      ---      ---       #329
      00FF222CH   LINE      ---      ---       #330
      00FF223CH   LINE      ---      ---       #331
      DR4         REGSYM    ---      DWORD     rtc
      ---         BLOCKEND  CODE     ---       LVL=2
      00FF223CH   LINE      ---      ---       #333
      00FF223EH   LINE      ---      ---       #334
      00FF223EH   LINE      ---      ---       #335
L251 LINKER/LOCATER V4.66.93.0                                                        04/08/2024  14:48:14  PAGE 169


      00FF223EH   LINE      CODE     ---       #335
      ---         BLOCKEND  CODE     ---       LVL=0

      00FF17EEH   BLOCK     CODE     ---       LVL=0
      00FF17EEH   LINE      ---      ---       #763
      00FF17EEH   LINE      ---      ---       #765
      00FF17F3H   LINE      ---      ---       #766
      ---         BLOCKEND  ---      ---       LVL=0
      00FF223EH   LINE      ---      ---       #338
      00FF2248H   LINE      ---      ---       #339
      00FF2251H   LINE      ---      ---       #340
      00FF2259H   LINE      ---      ---       #341
      00FF2263H   LINE      ---      ---       #342
      00FF227BH   LINE      ---      ---       #343
      00FF2284H   LINE      ---      ---       #344
      00FF2288H   LINE      ---      ---       #346
      00FF228AH   LINE      ---      ---       #347
      00FF228AH   LINE      ---      ---       #348
      00FF228DH   LINE      ---      ---       #349
      00FF228DH   LINE      ---      ---       #350
      00FF228DH   LINE      ---      ---       #352
      00FF2291H   LINE      ---      ---       #354
      00FF2297H   LINE      ---      ---       #356
      00FF2299H   LINE      ---      ---       #358
      00FF2299H   LINE      ---      ---       #359
      00FF229DH   LINE      ---      ---       #360
      00FF22A9H   LINE      ---      ---       #363
      00FF22ACH   LINE      ---      ---       #365
      00FF22B1H   LINE      ---      ---       #367
      00FF22C0H   LINE      ---      ---       #368
      00FF22C2H   LINE      ---      ---       #369
      00FF22C4H   LINE      ---      ---       #370
      00FF22C4H   LINE      ---      ---       #371
      00FF22C6H   LINE      ---      ---       #372
      00FF22CAH   LINE      ---      ---       #373
      00FF22CDH   LINE      ---      ---       #374
      00FF22CDH   LINE      ---      ---       #376
      00FF22D5H   LINE      ---      ---       #377
      00FF22D8H   LINE      ---      ---       #378
      00FF22DCH   LINE      ---      ---       #379
      00FF22E2H   LINE      ---      ---       #380
      00FF22E5H   LINE      ---      ---       #381
      00FF22E8H   LINE      ---      ---       #382
      00FF22EAH   LINE      ---      ---       #383
      00FF22EDH   LINE      ---      ---       #384
      00FF22FCH   LINE      ---      ---       #385
      00FF22FEH   LINE      ---      ---       #386
      00FF22FEH   LINE      ---      ---       #388
      00FF2300H   LINE      ---      ---       #390
      00FF2300H   LINE      ---      ---       #391
      00FF2304H   LINE      ---      ---       #392
      00FF2310H   LINE      ---      ---       #394
      00FF2313H   LINE      ---      ---       #396
      00FF2319H   LINE      ---      ---       #397
      00FF231CH   LINE      ---      ---       #398
      00FF2324H   LINE      ---      ---       #399
      00FF2327H   LINE      ---      ---       #400
      00FF232AH   LINE      ---      ---       #401
      00FF232EH   LINE      ---      ---       #402
      00FF2337H   LINE      ---      ---       #403
      00FF233AH   LINE      ---      ---       #404
      00FF2341H   LINE      ---      ---       #405
      00FF2344H   LINE      ---      ---       #406
      00FF2344H   LINE      ---      ---       #409
      00FF2346H   LINE      ---      ---       #412
L251 LINKER/LOCATER V4.66.93.0                                                        04/08/2024  14:48:14  PAGE 170


      00FF234AH   LINE      ---      ---       #413
      00FF234AH   LINE      ---      ---       #414
      00FF234AH   LINE      ---      ---       #415
      00FF234CH   LINE      ---      ---       #417
      00FF234CH   LINE      ---      ---       #418
      00FF234FH   LINE      ---      ---       #419
      00FF2352H   LINE      ---      ---       #421
      00FF2355H   LINE      ---      ---       #422
      00FF235CH   LINE      ---      ---       #423
      00FF2362H   LINE      ---      ---       #424
      00FF2367H   LINE      ---      ---       #425
      00FF236FH   LINE      ---      ---       #427
      00FF236FH   LINE      ---      ---       #428
      00FF236FH   LINE      ---      ---       #429
      00FF2371H   LINE      ---      ---       #431
      00FF2373H   LINE      ---      ---       #432
      00FF2376H   LINE      ---      ---       #433
      00FF2376H   LINE      ---      ---       #434
      00FF2378H   LINE      ---      ---       #436
      00FF237AH   LINE      ---      ---       #438
      00FF237DH   LINE      ---      ---       #439
      00FF2381H   LINE      ---      ---       #440
      00FF2384H   LINE      ---      ---       #441
      00FF2384H   LINE      ---      ---       #442
      00FF2384H   LINE      ---      ---       #444
      00FF2387H   LINE      ---      ---       #446
      00FF238AH   LINE      ---      ---       #447

      ---         MODULE    ---      ---       mac_srcmatch
      00FF3562H   PUBLIC    CODE     ---       MAC_SrcMatch_EnableStatusGet
      00FF3590H   PUBLIC    CODE     ---       MAC_SrcMatch_ListFind
      00FFA56DH   PUBLIC    CODE     ---       MAC_SrcMatch_ListFindIdx
      00FFA58EH   PUBLIC    CODE     ---       MAC_SrcMatch_ListInit
      00FFA5F6H   PUBLIC    CODE     ---       MAC_SrcMatch_Enable
      00FFA606H   PUBLIC    CODE     ---       MAC_SrcMatch_ListClear
      00FFA88FH   PUBLIC    CODE     ---       MAC_SrcMatch_ListAdd
      00FFA8B0H   PUBLIC    CODE     ---       MAC_SrcMatch_ListModify
      00FFA8CEH   PUBLIC    CODE     ---       MAC_SrcMatch_ListFindShort?_
      00FFA463H   PUBLIC    CODE     ---       MAC_SrcMatch_ListFindExtended?_
      00FFA963H   PUBLIC    CODE     ---       MAC_SrcMatch_ListAddShort
      00FFAA75H   PUBLIC    CODE     ---       MAC_SrcMatch_ListAddExtended
      00FFAA04H   PUBLIC    CODE     ---       MAC_SrcMatch_ListModifyShort
      00FFAB19H   PUBLIC    CODE     ---       MAC_SrcMatch_ListModifyExtended
      0000A934H   PUBLIC    EDATA    ---       gMacSrcCtrl
      0000AC49H   PUBLIC    EDATA    ---       MacSrcFindEntry
      0000AC4DH   PUBLIC    EDATA    ---       MacSrcAddEntry
      0000AC51H   PUBLIC    EDATA    ---       MacSrcModifyEntry

      00FFA58EH   BLOCK     CODE     ---       LVL=0
      00FFA58EH   LINE      ---      ---       #53
      00FFA58EH   LINE      ---      ---       #54
      00FFA58EH   BLOCK     CODE     NEAR LAB  LVL=1
      00FFA58EH   LINE      ---      ---       #55
      00FFA593H   LINE      ---      ---       #59
      00FFA597H   LINE      ---      ---       #60
      00FFA59BH   LINE      ---      ---       #61
      00FFA59DH   LINE      ---      ---       #63
      00FFA5ABH   LINE      ---      ---       #64
      00FFA5B3H   LINE      ---      ---       #65
      00FFA5BAH   LINE      ---      ---       #66
      00FFA5BCH   LINE      ---      ---       #68
      00FFA5CFH   LINE      ---      ---       #69
      00FFA5DCH   LINE      ---      ---       #70
      00FFA5EEH   LINE      ---      ---       #71
      0000B673H   SYMBOL    EDATA    BYTE      listIdx
L251 LINKER/LOCATER V4.66.93.0                                                        04/08/2024  14:48:14  PAGE 171


      R7          REGSYM    ---      BYTE      i
      ---         BLOCKEND  CODE     ---       LVL=1
      00FFA5F5H   LINE      ---      ---       #83
      00FFA5F5H   LINE      CODE     ---       #83

      00FFA5F6H   BLOCK     CODE     ---       LVL=0
      00FFA5F6H   LINE      ---      ---       #86
      00FFA5FAH   LINE      ---      ---       #87
      R15         REGSYM    ---      BYTE      Enable
      00FFA5FAH   BLOCK     CODE     NEAR LAB  LVL=1
      00FFA5FAH   LINE      ---      ---       #89
      00FFA5FDH   LINE      ---      ---       #91
      R7          REGSYM    ---      BYTE      Pannum
      ---         BLOCKEND  CODE     ---       LVL=1
      00FFA603H   LINE      ---      ---       #95
      00FFA603H   LINE      CODE     ---       #95

      00FF3562H   BLOCK     CODE     ---       LVL=0
      00FF3562H   LINE      ---      ---       #98
      00FF3564H   LINE      ---      ---       #99
      00FF3564H   BLOCK     CODE     NEAR LAB  LVL=1
      00FF3564H   LINE      ---      ---       #103
      00FF356AH   LINE      ---      ---       #105
      00FF356EH   LINE      ---      ---       #106
      00FF3570H   LINE      ---      ---       #109
      00FF3574H   LINE      ---      ---       #110
      00FF3574H   LINE      ---      ---       #112
      R15         REGSYM    ---      BYTE      Pannum
      ---         BLOCKEND  CODE     ---       LVL=1
      00FF357AH   LINE      ---      ---       #116
      00FF357AH   LINE      CODE     ---       #116

      00FFA606H   BLOCK     CODE     ---       LVL=0
      00FFA606H   LINE      ---      ---       #120
      00FFA60EH   LINE      ---      ---       #121
      R14         REGSYM    ---      BYTE      all
      R15         REGSYM    ---      BYTE      type
      REG=6       REGSYM    ---      ---       addr
      00FFA60EH   BLOCK     CODE     NEAR LAB  LVL=1
      00FFA60EH   LINE      ---      ---       #122
      00FFA613H   LINE      ---      ---       #123
      00FFA61AH   LINE      ---      ---       #125
      00FFA620H   LINE      ---      ---       #127
      00FFA624H   LINE      ---      ---       #129
      00FFA637H   LINE      ---      ---       #130
      00FFA63AH   LINE      ---      ---       #132
      00FFA651H   LINE      ---      ---       #133
      00FFA663H   LINE      ---      ---       #134
      00FFA666H   LINE      ---      ---       #135
      00FFA66EH   LINE      ---      ---       #137
      00FFA681H   LINE      ---      ---       #138
      00FFA688H   LINE      ---      ---       #140
      00FFA69FH   LINE      ---      ---       #141
      00FFA6B1H   LINE      ---      ---       #142
      00FFA6B4H   LINE      ---      ---       #146
      00FFA6C6H   LINE      ---      ---       #148
      00FFA6CCH   LINE      ---      ---       #150
      00FFA6E0H   LINE      ---      ---       #152
      00FFA6E0H   LINE      ---      ---       #153
      00FFA6FDH   LINE      ---      ---       #154
      00FFA6FFH   LINE      ---      ---       #155
      00FFA6FFH   LINE      ---      ---       #156
      00FFA71CH   LINE      ---      ---       #157
      00FFA71EH   LINE      ---      ---       #158
      00FFA71EH   LINE      ---      ---       #159
L251 LINKER/LOCATER V4.66.93.0                                                        04/08/2024  14:48:14  PAGE 172


      00FFA73BH   LINE      ---      ---       #160
      00FFA73DH   LINE      ---      ---       #161
      00FFA73DH   LINE      ---      ---       #162
      00FFA75AH   LINE      ---      ---       #163
      00FFA75AH   LINE      ---      ---       #165
      00FFA75AH   LINE      ---      ---       #166
      00FFA75AH   LINE      ---      ---       #167
      00FFA75AH   LINE      ---      ---       #169
      00FFA774H   LINE      ---      ---       #171
      00FFA7A8H   LINE      ---      ---       #172
      00FFA7ABH   LINE      ---      ---       #174
      00FFA7B3H   LINE      ---      ---       #176
      00FFA7C7H   LINE      ---      ---       #178
      00FFA7C7H   LINE      ---      ---       #179
      00FFA7E4H   LINE      ---      ---       #180
      00FFA7E6H   LINE      ---      ---       #181
      00FFA7E6H   LINE      ---      ---       #182
      00FFA803H   LINE      ---      ---       #183
      00FFA805H   LINE      ---      ---       #184
      00FFA805H   LINE      ---      ---       #185
      00FFA822H   LINE      ---      ---       #186
      00FFA824H   LINE      ---      ---       #187
      00FFA824H   LINE      ---      ---       #188
      00FFA841H   LINE      ---      ---       #189
      00FFA841H   LINE      ---      ---       #191
      00FFA841H   LINE      ---      ---       #192
      00FFA841H   LINE      ---      ---       #193
      00FFA841H   LINE      ---      ---       #195
      00FFA858H   LINE      ---      ---       #197
      00FFA88CH   LINE      ---      ---       #198
      00FFA88CH   LINE      ---      ---       #200
      00FFA88CH   LINE      ---      ---       #201
      0000B663H   SYMBOL    EDATA    BYTE      listIdx
      0000B664H   SYMBOL    EDATA    BYTE      Pannum
      ---         BLOCKEND  CODE     ---       LVL=1
      00FFA88CH   LINE      ---      ---       #202
      00FFA88CH   LINE      CODE     ---       #202

      00FFA8CEH   BLOCK     CODE     ---       LVL=0
      00FFA8CEH   LINE      ---      ---       #205
      00FFA8D6H   LINE      ---      ---       #206
      REG=3       REGSYM    ---      ---       addr
      00FFA8D6H   BLOCK     CODE     NEAR LAB  LVL=1
      00FFA8D6H   LINE      ---      ---       #210
      00FFA8D8H   LINE      ---      ---       #213
      00FFA8DEH   LINE      ---      ---       #215
      00FFA8E2H   LINE      ---      ---       #216
      00FFA8E4H   LINE      ---      ---       #219
      00FFA8E9H   LINE      ---      ---       #220
      00FFA8E9H   LINE      ---      ---       #222
      00FFA8FDH   LINE      ---      ---       #224
      00FFA900H   LINE      ---      ---       #226
      00FFA90EH   LINE      ---      ---       #228
      00FFA921H   LINE      ---      ---       #230
      00FFA92BH   LINE      ---      ---       #232
      00FFA930H   LINE      ---      ---       #233
      00FFA930H   LINE      ---      ---       #236
      00FFA949H   LINE      ---      ---       #237
      00FFA958H   LINE      ---      ---       #239
      00000000H   STKSYM    ---      BYTE      listIdx
      FFFFFFFCH   STKSYM    ---      DWORD     bitMask
      REG=4       REGSYM    ---      ---       smaddr
      REG=7       REGSYM    ---      ---       inaddr
      R13         REGSYM    ---      BYTE      Pannum
      ---         BLOCKEND  CODE     ---       LVL=1
L251 LINKER/LOCATER V4.66.93.0                                                        04/08/2024  14:48:14  PAGE 173


      00FFA95AH   LINE      ---      ---       #240
      00FFA95AH   LINE      CODE     ---       #240

      00FFA463H   BLOCK     CODE     ---       LVL=0
      00FFA463H   LINE      ---      ---       #243
      00FFA46BH   LINE      ---      ---       #244
      REG=3       REGSYM    ---      ---       addr
      00FFA46BH   BLOCK     CODE     NEAR LAB  LVL=1
      00FFA46BH   LINE      ---      ---       #248
      00FFA46DH   LINE      ---      ---       #251
      00FFA473H   LINE      ---      ---       #253
      00FFA477H   LINE      ---      ---       #254
      00FFA479H   LINE      ---      ---       #257
      00FFA47EH   LINE      ---      ---       #258
      00FFA47EH   LINE      ---      ---       #260
      00FFA492H   LINE      ---      ---       #262
      00FFA495H   LINE      ---      ---       #264
      00FFA4A3H   LINE      ---      ---       #266
      00FFA4BDH   LINE      ---      ---       #268
      00FFA4E6H   LINE      ---      ---       #271
      00FFA4EBH   LINE      ---      ---       #272
      00FFA4EBH   LINE      ---      ---       #275
      00FFA504H   LINE      ---      ---       #276
      00FFA513H   LINE      ---      ---       #278
      00000000H   STKSYM    ---      BYTE      listIdx
      FFFFFFFCH   STKSYM    ---      DWORD     bitMask
      FFFFFFFAH   STKSYM    ---      ---       smaddr
      REG=7       REGSYM    ---      ---       inaddr
      R13         REGSYM    ---      BYTE      Pannum
      ---         BLOCKEND  CODE     ---       LVL=1
      00FFA515H   LINE      ---      ---       #279
      00FFA515H   LINE      CODE     ---       #279

      00FFA56DH   BLOCK     CODE     ---       LVL=0
      00FFA56DH   LINE      ---      ---       #418
      00FFA575H   LINE      ---      ---       #420
      00FFA57DH   LINE      ---      ---       #421
      00FFA589H   LINE      ---      ---       #422
      R15         REGSYM    ---      BYTE      type
      REG=6       REGSYM    ---      ---       addr
      ---         BLOCKEND  ---      ---       LVL=0

      00FF3590H   BLOCK     CODE     ---       LVL=0
      00FF3590H   LINE      ---      ---       #425
      00FF3598H   LINE      ---      ---       #427
      00FF359CH   LINE      ---      ---       #429
      00FF359FH   LINE      ---      ---       #430
      00FF359FH   LINE      ---      ---       #432
      00FF35B0H   LINE      ---      ---       #433
      R13         REGSYM    ---      BYTE      type
      REG=7       REGSYM    ---      ---       addr
      ---         BLOCKEND  ---      ---       LVL=0

      00FFA963H   BLOCK     CODE     ---       LVL=0
      00FFA963H   LINE      ---      ---       #437
      00FFA969H   LINE      ---      ---       #438
      REG=7       REGSYM    ---      ---       addr
      00FFA969H   BLOCK     CODE     NEAR LAB  LVL=1
      00FFA969H   LINE      ---      ---       #439
      00FFA96EH   LINE      ---      ---       #440
      00FFA973H   LINE      ---      ---       #442
      00FFA976H   LINE      ---      ---       #444
      00FFA999H   LINE      ---      ---       #446
      00FFA9B6H   LINE      ---      ---       #447
      00FFA9E0H   LINE      ---      ---       #448
L251 LINKER/LOCATER V4.66.93.0                                                        04/08/2024  14:48:14  PAGE 174


      00FFA9E6H   LINE      ---      ---       #450
      00FFA9EAH   LINE      ---      ---       #451
      00FFA9FEH   LINE      ---      ---       #454
      0000B674H   SYMBOL    EDATA    BYTE      listIdx
      R13         REGSYM    ---      BYTE      Pannum
      ---         BLOCKEND  CODE     ---       LVL=1
      00FFA9FFH   LINE      ---      ---       #455
      00FFA9FFH   LINE      CODE     ---       #455

      00FFAA75H   BLOCK     CODE     ---       LVL=0
      00FFAA75H   LINE      ---      ---       #458
      00FFAA7BH   LINE      ---      ---       #459
      REG=7       REGSYM    ---      ---       addr
      00FFAA7BH   BLOCK     CODE     NEAR LAB  LVL=1
      00FFAA7BH   LINE      ---      ---       #460
      00FFAA80H   LINE      ---      ---       #461
      00FFAA85H   LINE      ---      ---       #463
      00FFAA88H   LINE      ---      ---       #465
      00FFAAABH   LINE      ---      ---       #467
      00FFAACBH   LINE      ---      ---       #468
      00FFAAF5H   LINE      ---      ---       #469
      00FFAAFBH   LINE      ---      ---       #471
      00FFAAFFH   LINE      ---      ---       #472
      00FFAB13H   LINE      ---      ---       #475
      0000B675H   SYMBOL    EDATA    BYTE      listIdx
      R13         REGSYM    ---      BYTE      Pannum
      ---         BLOCKEND  CODE     ---       LVL=1
      00FFAB14H   LINE      ---      ---       #476
      00FFAB14H   LINE      CODE     ---       #476

      00FFA88FH   BLOCK     CODE     ---       LVL=0
      00FFA88FH   LINE      ---      ---       #519
      00FFA897H   LINE      ---      ---       #521
      00FFA89FH   LINE      ---      ---       #522
      00FFA8ABH   LINE      ---      ---       #523
      R15         REGSYM    ---      BYTE      type
      REG=6       REGSYM    ---      ---       addr
      ---         BLOCKEND  ---      ---       LVL=0

      00FFAA04H   BLOCK     CODE     ---       LVL=0
      00FFAA04H   LINE      ---      ---       #526
      00FFAA08H   LINE      ---      ---       #527
      R15         REGSYM    ---      BYTE      listidx
      00FFAA08H   BLOCK     CODE     NEAR LAB  LVL=1
      00FFAA08H   LINE      ---      ---       #528
      00FFAA0DH   LINE      ---      ---       #530
      00FFAA21H   LINE      ---      ---       #532
      00FFAA21H   LINE      ---      ---       #533
      00FFAA33H   LINE      ---      ---       #534
      00FFAA35H   LINE      ---      ---       #535
      00FFAA35H   LINE      ---      ---       #536
      00FFAA47H   LINE      ---      ---       #537
      00FFAA49H   LINE      ---      ---       #538
      00FFAA49H   LINE      ---      ---       #539
      00FFAA5BH   LINE      ---      ---       #540
      00FFAA5DH   LINE      ---      ---       #541
      00FFAA5DH   LINE      ---      ---       #542
      00FFAA72H   LINE      ---      ---       #543
      00FFAA72H   LINE      ---      ---       #545
      00FFAA72H   LINE      ---      ---       #546
      00FFAA72H   LINE      ---      ---       #547
      R6          REGSYM    ---      BYTE      Pannum
      ---         BLOCKEND  CODE     ---       LVL=1
      00FFAA72H   LINE      ---      ---       #548
      00FFAA72H   LINE      CODE     ---       #548
L251 LINKER/LOCATER V4.66.93.0                                                        04/08/2024  14:48:14  PAGE 175



      00FFAB19H   BLOCK     CODE     ---       LVL=0
      00FFAB19H   LINE      ---      ---       #551
      00FFAB1DH   LINE      ---      ---       #552
      R15         REGSYM    ---      BYTE      listidx
      00FFAB1DH   BLOCK     CODE     NEAR LAB  LVL=1
      00FFAB1DH   LINE      ---      ---       #553
      00FFAB22H   LINE      ---      ---       #555
      00FFAB36H   LINE      ---      ---       #557
      00FFAB36H   LINE      ---      ---       #558
      00FFAB48H   LINE      ---      ---       #559
      00FFAB4AH   LINE      ---      ---       #560
      00FFAB4AH   LINE      ---      ---       #561
      00FFAB5CH   LINE      ---      ---       #562
      00FFAB5EH   LINE      ---      ---       #563
      00FFAB5EH   LINE      ---      ---       #564
      00FFAB70H   LINE      ---      ---       #565
      00FFAB72H   LINE      ---      ---       #566
      00FFAB72H   LINE      ---      ---       #567
      00FFAB87H   LINE      ---      ---       #568
      00FFAB87H   LINE      ---      ---       #570
      00FFAB87H   LINE      ---      ---       #571
      00FFAB87H   LINE      ---      ---       #572
      R6          REGSYM    ---      BYTE      Pannum
      ---         BLOCKEND  CODE     ---       LVL=1
      00FFAB87H   LINE      ---      ---       #573
      00FFAB87H   LINE      CODE     ---       #573

      00FFA8B0H   BLOCK     CODE     ---       LVL=0
      00FFA8B0H   LINE      ---      ---       #621
      00FFA8B6H   LINE      ---      ---       #623
      00FFA8BEH   LINE      ---      ---       #624
      00FFA8CBH   LINE      ---      ---       #625
      R15         REGSYM    ---      BYTE      type
      R14         REGSYM    ---      BYTE      listidx
      ---         BLOCKEND  ---      ---       LVL=0

      ---         MODULE    ---      ---       mac_rx_scan
      00FF96BAH   PUBLIC    CODE     ---       MAC_RxScan_Config
      00FF9652H   PUBLIC    CODE     ---       MAC_RxScan_HwInit
      00FF37D4H   PUBLIC    CODE     ---       MAC_RxScan_HwDeInit
      00FF95E2H   PUBLIC    CODE     ---       MAC_RxScan_TaskStart
      00FF99B3H   PUBLIC    CODE     ---       MAC_RxScan_TaskRestart
      00FF30EBH   PUBLIC    CODE     ---       MAC_RxScan_R2tTaskRestart
      00FFAB8AH   PUBLIC    CODE     ---       MAC_RxScan_GetScanResult
      00FF313FH   PUBLIC    CODE     ---       MAC_RxScan_SwitchToNextFrequency
      00FF96C7H   PUBLIC    CODE     ---       MAC_RxScan_PllAlwaysOn
      00FF96F2H   PUBLIC    CODE     ---       MAC_RxScan_HwRegBackup
      00FF36DDH   PUBLIC    CODE     ---       MAC_RxScan_HwRegRestore
      0000B36AH   PUBLIC    EDATA    ---       gMacRxScanCtrl
      0000B38BH   PUBLIC    EDATA    BYTE      r2t_need_set
      000000A8H.7 SFRSYM    DATA     BIT       EA
      00000080H   SFRSYM    DATA     BYTE      P0

      00FF96BAH   BLOCK     CODE     ---       LVL=0
      00FF96BAH   LINE      ---      ---       #45
      00FF96BCH   LINE      ---      ---       #47
      REG=2       REGSYM    ---      ---       pRxScanCfg
      ---         BLOCKEND  ---      ---       LVL=0

      00FF96C7H   BLOCK     CODE     ---       LVL=0
      00FF96C7H   LINE      ---      ---       #51
      00FF96C7H   LINE      ---      ---       #53
      00FF96D3H   LINE      ---      ---       #54
      00FF96D8H   LINE      ---      ---       #56
L251 LINKER/LOCATER V4.66.93.0                                                        04/08/2024  14:48:14  PAGE 176


      00FF96E4H   LINE      ---      ---       #58
      00FF96ECH   LINE      ---      ---       #59
      00FF96F1H   LINE      ---      ---       #60
      ---         BLOCKEND  ---      ---       LVL=0

      00FF96F2H   BLOCK     CODE     ---       LVL=0
      00FF96F2H   LINE      ---      ---       #63
      00FF96F2H   LINE      ---      ---       #65
      00FF9701H   LINE      ---      ---       #66
      00FF9712H   LINE      ---      ---       #67
      00FF9720H   LINE      ---      ---       #68
      00FF972BH   LINE      ---      ---       #69
      00FF9736H   LINE      ---      ---       #70
      00FF9748H   LINE      ---      ---       #71
      00FF975AH   LINE      ---      ---       #72
      00FF9767H   LINE      ---      ---       #73
      00FF9771H   LINE      ---      ---       #74
      00FF977EH   LINE      ---      ---       #75
      ---         BLOCKEND  ---      ---       LVL=0

      00FF36DDH   BLOCK     CODE     ---       LVL=0
      00FF36DDH   LINE      ---      ---       #78
      00FF36DDH   LINE      ---      ---       #80
      00FF36ECH   LINE      ---      ---       #81
      00FF36FDH   LINE      ---      ---       #82
      00FF3703H   LINE      ---      ---       #83
      00FF3712H   LINE      ---      ---       #84
      00FF371DH   LINE      ---      ---       #85
      00FF372CH   LINE      ---      ---       #86
      00FF373BH   LINE      ---      ---       #87
      00FF3748H   LINE      ---      ---       #88
      00FF3756H   LINE      ---      ---       #89
      ---         BLOCKEND  ---      ---       LVL=0

      00FF9652H   BLOCK     CODE     ---       LVL=0
      00FF9652H   LINE      ---      ---       #93
      00FF9652H   LINE      ---      ---       #95
      00FF9654H   LINE      ---      ---       #98
      00FF9660H   LINE      ---      ---       #99
      00FF966CH   LINE      ---      ---       #100
      00FF9671H   LINE      ---      ---       #101
      00FF967DH   LINE      ---      ---       #104
      00FF9689H   LINE      ---      ---       #105
      00FF968EH   LINE      ---      ---       #106
      00FF9697H   LINE      ---      ---       #109
      00FF96A0H   LINE      ---      ---       #110
      00FF96A7H   LINE      ---      ---       #111
      00FF96B2H   LINE      ---      ---       #114
      00FF96B4H   LINE      ---      ---       #116
      00FF96B9H   LINE      ---      ---       #117
      ---         BLOCKEND  ---      ---       LVL=0

      00FF37D4H   BLOCK     CODE     ---       LVL=0
      00FF37D4H   LINE      ---      ---       #120
      00FF37D4H   LINE      ---      ---       #122
      ---         BLOCKEND  ---      ---       LVL=0

      00FF95E2H   BLOCK     CODE     ---       LVL=0
      00FF95E2H   LINE      ---      ---       #126
      00FF95E2H   LINE      ---      ---       #128
      00FF95E4H   LINE      ---      ---       #129
      00FF95EAH   LINE      ---      ---       #130
      00FF95F7H   LINE      ---      ---       #131
      00FF95FDH   LINE      ---      ---       #132
      00FF9602H   LINE      ---      ---       #133
L251 LINKER/LOCATER V4.66.93.0                                                        04/08/2024  14:48:14  PAGE 177


      00FF9604H   LINE      ---      ---       #134
      ---         BLOCKEND  ---      ---       LVL=0

      00FF99B3H   BLOCK     CODE     ---       LVL=0
      00FF99B3H   LINE      ---      ---       #137
      00FF99B3H   LINE      ---      ---       #139
      00FF99B5H   LINE      ---      ---       #140
      00FF99C3H   LINE      ---      ---       #141
      00FF99CFH   LINE      ---      ---       #142
      00FF99DCH   LINE      ---      ---       #143
      00FF99E2H   LINE      ---      ---       #144
      00FF99E7H   LINE      ---      ---       #145
      00FF99E9H   LINE      ---      ---       #146
      ---         BLOCKEND  ---      ---       LVL=0

      00FF30EBH   BLOCK     CODE     ---       LVL=0
      00FF30EBH   LINE      ---      ---       #149
      00FF30EBH   LINE      ---      ---       #151
      00FF30EDH   LINE      ---      ---       #152
      00FF30F3H   LINE      ---      ---       #154
      00FF30F6H   LINE      ---      ---       #155
      00FF3100H   LINE      ---      ---       #156
      00FF3105H   LINE      ---      ---       #157
      00FF3107H   LINE      ---      ---       #160
      00FF310AH   LINE      ---      ---       #161
      00FF3118H   LINE      ---      ---       #162
      00FF3124H   LINE      ---      ---       #163
      00FF3124H   LINE      ---      ---       #164
      00FF3131H   LINE      ---      ---       #165
      00FF3137H   LINE      ---      ---       #166
      00FF313CH   LINE      ---      ---       #167
      00FF313EH   LINE      ---      ---       #168
      ---         BLOCKEND  ---      ---       LVL=0

      00FFAB8AH   BLOCK     CODE     ---       LVL=0
      00FFAB8AH   LINE      ---      ---       #171
      00FFAB8AH   LINE      ---      ---       #173
      00FFAB90H   LINE      ---      ---       #175
      00FFAB93H   LINE      ---      ---       #176
      00FFAB93H   LINE      ---      ---       #178
      00FFAB99H   LINE      ---      ---       #180
      00FFABA3H   LINE      ---      ---       #182
      00FFABA6H   LINE      ---      ---       #183
      00FFABA6H   LINE      ---      ---       #185
      00FFABA9H   LINE      ---      ---       #186
      00FFABA9H   LINE      ---      ---       #190
      00FFABB3H   LINE      ---      ---       #192
      00FFABB5H   LINE      ---      ---       #194
      00FFABBFH   LINE      ---      ---       #196
      00FFABBFH   LINE      ---      ---       #197
      00FFABC1H   LINE      ---      ---       #198
      00FFABD2H   LINE      ---      ---       #200
      00FFABD2H   LINE      ---      ---       #202
      00FFABD4H   LINE      ---      ---       #204
      00FFABD4H   LINE      ---      ---       #206
      00FFABDEH   LINE      ---      ---       #208
      00FFABE0H   LINE      ---      ---       #209
      00FFABE6H   LINE      ---      ---       #210
      00FFABE7H   LINE      ---      ---       #211
      00FFABE7H   LINE      ---      ---       #213
      00FFABF3H   LINE      ---      ---       #215
      00FFAC09H   LINE      ---      ---       #218
      00FFAC0BH   LINE      ---      ---       #219
      00FFAC0BH   LINE      ---      ---       #221
      ---         BLOCKEND  ---      ---       LVL=0
L251 LINKER/LOCATER V4.66.93.0                                                        04/08/2024  14:48:14  PAGE 178



      00FF313FH   BLOCK     CODE     ---       LVL=0
      00FF313FH   LINE      ---      ---       #224
      00FF313FH   LINE      ---      ---       #227
      00FF3145H   LINE      ---      ---       #229
      00FF3148H   LINE      ---      ---       #230
      00FF3153H   LINE      ---      ---       #231
      00FF3157H   LINE      ---      ---       #232
      00FF3159H   LINE      ---      ---       #235
      00FF315CH   LINE      ---      ---       #236
      00FF3167H   LINE      ---      ---       #237
      00FF316DH   LINE      ---      ---       #238
      00FF316DH   LINE      ---      ---       #240
      00FF3179H   LINE      ---      ---       #241
      00FF317EH   LINE      ---      ---       #242
      00FF3180H   LINE      ---      ---       #245
      00FF3187H   LINE      ---      ---       #247
      00FF318AH   LINE      ---      ---       #248
      00FF318CH   LINE      ---      ---       #251
      00FF318EH   LINE      ---      ---       #252
      00FF318EH   LINE      ---      ---       #255
      00FF3194H   LINE      ---      ---       #257
      00FF3195H   LINE      ---      ---       #258
      00FF3197H   LINE      ---      ---       #261
      00FF319DH   LINE      ---      ---       #262
      00FF319DH   LINE      ---      ---       #263
      ---         BLOCKEND  ---      ---       LVL=0

      ---         MODULE    ---      ---       msg_ctrl
      00FF141DH   PUBLIC    CODE     ---       MSG_HdlrInit
      00FF414AH   PUBLIC    CODE     ---       MSG_Hdlr
      00FFAC0CH   PUBLIC    CODE     ---       MSG_Isr?_
      00FF3F55H   PUBLIC    CODE     ---       MSG_Idle
      00FFAC57H   PUBLIC    CODE     ---       MSG_OutMsgForceHandle
      00FF3FE8H   PUBLIC    CODE     ---       MSG_OutStateSet
      00FF4161H   PUBLIC    CODE     ---       MSG_EventClr
      00FF1785H   PUBLIC    CODE     ---       MSG_InMsgProc
      00FF4873H   PUBLIC    CODE     ---       MSG_OutMsgToBmu
      00FF3FBDH   PUBLIC    CODE     ---       MSG_OutMsgProc
      0000B5FFH   PUBLIC    EDATA    ---       sMsgCtrl
      000000A8H.7 SFRSYM    DATA     BIT       EA

      00FF3FE8H   BLOCK     CODE     ---       LVL=0
      00FF3FE8H   LINE      ---      ---       #89
      00FF3FE8H   LINE      ---      ---       #93
      00FF3FEAH   LINE      ---      ---       #94
      00FF3FEEH   LINE      ---      ---       #95
      00FF3FF0H   LINE      ---      ---       #96
      WR6         REGSYM    ---      INT       outMsgState
      ---         BLOCKEND  ---      ---       LVL=0

      00FF4161H   BLOCK     CODE     ---       LVL=0
      00FF4161H   LINE      ---      ---       #98
      00FF4161H   LINE      ---      ---       #102
      00FF4163H   LINE      ---      ---       #103
      00FF416FH   LINE      ---      ---       #104
      00FF4171H   LINE      ---      ---       #105
      WR6         REGSYM    ---      INT       inType
      ---         BLOCKEND  ---      ---       LVL=0

      00FF141DH   BLOCK     CODE     ---       LVL=0
      00FF141DH   LINE      ---      ---       #127
      00FF141DH   LINE      ---      ---       #130
      00FF1420H   LINE      ---      ---       #133
      00FF1426H   LINE      ---      ---       #134
L251 LINKER/LOCATER V4.66.93.0                                                        04/08/2024  14:48:14  PAGE 179


      00FF142AH   LINE      ---      ---       #135
      00FF142FH   LINE      ---      ---       #139
      ---         BLOCKEND  ---      ---       LVL=0

      00FF1785H   BLOCK     CODE     ---       LVL=0
      00FF1785H   LINE      ---      ---       #234
      00FF1789H   LINE      ---      ---       #235
      00FF1789H   BLOCK     CODE     NEAR LAB  LVL=1
      00FF1789H   LINE      ---      ---       #245
      00FF178EH   LINE      ---      ---       #249
      00FF1796H   LINE      ---      ---       #250
      00FF17A1H   LINE      ---      ---       #251
      00FF17A3H   LINE      ---      ---       #254
      00FF17A3H   LINE      ---      ---       #255
      00FF17AFH   LINE      ---      ---       #256
      00FF17C0H   LINE      ---      ---       #259
      00FF17C0H   LINE      ---      ---       #266
      00FF17C5H   LINE      ---      ---       #268
      00FF17C7H   LINE      ---      ---       #272
      00FF17C7H   LINE      ---      ---       #273
      00FF17C7H   LINE      ---      ---       #283
      00FF17D4H   LINE      ---      ---       #285
      00FF17D6H   LINE      ---      ---       #288
      00FF17D6H   LINE      ---      ---       #289
      00FF17D8H   LINE      ---      ---       #290
      00FF17D8H   LINE      ---      ---       #291
      R15         REGSYM    ---      BYTE      qIdx
      REG=6       REGSYM    ---      ---       pQPayload
      REG=6       REGSYM    ---      ---       pRuciHead
      0000B665H   SYMBOL    EDATA    WORD      cmdLength
      ---         BLOCKEND  CODE     ---       LVL=1
      00FF17D8H   LINE      ---      ---       #297
      00FF17D8H   LINE      CODE     ---       #297

      00FF4873H   BLOCK     CODE     ---       LVL=0
      00FF4873H   LINE      ---      ---       #300
      00FF4875H   LINE      ---      ---       #301
      00FF4875H   BLOCK     CODE     NEAR LAB  LVL=1
      00FF4875H   LINE      ---      ---       #314
      00FF487DH   LINE      ---      ---       #317
      00FF4886H   LINE      ---      ---       #364
      00FF488DH   LINE      ---      ---       #369
      00FF4893H   LINE      ---      ---       #373
      REG=7       REGSYM    ---      ---       pQPayload
      WR4         REGSYM    ---      WORD      msgLength
      R15         REGSYM    ---      BYTE      retValue
      ---         BLOCKEND  CODE     ---       LVL=1
      00FF489AH   LINE      ---      ---       #375
      00FF489AH   LINE      CODE     ---       #375

      00FF3FBDH   BLOCK     CODE     ---       LVL=0
      00FF3FBDH   LINE      ---      ---       #378
      00FF3FBDH   LINE      ---      ---       #380
      00FF3FCFH   LINE      ---      ---       #382
      00FF3FCFH   LINE      ---      ---       #384
      00FF3FD3H   LINE      ---      ---       #386
      00FF3FD3H   LINE      ---      ---       #389
      00FF3FDBH   LINE      ---      ---       #390
      00FF3FDBH   LINE      ---      ---       #393
      00FF3FE1H   LINE      ---      ---       #396
      00FF3FE4H   LINE      ---      ---       #398
      00FF3FE4H   LINE      ---      ---       #400
      00FF3FE4H   LINE      ---      ---       #403
      00FF3FE4H   LINE      ---      ---       #405
      00FF3FE4H   LINE      ---      ---       #406
L251 LINKER/LOCATER V4.66.93.0                                                        04/08/2024  14:48:14  PAGE 180


      00FF3FE7H   LINE      ---      ---       #407
      00FF3FE7H   LINE      ---      ---       #408
      00FF3FE7H   LINE      ---      ---       #409
      ---         BLOCKEND  ---      ---       LVL=0

      00FF414AH   BLOCK     CODE     ---       LVL=0
      00FF414AH   LINE      ---      ---       #411
      00FF414AH   LINE      ---      ---       #437
      00FF414DH   LINE      ---      ---       #440
      00FF4157H   LINE      ---      ---       #443
      00FF415DH   LINE      ---      ---       #446
      00FF4160H   LINE      ---      ---       #447
      ---         BLOCKEND  ---      ---       LVL=0

      00FFAC0CH   BLOCK     CODE     ---       LVL=0
      00FFAC0CH   LINE      ---      ---       #455
      00FFAC0EH   LINE      ---      ---       #460
      00FFAC11H   LINE      ---      ---       #461
      00FFAC1CH   LINE      ---      ---       #464
      00FFAC21H   LINE      ---      ---       #465
      00FFAC29H   LINE      ---      ---       #468
      00FFAC2EH   LINE      ---      ---       #469
      R4          REGSYM    ---      BYTE      statusBmu
      00FFAC2EH   BLOCK     CODE     NEAR LAB  LVL=1
      00FFAC2EH   LINE      ---      ---       #472
      00FFAC3EH   LINE      ---      ---       #473
      R5          REGSYM    ---      BYTE      regValue
      ---         BLOCKEND  CODE     ---       LVL=1
      00FFAC4EH   LINE      ---      ---       #474
      00FFAC4EH   LINE      ---      ---       #477
      00FFAC56H   LINE      ---      ---       #490
      00FFAC56H   LINE      CODE     ---       #490

      00FF3F55H   BLOCK     CODE     ---       LVL=0
      00FF3F55H   LINE      ---      ---       #492
      00FF3F57H   LINE      ---      ---       #493
      00FF3F57H   BLOCK     CODE     NEAR LAB  LVL=1
      00FF3F57H   LINE      ---      ---       #497
      00FF3F67H   LINE      ---      ---       #498
      00FF3F6AH   LINE      ---      ---       #501
      00FF3F6CH   LINE      ---      ---       #503
      00FF3F72H   LINE      ---      ---       #504
      00FF3F75H   LINE      ---      ---       #505
      00FF3F7DH   LINE      ---      ---       #507
      WR14        REGSYM    ---      INT       qIdx
      ---         BLOCKEND  CODE     ---       LVL=1
      00FF3F7FH   LINE      ---      ---       #508
      00FF3F7FH   LINE      CODE     ---       #508

      00FFAC57H   BLOCK     CODE     ---       LVL=0
      00FFAC57H   LINE      ---      ---       #510
      00FFAC59H   LINE      ---      ---       #511
      00FFAC59H   BLOCK     CODE     NEAR LAB  LVL=1
      00FFAC59H   LINE      ---      ---       #515
      00FFAC5BH   LINE      ---      ---       #516
      00FFAC5EH   LINE      ---      ---       #517
      R15         REGSYM    ---      BYTE      msgState
      ---         BLOCKEND  CODE     ---       LVL=1
      00FFAC65H   LINE      ---      ---       #518
      00FFAC65H   LINE      CODE     ---       #518

      ---         MODULE    ---      ---       hal
      00FF2FBFH   PUBLIC    CODE     ---       HAL_IsBleHw
      00FFAC68H   PUBLIC    CODE     ---       HAL_IsWisunHw
      00FFAC7DH   PUBLIC    CODE     ---       HAL_IsZigbeeHw
L251 LINKER/LOCATER V4.66.93.0                                                        04/08/2024  14:48:14  PAGE 181


      00FF4C09H   PUBLIC    CODE     ---       HAL_IsSubgRf
      00FFAFE8H   PUBLIC    CODE     ---       HAL_Is2gRf
      00FF5FD3H   PUBLIC    CODE     ---       HAL_HwModeGet
      00FFAFF7H   PUBLIC    CODE     ---       HAL_ClkModeSet
      00FF4E2FH   PUBLIC    CODE     ---       HAL_HwModeInit?_
      00FFB03FH   PUBLIC    CODE     ---       HAL_Watchdog
      00FFB040H   PUBLIC    CODE     ---       HAL_PktTypeSet

      00FFB040H   BLOCK     CODE     ---       LVL=0
      00FFB040H   LINE      ---      ---       #35
      00FFB040H   LINE      ---      ---       #36
      00FFB040H   BLOCK     CODE     NEAR LAB  LVL=1
      00FFB040H   LINE      ---      ---       #46
      00FFB04DH   LINE      ---      ---       #47
      00FFB052H   LINE      ---      ---       #50
      00FFB054H   LINE      ---      ---       #51
      00FFB06EH   LINE      ---      ---       #52
      00FFB089H   LINE      ---      ---       #59
      00FFB08DH   LINE      ---      ---       #60
      00FFB098H   LINE      ---      ---       #63
      R10         REGSYM    ---      BYTE      regValue
      ---         BLOCKEND  CODE     ---       LVL=1
      00FFB0A4H   LINE      ---      ---       #64
      00FFB0A4H   LINE      CODE     ---       #64

      00FF2FBFH   BLOCK     CODE     ---       LVL=0
      00FF2FBFH   LINE      ---      ---       #70
      00FF2FBFH   LINE      ---      ---       #72
      00FF2FD1H   LINE      ---      ---       #73
      ---         BLOCKEND  ---      ---       LVL=0

      00FFAC68H   BLOCK     CODE     ---       LVL=0
      00FFAC68H   LINE      ---      ---       #77
      00FFAC68H   LINE      ---      ---       #79
      00FFAC7CH   LINE      ---      ---       #80
      ---         BLOCKEND  ---      ---       LVL=0

      00FFAC7DH   BLOCK     CODE     ---       LVL=0
      00FFAC7DH   LINE      ---      ---       #84
      00FFAC7DH   LINE      ---      ---       #86
      00FFAC91H   LINE      ---      ---       #87
      ---         BLOCKEND  ---      ---       LVL=0

      00FF4BE7H   BLOCK     CODE     ---       LVL=0
      00FF4C09H   LINE      ---      ---       #98
      00FF4C09H   LINE      ---      ---       #100
      00FF4C16H   LINE      ---      ---       #101
      00FF4BE7H   SYMBOL    CODE     NEAR LAB  ?L?COM0018
      ---         BLOCKEND  ---      ---       LVL=0

      00FFAFE8H   BLOCK     CODE     ---       LVL=0
      00FFAFE8H   LINE      ---      ---       #105
      00FFAFE8H   LINE      ---      ---       #107
      00FFAFF6H   LINE      ---      ---       #108
      ---         BLOCKEND  ---      ---       LVL=0

      00FFAFF7H   BLOCK     CODE     ---       LVL=0
      00FFAFF7H   LINE      ---      ---       #111
      00FFAFF9H   LINE      ---      ---       #115
      00FFB001H   LINE      ---      ---       #117
      00FFB001H   LINE      ---      ---       #119
      00FFB001H   LINE      ---      ---       #120
      00FFB00DH   LINE      ---      ---       #121
      00FFB019H   LINE      ---      ---       #122
      00FFB01AH   LINE      ---      ---       #124
L251 LINKER/LOCATER V4.66.93.0                                                        04/08/2024  14:48:14  PAGE 182


      00FFB01CH   LINE      ---      ---       #127
      00FFB01CH   LINE      ---      ---       #128
      00FFB028H   LINE      ---      ---       #129
      00FFB034H   LINE      ---      ---       #133
      00FFB03AH   LINE      ---      ---       #134
      00FFB03AH   LINE      ---      ---       #136
      00FFB03AH   LINE      ---      ---       #137
      00FFB03EH   LINE      ---      ---       #138
      WR4         REGSYM    ---      INT       clkMode
      ---         BLOCKEND  ---      ---       LVL=0

      00FF5FD3H   BLOCK     CODE     ---       LVL=0
      00FF5FD3H   LINE      ---      ---       #140
      00FF5FD3H   LINE      ---      ---       #142
      00FF5FDAH   LINE      ---      ---       #162
      ---         BLOCKEND  ---      ---       LVL=0

      00FF4E2FH   BLOCK     CODE     ---       LVL=0
      00FF4E2FH   LINE      ---      ---       #269
      00FF4E39H   LINE      ---      ---       #276
      WR12        REGSYM    ---      INT       halType
      FFFFFFFBH   STKSYM    ---      INT       rfkBand
      WR14        REGSYM    ---      INT       clkMode
      FFFFFFF3H   STKSYM    ---      INT       rxqOpMode
      00FF4E39H   BLOCK     CODE     NEAR LAB  LVL=1
      00FF4E39H   LINE      ---      ---       #290
      00FF4E3CH   LINE      ---      ---       #294
      00FF4E46H   LINE      ---      ---       #298
      00FF4E4BH   LINE      ---      ---       #299
      00FF4E63H   LINE      ---      ---       #300
      00FF4E73H   LINE      ---      ---       #301
      00FF4E7FH   LINE      ---      ---       #304
      00FF4E83H   LINE      ---      ---       #306
      00FF4E87H   LINE      ---      ---       #307
      00FF4E89H   LINE      ---      ---       #311
      00FF4E95H   LINE      ---      ---       #312
      00FF4E95H   LINE      ---      ---       #315
      00FF4E9EH   LINE      ---      ---       #318
      00FF4EA3H   LINE      ---      ---       #321
      00FF4EC1H   LINE      ---      ---       #325
      00FF4EC4H   LINE      ---      ---       #328
      00FF4ED0H   LINE      ---      ---       #330
      00FF4ED0H   LINE      ---      ---       #332
      00FF4ED0H   LINE      ---      ---       #333
      00FF4EE0H   LINE      ---      ---       #336
      00FF4EE2H   LINE      ---      ---       #338
      00FF4EE2H   LINE      ---      ---       #339
      00FF4EFCH   LINE      ---      ---       #341
      00FF4EFCH   LINE      ---      ---       #343
      00FF4EFCH   LINE      ---      ---       #346
      00FF4F02H   LINE      ---      ---       #349
      00FF4F08H   LINE      ---      ---       #352
      00FF4F0EH   LINE      ---      ---       #355
      00FF4F1CH   LINE      ---      ---       #358
      00FF4F3AH   LINE      ---      ---       #362
      00FF4F40H   LINE      ---      ---       #364
      00FF4F4AH   LINE      ---      ---       #365
      00FF4F69H   LINE      ---      ---       #366
      00FF4F73H   LINE      ---      ---       #367
      00FF4F92H   LINE      ---      ---       #368
      00FF4F92H   LINE      ---      ---       #372
      00FF4F9CH   LINE      ---      ---       #375
      00FF4FA9H   LINE      ---      ---       #379
      00FF4FB4H   LINE      ---      ---       #383
      00FF4FBFH   LINE      ---      ---       #386
L251 LINKER/LOCATER V4.66.93.0                                                        04/08/2024  14:48:14  PAGE 183


      00FF4FCCH   LINE      ---      ---       #389
      00FF4FD4H   LINE      ---      ---       #393
      00FF4FDCH   LINE      ---      ---       #394
      00FF4FE1H   LINE      ---      ---       #428
      FFFFFFFFH   STKSYM    ---      INT       clkModeCurrent
      FFFFFFFDH   STKSYM    ---      INT       rfBandTemp
      WR4         REGSYM    ---      INT       rfkBandTemp
      WR2         REGSYM    ---      INT       modemTemp
      ---         BLOCKEND  CODE     ---       LVL=1
      00FF4FE1H   LINE      ---      ---       #430
      00FF4FE1H   LINE      CODE     ---       #430

      00FFB03FH   BLOCK     CODE     ---       LVL=0
      00FFB03FH   LINE      ---      ---       #433
      00FFB03FH   LINE      ---      ---       #448
      ---         BLOCKEND  ---      ---       LVL=0

      ---         MODULE    ---      ---       hal_cfg
      00FF10F3H   PUBLIC    HCONST   ---       sHalFwCfg
      00FF1101H   PUBLIC    HCONST   ---       sHalHwCfgBLE
      00FF1137H   PUBLIC    HCONST   ---       sHalHwCfgWisun
      00FF116DH   PUBLIC    HCONST   ---       sHalHwCfgZigbee

      ---         MODULE    ---      ---       hal_mac
      00FF4CDBH   PUBLIC    CODE     ---       HALMAC_WhitenSet
      00FF4CC4H   PUBLIC    CODE     ---       HALMAC_CrcInitDftGet
      00FF4CFEH   PUBLIC    CODE     ---       HALMAC_CrcSet
      00FF4FE8H   PUBLIC    CODE     ---       HALMAC_TxPreambleSet
      00FF4FF7H   PUBLIC    CODE     ---       HALMAC_RxPreambleSet
      00FF357DH   PUBLIC    CODE     ---       HALMAC_TxSfdSet
      00FFB0A5H   PUBLIC    CODE     ---       HALMAC_RxSfdSet
      00FF2571H   PUBLIC    CODE     ---       HALMAC_PhrSet
      00FFB15DH   PUBLIC    CODE     ---       HALMAC_RxMhrRptLenSet
      00FFB169H   PUBLIC    CODE     ---       HALMAC_RxMaxPktLenSet
      00FFB188H   PUBLIC    CODE     ---       HALMAC_PktBitEndianSet
      00FFB1B2H   PUBLIC    CODE     ---       HALMAC_WhitenDftGet
      00FF4C67H   PUBLIC    CODE     ---       HALMAC_WhitenInitDftGet
      00FF5F2EH   PUBLIC    CODE     ---       HALMAC_CrcLenCfgGet
      00FF7265H   PUBLIC    CODE     ---       HALMAC_PhrLenCfgGet
      00FFB1BBH   PUBLIC    CODE     ---       HALMAC_SfdDftGet
      00FFB1D2H   PUBLIC    CODE     ---       HALMAC_RxPayloadLenGet
      00FF2E80H   PUBLIC    CODE     ---       HALMAC_MaxPayloadDftGet
      00FF5FA9H   PUBLIC    CODE     ---       HALMAC_MaxPayloadLenGet
      00FF5CD0H   PUBLIC    CODE     ---       HALMAC_TxTypeSet
      00FFB22BH   PUBLIC    CODE     ---       HALMAC_IfsT2T
      00FFB2B7H   PUBLIC    CODE     ---       HALMAC_IfsT2R
      00FFB319H   PUBLIC    CODE     ---       HALMAC_IfsR2R
      00FFB39BH   PUBLIC    CODE     ---       HALMAC_IfsR2T

      00FF4CDBH   BLOCK     CODE     ---       LVL=0
      00FF4CDBH   LINE      ---      ---       #23
      00FF4CDDH   LINE      ---      ---       #29
      00FF4CF6H   LINE      ---      ---       #32
      00FF4CFDH   LINE      ---      ---       #33
      WR6         REGSYM    ---      INT       whitenType
      R10         REGSYM    ---      BYTE      initValue
      ---         BLOCKEND  ---      ---       LVL=0

      00FF4CFEH   BLOCK     CODE     ---       LVL=0
      00FF4CFEH   LINE      ---      ---       #35
      00FF4D02H   LINE      ---      ---       #41
      00FF4D1BH   LINE      ---      ---       #44
      00FF4D1FH   LINE      ---      ---       #45
      00FF4D31H   LINE      ---      ---       #47
      00FF4D3CH   LINE      ---      ---       #48
L251 LINKER/LOCATER V4.66.93.0                                                        04/08/2024  14:48:14  PAGE 184


      WR2         REGSYM    ---      INT       crcType
      DR28        REGSYM    ---      DWORD     initValue
      ---         BLOCKEND  ---      ---       LVL=0

      00FF4FE8H   BLOCK     CODE     ---       LVL=0
      00FF4FE8H   LINE      ---      ---       #51
      00FF4FE8H   LINE      ---      ---       #56
      WR6         REGSYM    ---      INT       preambleType
      ---         BLOCKEND  ---      ---       LVL=0

      00FF4FF7H   BLOCK     CODE     ---       LVL=0
      00FF4FF7H   LINE      ---      ---       #59
      00FF4FF7H   LINE      ---      ---       #64
      WR6         REGSYM    ---      INT       preambleType
      ---         BLOCKEND  ---      ---       LVL=0

      00FF357DH   BLOCK     CODE     ---       LVL=0
      00FF357DH   LINE      ---      ---       #67
      00FF357DH   LINE      ---      ---       #73
      00FF358AH   LINE      ---      ---       #76
      WR6         REGSYM    ---      INT       sfdType
      DR0         REGSYM    ---      DWORD     sfdData
      ---         BLOCKEND  ---      ---       LVL=0

      00FFB0A5H   BLOCK     CODE     ---       LVL=0
      00FFB0A5H   LINE      ---      ---       #80
      00FFB0A9H   LINE      ---      ---       #85
      00FFB0BEH   LINE      ---      ---       #89
      00FFB0BEH   LINE      ---      ---       #90
      00FFB0C4H   LINE      ---      ---       #92
      00FFB0D3H   LINE      ---      ---       #93
      00FFB0EAH   LINE      ---      ---       #94
      00FFB0F5H   LINE      ---      ---       #95
      00FFB0F9H   LINE      ---      ---       #96
      00FFB0FBH   LINE      ---      ---       #99
      00FFB10BH   LINE      ---      ---       #100
      00FFB122H   LINE      ---      ---       #101
      00FFB12DH   LINE      ---      ---       #102
      00FFB140H   LINE      ---      ---       #103
      00FFB140H   LINE      ---      ---       #107
      00FFB140H   LINE      ---      ---       #109
      00FFB151H   LINE      ---      ---       #110
      00FFB15CH   LINE      ---      ---       #111
      00FFB15CH   LINE      ---      ---       #114
      00FFB15CH   LINE      ---      ---       #115
      00FFB15CH   LINE      ---      ---       #116
      00FFB15CH   LINE      ---      ---       #117
      WR10        REGSYM    ---      INT       sfdType
      DR28        REGSYM    ---      DWORD     sfdData
      ---         BLOCKEND  ---      ---       LVL=0

      00FF2563H   BLOCK     CODE     ---       LVL=0
      00FF2571H   LINE      ---      ---       #120
      00FF2571H   LINE      ---      ---       #127
      00FF2582H   LINE      ---      ---       #133
      00FF2591H   LINE      ---      ---       #134
      00FF2563H   SYMBOL    CODE     NEAR LAB  ?L?COM0031
      WR6         REGSYM    ---      INT       phrType
      DR0         REGSYM    ---      DWORD     phrData
      ---         BLOCKEND  ---      ---       LVL=0

      00FFB15DH   BLOCK     CODE     ---       LVL=0
      00FFB15DH   LINE      ---      ---       #136
      00FFB15DH   LINE      ---      ---       #140
      WR6         REGSYM    ---      WORD      rptLen
L251 LINKER/LOCATER V4.66.93.0                                                        04/08/2024  14:48:14  PAGE 185


      ---         BLOCKEND  ---      ---       LVL=0

      00FFB169H   BLOCK     CODE     ---       LVL=0
      00FFB169H   LINE      ---      ---       #144
      WR2         REGSYM    ---      WORD      pktLen
      00FFB169H   BLOCK     CODE     NEAR LAB  LVL=1
      00FFB177H   LINE      ---      ---       #157
      00FFB17CH   LINE      ---      ---       #158
      DR8         REGSYM    ---      DWORD     regVal
      ---         BLOCKEND  CODE     ---       LVL=1
      00FFB187H   LINE      ---      ---       #159
      00FFB187H   LINE      CODE     ---       #159

      00FFB188H   BLOCK     CODE     ---       LVL=0
      00FFB188H   LINE      ---      ---       #162
      WR2         REGSYM    ---      INT       bitEndian
      00FFB188H   BLOCK     CODE     NEAR LAB  LVL=1
      00FFB196H   LINE      ---      ---       #175
      00FFB1A7H   LINE      ---      ---       #176
      DR28        REGSYM    ---      DWORD     regVal
      ---         BLOCKEND  CODE     ---       LVL=1
      ---         BLOCKEND  CODE     ---       LVL=0

      00FFB1B2H   BLOCK     CODE     ---       LVL=0
      00FFB1B2H   LINE      ---      ---       #181
      00FFB1B2H   LINE      ---      ---       #183
      00FFB1BAH   LINE      ---      ---       #184
      ---         BLOCKEND  ---      ---       LVL=0

      00FF4C67H   BLOCK     CODE     ---       LVL=0
      00FF4C67H   LINE      ---      ---       #186
      00FF4C67H   LINE      ---      ---       #189
      00FF4C6FH   LINE      ---      ---       #190
      ---         BLOCKEND  ---      ---       LVL=0

      00FF4CC0H   BLOCK     CODE     ---       LVL=0
      00FF4CC4H   LINE      ---      ---       #192
      00FF4CC4H   LINE      ---      ---       #197
      00FF4CDAH   LINE      ---      ---       #198
      00FF4CC0H   SYMBOL    CODE     NEAR LAB  ?L?COM0054
      WR6         REGSYM    ---      INT       crcType
      ---         BLOCKEND  ---      ---       LVL=0

      00FF5F2EH   BLOCK     CODE     ---       LVL=0
      00FF5F2EH   LINE      ---      ---       #201
      00FF5F2EH   LINE      ---      ---       #202
      00FF5F2EH   BLOCK     CODE     NEAR LAB  LVL=1
      00FF5F2EH   LINE      ---      ---       #206
      00FF5F3BH   LINE      ---      ---       #207
      R7          REGSYM    ---      BYTE      regValue
      ---         BLOCKEND  CODE     ---       LVL=1
      00FF5F46H   LINE      ---      ---       #208
      00FF5F46H   LINE      CODE     ---       #208

      00FF7265H   BLOCK     CODE     ---       LVL=0
      00FF7265H   LINE      ---      ---       #210
      00FF7265H   LINE      ---      ---       #214
      00FF7270H   LINE      ---      ---       #215
      00FF7273H   LINE      ---      ---       #219
      00FF7279H   LINE      ---      ---       #220
      00FF727CH   LINE      ---      ---       #224
      00FF7282H   LINE      ---      ---       #225
      00FF7285H   LINE      ---      ---       #238
      00FF7286H   LINE      ---      ---       #239
      ---         BLOCKEND  ---      ---       LVL=0
L251 LINKER/LOCATER V4.66.93.0                                                        04/08/2024  14:48:14  PAGE 186



      00FFB1D2H   BLOCK     CODE     ---       LVL=0
      00FFB1D2H   LINE      ---      ---       #254
      00FFB1D2H   LINE      ---      ---       #256
      00FFB1E5H   LINE      ---      ---       #259
      00FFB1E5H   LINE      ---      ---       #260
      00FFB1F7H   LINE      ---      ---       #264
      00FFB1F7H   LINE      ---      ---       #265
      00FFB20FH   LINE      ---      ---       #269
      00FFB20FH   LINE      ---      ---       #270
      00FFB228H   LINE      ---      ---       #278
      00FFB228H   LINE      ---      ---       #279
      00FFB22AH   LINE      ---      ---       #280
      00FFB22AH   LINE      ---      ---       #281
      ---         BLOCKEND  ---      ---       LVL=0

      00FFB1BBH   BLOCK     CODE     ---       LVL=0
      00FFB1BBH   LINE      ---      ---       #283
      00FFB1BBH   LINE      ---      ---       #288
      00FFB1D1H   LINE      ---      ---       #289
      WR6         REGSYM    ---      INT       sfdType
      ---         BLOCKEND  ---      ---       LVL=0

      00FF2E80H   BLOCK     CODE     ---       LVL=0
      00FF2E80H   LINE      ---      ---       #292
      00FF2E80H   LINE      ---      ---       #295
      00FF2E88H   LINE      ---      ---       #296
      ---         BLOCKEND  ---      ---       LVL=0

      00FF5FA9H   BLOCK     CODE     ---       LVL=0
      00FF5FA9H   LINE      ---      ---       #299
      00FF5FA9H   LINE      ---      ---       #301
      00FF5FBCH   LINE      ---      ---       #305
      00FF5FBCH   LINE      ---      ---       #310
      00FF5FC1H   LINE      ---      ---       #315
      00FF5FC1H   LINE      ---      ---       #318
      00FF5FC1H   LINE      ---      ---       #320
      00FF5FD0H   LINE      ---      ---       #322
      00FF5FD0H   LINE      ---      ---       #324
      00FF5FD2H   LINE      ---      ---       #325
      ---         BLOCKEND  ---      ---       LVL=0

      00FF5CC5H   BLOCK     CODE     ---       LVL=0
      00FF5CD0H   LINE      ---      ---       #328
      00FF5CD0H   LINE      ---      ---       #330
      00FF5CDCH   LINE      ---      ---       #332
      00FF5CDCH   LINE      ---      ---       #334
      00FF5CE8H   LINE      ---      ---       #335
      00FF5CEAH   LINE      ---      ---       #336
      00FF5CEAH   LINE      ---      ---       #337
      00FF5CEAH   LINE      ---      ---       #338
      00FF5CEAH   LINE      ---      ---       #339
      00FF5CECH   LINE      ---      ---       #340
      00FF5CECH   LINE      ---      ---       #342
      00FF5CF8H   LINE      ---      ---       #343
      00FF5CFDH   LINE      ---      ---       #344
      00FF5D09H   LINE      ---      ---       #345
      00FF5D12H   LINE      ---      ---       #346
      00FF5D1AH   LINE      ---      ---       #347
      00FF5D1BH   LINE      ---      ---       #348
      00FF5D1BH   LINE      ---      ---       #350
      00FF5D27H   LINE      ---      ---       #351
      00FF5D29H   LINE      ---      ---       #352
      00FF5D29H   LINE      ---      ---       #353
      00FF5D2BH   LINE      ---      ---       #354
L251 LINKER/LOCATER V4.66.93.0                                                        04/08/2024  14:48:14  PAGE 187


      00FF5D2BH   LINE      ---      ---       #356
      00FF5D37H   LINE      ---      ---       #357
      00FF5D3CH   LINE      ---      ---       #358
      00FF5D48H   LINE      ---      ---       #359
      00FF5D48H   LINE      ---      ---       #360
      00FF5D48H   LINE      ---      ---       #361
      00FF5CC5H   SYMBOL    CODE     NEAR LAB  ?L?COM001C
      WR6         REGSYM    ---      INT       type
      ---         BLOCKEND  ---      ---       LVL=0

      00FFB22BH   BLOCK     CODE     ---       LVL=0
      00FFB22BH   LINE      ---      ---       #363
      00FFB231H   LINE      ---      ---       #368
      WR14        REGSYM    ---      WORD      ifs
      WR4         REGSYM    ---      INT       txBw
      R3          REGSYM    ---      BYTE      bEndTimer
      00FFB231H   BLOCK     CODE     NEAR LAB  LVL=1
      00FFB231H   LINE      ---      ---       #371
      00FFB235H   LINE      ---      ---       #372
      00FFB246H   LINE      ---      ---       #374
      00FFB260H   LINE      ---      ---       #376
      00FFB274H   LINE      ---      ---       #377
      00FFB288H   LINE      ---      ---       #379
      R13         REGSYM    ---      BYTE      txTailDelay
      ---         BLOCKEND  CODE     ---       LVL=1
      00FFB28AH   LINE      ---      ---       #380
      00FFB28AH   LINE      CODE     ---       #380

      00FFB2B7H   BLOCK     CODE     ---       LVL=0
      00FFB2B7H   LINE      ---      ---       #383
      00FFB2BDH   LINE      ---      ---       #388
      WR14        REGSYM    ---      WORD      ifs
      WR4         REGSYM    ---      INT       txBw
      R3          REGSYM    ---      BYTE      bEndTimer
      00FFB2BDH   BLOCK     CODE     NEAR LAB  LVL=1
      00FFB2BDH   LINE      ---      ---       #391
      00FFB2C1H   LINE      ---      ---       #392
      00FFB2D2H   LINE      ---      ---       #394
      00FFB2ECH   LINE      ---      ---       #396
      00FFB300H   LINE      ---      ---       #397
      00FFB314H   LINE      ---      ---       #399
      R13         REGSYM    ---      BYTE      txTailDelay
      ---         BLOCKEND  CODE     ---       LVL=1
      00FFB316H   LINE      ---      ---       #400
      00FFB316H   LINE      CODE     ---       #400

      00FFB319H   BLOCK     CODE     ---       LVL=0
      00FFB319H   LINE      ---      ---       #402
      WR14        REGSYM    ---      WORD      ifs
      WR4         REGSYM    ---      INT       rxBw
      00FFB31BH   BLOCK     CODE     NEAR LAB  LVL=1
      00FFB31FH   LINE      ---      ---       #409
      00FFB333H   LINE      ---      ---       #410
      00FFB349H   LINE      ---      ---       #412
      R10         REGSYM    ---      BYTE      rxTailDelay
      ---         BLOCKEND  CODE     ---       LVL=1
      00FFB34BH   LINE      ---      ---       #413
      00FFB34BH   LINE      CODE     ---       #413

      00FFB39BH   BLOCK     CODE     ---       LVL=0
      00FFB39BH   LINE      ---      ---       #415
      WR14        REGSYM    ---      WORD      ifs
      WR4         REGSYM    ---      INT       rxBw
      00FFB39DH   BLOCK     CODE     NEAR LAB  LVL=1
      00FFB3A1H   LINE      ---      ---       #422
L251 LINKER/LOCATER V4.66.93.0                                                        04/08/2024  14:48:14  PAGE 188


      00FFB3B5H   LINE      ---      ---       #423
      00FFB3CBH   LINE      ---      ---       #425
      R10         REGSYM    ---      BYTE      rxTailDelay
      ---         BLOCKEND  CODE     ---       LVL=1
      00FFB3CDH   LINE      ---      ---       #426
      00FFB3CDH   LINE      CODE     ---       #426

      ---         MODULE    ---      ---       hal_para
      00FF082BH   PUBLIC    HCONST   ---       phyTabBpFir15Tap
      00FF0833H   PUBLIC    HCONST   ---       phyTabBpFir31Tap
      00FF0843H   PUBLIC    HCONST   ---       phyTabIfMap
      00FF084BH   PUBLIC    HCONST   ---       phyTabIfMapDclk
      00FF0851H   PUBLIC    HCONST   ---       sHalHwPara
      00FF08CAH   PUBLIC    HCONST   ---       sHalHwTab

      ---         MODULE    ---      ---       hal_phy
      00FFB3D0H   PUBLIC    CODE     ---       HALPHY_DfeSet
      00FFB449H   PUBLIC    CODE     ---       HALPHY_ParaSet
      00FF4AA4H   PUBLIC    CODE     ---       HALPHY_GaussianFiltSet
      00FFB5E7H   PUBLIC    CODE     ---       HALPHY_RxDisable
      00FFB601H   PUBLIC    CODE     ---       HALPHY_RxEnable
      00FFB6AEH   PUBLIC    CODE     ---       HALPHY_TxEnable
      00FF4AD8H   PUBLIC    CODE     ---       HALPHY_PreamNumSet
      00FFB885H   PUBLIC    CODE     ---       HALPHY_TxBwSet
      00FFBB41H   PUBLIC    CODE     ---       HALPHY_RxBwSet
      00FFBFE8H   PUBLIC    CODE     ---       HALPHY_InputPwrGet
      00FFBF0AH   PUBLIC    CODE     ---       HALPHY_BleRxParaSet
      00FFBFADH   PUBLIC    CODE     ---       HALPHY_FskRxParaSet
      00FFBF5EH   PUBLIC    CODE     ---       HALPHY_ModIdxSet

      00FFBF0AH   BLOCK     CODE     ---       LVL=0
      00FFBF0AH   LINE      ---      ---       #25
      00FFBF12H   LINE      ---      ---       #34
      00FFBF25H   LINE      ---      ---       #35
      00FFBF38H   LINE      ---      ---       #36
      00FFBF40H   LINE      ---      ---       #37
      00FFBF4BH   LINE      ---      ---       #38
      00FFBF52H   LINE      ---      ---       #39
      00FFBF5DH   LINE      ---      ---       #40
      R11         REGSYM    ---      BYTE      detectionOffset
      R8          REGSYM    ---      BYTE      rxPreamBase
      R9          REGSYM    ---      BYTE      syncBitTh
      WR2         REGSYM    ---      WORD      syncCorrTh
      R10         REGSYM    ---      BYTE      trackBitTh
      WR0         REGSYM    ---      WORD      trackCorrTh
      ---         BLOCKEND  ---      ---       LVL=0

      00FFBFADH   BLOCK     CODE     ---       LVL=0
      00FFBFADH   LINE      ---      ---       #44
      00FFBFAFH   LINE      ---      ---       #50
      00FFBFC3H   LINE      ---      ---       #51
      00FFBFD9H   LINE      ---      ---       #52
      R2          REGSYM    ---      BYTE      trackKp
      R3          REGSYM    ---      BYTE      trackKq
      R6          REGSYM    ---      BYTE      cfoEstAlphaIdx
      ---         BLOCKEND  ---      ---       LVL=0

      00FFB3D0H   BLOCK     CODE     ---       LVL=0
      00FFB3D0H   LINE      ---      ---       #59
      00FFB3D0H   LINE      ---      ---       #61
      00FFB3E3H   LINE      ---      ---       #65
      00FFB3E3H   LINE      ---      ---       #68
      00FFB3E3H   LINE      ---      ---       #71
      00FFB3F6H   LINE      ---      ---       #73
      00FFB3FEH   LINE      ---      ---       #74
L251 LINKER/LOCATER V4.66.93.0                                                        04/08/2024  14:48:14  PAGE 189


      00FFB400H   LINE      ---      ---       #78
      00FFB400H   LINE      ---      ---       #81
      00FFB406H   LINE      ---      ---       #83
      00FFB40EH   LINE      ---      ---       #84
      00FFB410H   LINE      ---      ---       #88
      00FFB423H   LINE      ---      ---       #89
      00FFB423H   LINE      ---      ---       #91
      00FFB436H   LINE      ---      ---       #92
      00FFB436H   LINE      ---      ---       #103
      00FFB436H   LINE      ---      ---       #107
      ---         BLOCKEND  ---      ---       LVL=0

      00FFB449H   BLOCK     CODE     ---       LVL=0
      00FFB449H   LINE      ---      ---       #111
      00FFB449H   LINE      ---      ---       #114
      00FFB460H   LINE      ---      ---       #117
      00FFB460H   LINE      ---      ---       #121
      00FFB47CH   LINE      ---      ---       #122
      00FFB48FH   LINE      ---      ---       #123
      00FFB4A2H   LINE      ---      ---       #124
      00FFB4A9H   LINE      ---      ---       #125
      00FFB4BEH   LINE      ---      ---       #128
      00FFB4C0H   LINE      ---      ---       #132
      00FFB4C0H   LINE      ---      ---       #133
      00FFB4DAH   LINE      ---      ---       #134
      00FFB4EDH   LINE      ---      ---       #135
      00FFB4EFH   LINE      ---      ---       #139
      00FFB4EFH   LINE      ---      ---       #140
      00FFB509H   LINE      ---      ---       #141
      00FFB514H   LINE      ---      ---       #142
      00FFB520H   LINE      ---      ---       #143
      00FFB537H   LINE      ---      ---       #144
      00FFB54AH   LINE      ---      ---       #145
      00FFB555H   LINE      ---      ---       #146
      00FFB570H   LINE      ---      ---       #148
      00FFB576H   LINE      ---      ---       #150
      00FFB589H   LINE      ---      ---       #151
      00FFB594H   LINE      ---      ---       #152
      00FFB598H   LINE      ---      ---       #153
      00FFB59AH   LINE      ---      ---       #157
      00FFB5ADH   LINE      ---      ---       #158
      00FFB5B8H   LINE      ---      ---       #159
      00FFB5D0H   LINE      ---      ---       #160
      00FFB5D0H   LINE      ---      ---       #161
      00FFB5E6H   LINE      ---      ---       #162
      00FFB5E6H   LINE      ---      ---       #177
      00FFB5E6H   LINE      ---      ---       #178
      00FFB5E6H   LINE      ---      ---       #179
      00FFB5E6H   LINE      ---      ---       #180
      ---         BLOCKEND  ---      ---       LVL=0

      00FF4AA4H   BLOCK     CODE     ---       LVL=0
      00FF4AA4H   LINE      ---      ---       #182
      00FF4AA4H   LINE      ---      ---       #186
      WR6         REGSYM    ---      INT       type
      ---         BLOCKEND  ---      ---       LVL=0

      00FFB5E7H   BLOCK     CODE     ---       LVL=0
      00FFB5E7H   LINE      ---      ---       #285
      00FFB5E7H   LINE      ---      ---       #288
      00FFB5F0H   LINE      ---      ---       #291
      00FFB5F8H   LINE      ---      ---       #292
      00FFB600H   LINE      ---      ---       #293
      ---         BLOCKEND  ---      ---       LVL=0

L251 LINKER/LOCATER V4.66.93.0                                                        04/08/2024  14:48:14  PAGE 190


      00FFB601H   BLOCK     CODE     ---       LVL=0
      00FFB601H   LINE      ---      ---       #295
      00FFB601H   LINE      ---      ---       #308
      00FFB610H   LINE      ---      ---       #314
      00FFB61CH   LINE      ---      ---       #315
      00FFB628H   LINE      ---      ---       #317
      00FFB62DH   LINE      ---      ---       #318
      00FFB639H   LINE      ---      ---       #322
      ---         BLOCKEND  ---      ---       LVL=0

      00FFB6AEH   BLOCK     CODE     ---       LVL=0
      00FFB6AEH   LINE      ---      ---       #328
      00FFB6B0H   LINE      ---      ---       #329
      00FFB6B0H   BLOCK     CODE     NEAR LAB  LVL=1
      00FFB6B0H   LINE      ---      ---       #330
      00FFB6B8H   LINE      ---      ---       #332
      00FFB6BCH   LINE      ---      ---       #347
      00FFB6C9H   LINE      ---      ---       #348
      00FFB6E9H   LINE      ---      ---       #354
      00FFB701H   LINE      ---      ---       #355
      REG=7       REGSYM    ---      ---       pPllCfg
      WR12        REGSYM    ---      INT       modIdx
      00FFB701H   BLOCK     CODE     NEAR LAB  LVL=2
      00FFB701H   LINE      ---      ---       #356
      00FFB708H   LINE      ---      ---       #357
      00FFB70CH   LINE      ---      ---       #360
      00FFB73CH   LINE      ---      ---       #361
      00FFB758H   LINE      ---      ---       #362
      00FFB789H   LINE      ---      ---       #363
      00FFB7B5H   LINE      ---      ---       #364
      00FFB7BFH   LINE      ---      ---       #367
      00FFB7C8H   LINE      ---      ---       #368
      00FFB7D4H   LINE      ---      ---       #369
      00FFB7D6H   LINE      ---      ---       #373
      00FFB818H   LINE      ---      ---       #374
      00FFB84DH   LINE      ---      ---       #375
      00FFB84DH   LINE      ---      ---       #377
      00FFB851H   LINE      ---      ---       #382
      00FFB85DH   LINE      ---      ---       #383
      00FFB869H   LINE      ---      ---       #385
      00FFB86EH   LINE      ---      ---       #386
      WR2         REGSYM    ---      INT       dataBwIdx
      WR30        REGSYM    ---      INT       subgBand
      ---         BLOCKEND  CODE     ---       LVL=2
      00FFB87AH   LINE      ---      ---       #387
      00FFB87AH   LINE      ---      ---       #392
      00FFB87FH   LINE      ---      ---       #396
      00FFB882H   LINE      ---      ---       #400
      00FFB882H   LINE      CODE     ---       #400
      ---         BLOCKEND  CODE     ---       LVL=0

      00FFBF5EH   BLOCK     CODE     ---       LVL=0
      00FFBF5EH   LINE      ---      ---       #404
      00FFBF5EH   LINE      ---      ---       #409
      00FFBF62H   LINE      ---      ---       #418
      00FFBF6AH   LINE      ---      ---       #419
      00FFBF6CH   LINE      ---      ---       #429
      WR6         REGSYM    ---      INT       modIdx
      ---         BLOCKEND  ---      ---       LVL=0

      00FF4AD8H   BLOCK     CODE     ---       LVL=0
      00FF4AD8H   LINE      ---      ---       #435
      00FF4AD8H   LINE      ---      ---       #439
      R7          REGSYM    ---      BYTE      preambleNum
      ---         BLOCKEND  ---      ---       LVL=0
L251 LINKER/LOCATER V4.66.93.0                                                        04/08/2024  14:48:14  PAGE 191



      00FFB885H   BLOCK     CODE     ---       LVL=0
      00FFB885H   LINE      ---      ---       #443
      00FFB88DH   LINE      ---      ---       #449
      WR30        REGSYM    ---      INT       dataBw
      WR8         REGSYM    ---      INT       modIdx
      WR28        REGSYM    ---      INT       codingType
      R11         REGSYM    ---      BYTE      bAutoCfg
      00FFB88DH   BLOCK     CODE     NEAR LAB  LVL=1
      00FFB88DH   LINE      ---      ---       #454
      00FFB89FH   LINE      ---      ---       #456
      00FFB8A5H   LINE      ---      ---       #474
      00FFB8A9H   LINE      ---      ---       #476
      00FFB8C0H   LINE      ---      ---       #479
      00FFB8C0H   LINE      ---      ---       #488
      00FFB8C6H   LINE      ---      ---       #489
      00FFB8D0H   LINE      ---      ---       #492
      00FFB8DFH   LINE      ---      ---       #494
      00FFB8E1H   LINE      ---      ---       #498
      00FFB8E1H   LINE      ---      ---       #501
      00FFB8E7H   LINE      ---      ---       #502
      00FFB8F1H   LINE      ---      ---       #506
      00FFB8FCH   LINE      ---      ---       #509
      00FFB8FCH   LINE      ---      ---       #514
      00FFB90CH   LINE      ---      ---       #516
      00FFB90EH   LINE      ---      ---       #520
      00FFB90EH   LINE      ---      ---       #525
      00FFB91EH   LINE      ---      ---       #527
      00FFB920H   LINE      ---      ---       #529
      00FFB920H   LINE      ---      ---       #530
      00FFB920H   LINE      ---      ---       #531
      00FFB920H   LINE      ---      ---       #535
      00FFB920H   LINE      ---      ---       #537
      00FFB92BH   LINE      ---      ---       #540
      00FFB92BH   LINE      ---      ---       #545
      00FFB93BH   LINE      ---      ---       #547
      00FFB93DH   LINE      ---      ---       #551
      00FFB93DH   LINE      ---      ---       #556
      00FFB95FH   LINE      ---      ---       #558
      00FFB95FH   LINE      ---      ---       #560
      00FFB95FH   LINE      ---      ---       #561
      00FFB95FH   LINE      ---      ---       #574
      00FFB95FH   LINE      ---      ---       #580
      00FFB95FH   LINE      ---      ---       #583
      00FFB974H   LINE      ---      ---       #587
      00FFB974H   LINE      ---      ---       #590
      00FFB974H   LINE      ---      ---       #593
      00FFB974H   LINE      ---      ---       #596
      00FFB97BH   LINE      ---      ---       #598
      00FFB983H   LINE      ---      ---       #600
      00FFB98BH   LINE      ---      ---       #603
      00FFB9ADH   LINE      ---      ---       #605
      00FFB9C9H   LINE      ---      ---       #611
      00FFB9D3H   LINE      ---      ---       #613
      00FFB9D3H   LINE      ---      ---       #615
      00FFB9D3H   LINE      ---      ---       #618
      00FFB9D5H   LINE      ---      ---       #630
      00FFB9FAH   LINE      ---      ---       #631
      00FFBA13H   LINE      ---      ---       #634
      00FFBA39H   LINE      ---      ---       #636
      00FFBA41H   LINE      ---      ---       #642
      00FFBA43H   LINE      ---      ---       #645
      00FFBA43H   LINE      ---      ---       #648
      00FFBA53H   LINE      ---      ---       #660
      00FFBA83H   LINE      ---      ---       #661
L251 LINKER/LOCATER V4.66.93.0                                                        04/08/2024  14:48:14  PAGE 192


      00FFBA9CH   LINE      ---      ---       #664
      00FFBAC3H   LINE      ---      ---       #666
      00FFBACCH   LINE      ---      ---       #671
      00FFBACCH   LINE      ---      ---       #673
      00FFBACCH   LINE      ---      ---       #677
      00FFBAEEH   LINE      ---      ---       #678
      00FFBB05H   LINE      ---      ---       #680
      00FFBB13H   LINE      ---      ---       #683
      00FFBB19H   LINE      ---      ---       #684
      00FFBB23H   LINE      ---      ---       #686
      00FFBB36H   LINE      ---      ---       #691
      00FFBB36H   LINE      ---      ---       #717
      00FFBB36H   LINE      ---      ---       #721
      00FFBB3EH   LINE      ---      ---       #728
      WR12        REGSYM    ---      INT       dataBwEff
      WR14        REGSYM    ---      INT       dataBwIdx
      WR6         REGSYM    ---      INT       dataBwIdxDclk
      ---         BLOCKEND  CODE     ---       LVL=1
      00FFBB3EH   LINE      ---      ---       #729
      00FFBB3EH   LINE      CODE     ---       #729

      00FFBB41H   BLOCK     CODE     ---       LVL=0
      00FFBB41H   LINE      ---      ---       #731
      00FFBB4FH   LINE      ---      ---       #737
      WR14        REGSYM    ---      INT       dataBw
      0000B5D0H   SYMBOL    EDATA    INT       modIdx
      WR12        REGSYM    ---      INT       codingType
      0000B5D2H   SYMBOL    EDATA    BYTE      bAutoCfg
      00FFBB4FH   BLOCK     CODE     NEAR LAB  LVL=1
      00FFBB4FH   LINE      ---      ---       #742
      00FFBB65H   LINE      ---      ---       #744
      00FFBB6FH   LINE      ---      ---       #768
      00FFBB88H   LINE      ---      ---       #772
      00FFBB88H   LINE      ---      ---       #775
      00FFBB9AH   LINE      ---      ---       #781
      00FFBBA0H   LINE      ---      ---       #783
      00FFBBBEH   LINE      ---      ---       #786
      00FFBBC7H   LINE      ---      ---       #787
      00FFBBC9H   LINE      ---      ---       #791
      00FFBBCFH   LINE      ---      ---       #793
      00FFBBEBH   LINE      ---      ---       #796
      00FFBBEDH   LINE      ---      ---       #799
      00FFBC0BH   LINE      ---      ---       #802
      00FFBC0BH   LINE      ---      ---       #803
      00FFBC17H   LINE      ---      ---       #804
      00FFBC17H   LINE      ---      ---       #808
      00FFBC17H   LINE      ---      ---       #811
      00FFBC17H   LINE      ---      ---       #815
      00FFBC26H   LINE      ---      ---       #817
      00FFBC36H   LINE      ---      ---       #819
      00FFBC38H   LINE      ---      ---       #832
      00FFBC54H   LINE      ---      ---       #835
      00FFBC54H   LINE      ---      ---       #839
      00FFBC5AH   LINE      ---      ---       #840
      00FFBC64H   LINE      ---      ---       #842
      00FFBC76H   LINE      ---      ---       #846
      00FFBC7CH   LINE      ---      ---       #850
      00FFBC95H   LINE      ---      ---       #852
      00FFBCA3H   LINE      ---      ---       #854
      00FFBCADH   LINE      ---      ---       #859
      00FFBCB3H   LINE      ---      ---       #860
      00FFBCBDH   LINE      ---      ---       #862
      00FFBCD0H   LINE      ---      ---       #890
      00FFBCF4H   LINE      ---      ---       #892
      00FFBCF4H   LINE      ---      ---       #895
L251 LINKER/LOCATER V4.66.93.0                                                        04/08/2024  14:48:14  PAGE 193


      00FFBD00H   LINE      ---      ---       #897
      00FFBD0CH   LINE      ---      ---       #899
      00FFBD18H   LINE      ---      ---       #902
      00FFBD27H   LINE      ---      ---       #905
      00FFBD27H   LINE      ---      ---       #908
      00FFBD50H   LINE      ---      ---       #909
      00FFBD66H   LINE      ---      ---       #912
      00FFBD8AH   LINE      ---      ---       #913
      00FFBDA3H   LINE      ---      ---       #915
      00FFBDC7H   LINE      ---      ---       #917
      00FFBDDDH   LINE      ---      ---       #918
      00FFBDEBH   LINE      ---      ---       #931
      00FFBDF7H   LINE      ---      ---       #932
      00FFBDF9H   LINE      ---      ---       #936
      00FFBDF9H   LINE      ---      ---       #939
      00FFBE22H   LINE      ---      ---       #940
      00FFBE38H   LINE      ---      ---       #943
      00FFBE5CH   LINE      ---      ---       #944
      00FFBE75H   LINE      ---      ---       #946
      00FFBE99H   LINE      ---      ---       #948
      00FFBEAFH   LINE      ---      ---       #949
      00FFBEBDH   LINE      ---      ---       #965
      00FFBECAH   LINE      ---      ---       #966
      00FFBECAH   LINE      ---      ---       #968
      00FFBECAH   LINE      ---      ---       #971
      00FFBEDBH   LINE      ---      ---       #977
      00FFBEF4H   LINE      ---      ---       #981
      00FFBEF4H   LINE      ---      ---       #1014
      00FFBEF4H   LINE      ---      ---       #1015
      00FFBEF4H   LINE      ---      ---       #1016
      00FFBEF4H   LINE      ---      ---       #1020
      00FFBF01H   LINE      ---      ---       #1021
      00FFBF07H   LINE      ---      ---       #1030
      WR6         REGSYM    ---      INT       dataBwEff
      0000B5D3H   SYMBOL    EDATA    INT       dataBwIdx
      0000B5D5H   SYMBOL    EDATA    INT       dataBwIdxDclk
      ---         BLOCKEND  CODE     ---       LVL=1
      00FFBF07H   LINE      ---      ---       #1031
      00FFBF07H   LINE      CODE     ---       #1031

      00FFBFE8H   BLOCK     CODE     ---       LVL=0
      00FFBFE8H   LINE      ---      ---       #1033
      00FFBFF0H   LINE      ---      ---       #1039
      R15         REGSYM    ---      BYTE      LNAGainIndex
      R8          REGSYM    ---      BYTE      TIAGainindex
      R9          REGSYM    ---      BYTE      VGAGainindex
      R10         REGSYM    ---      CHAR      RSSIvalue
      00FFBFF0H   BLOCK     CODE     NEAR LAB  LVL=1
      00FFBFF0H   LINE      ---      ---       #1041
      00FFBFF4H   LINE      ---      ---       #1042
      00FFBFFDH   LINE      ---      ---       #1053
      00FFC03CH   LINE      ---      ---       #1057
      00FFC042H   LINE      ---      ---       #1058
      00FFC048H   LINE      ---      ---       #1060
      00FFC05CH   LINE      ---      ---       #1061
      00FFC06CH   LINE      ---      ---       #1062
      00FFC06EH   LINE      ---      ---       #1066
      WR6         REGSYM    ---      INT       RSSIvalueTemp
      R5          REGSYM    ---      BYTE      rfkBand
      REG=1       REGSYM    ---      ---       pRssiCtrl
      ---         BLOCKEND  CODE     ---       LVL=1
      00FFC070H   LINE      ---      ---       #1067
      00FFC070H   LINE      CODE     ---       #1067
      00FFB882H   LINE      ---      ---       #401

L251 LINKER/LOCATER V4.66.93.0                                                        04/08/2024  14:48:14  PAGE 194


      ---         MODULE    ---      ---       hal_pkt
      00FF259BH   PUBLIC    CODE     ---       HALPKT_TxqDoneSet
      00FF2877H   PUBLIC    CODE     ---       HALPKT_RxqDoneSet
      00FF3D84H   PUBLIC    CODE     ---       HALPKT_PhyStatusGet

      00FF2592H   BLOCK     CODE     ---       LVL=0
      00FF259BH   LINE      ---      ---       #23
      00FF25A3H   LINE      ---      ---       #31
      00FF25AFH   LINE      ---      ---       #34
      00FF25B9H   LINE      ---      ---       #35
      00FF25BDH   LINE      ---      ---       #38
      00FF25C5H   LINE      ---      ---       #40
      00FF25CEH   LINE      ---      ---       #41
      00FF25D1H   LINE      ---      ---       #42
      00FF25D1H   LINE      ---      ---       #44
      00FF25D5H   LINE      ---      ---       #47
      00FF25DAH   LINE      ---      ---       #48
      00FF25DAH   LINE      ---      ---       #50
      00FF25DCH   LINE      ---      ---       #51
      00FF2592H   SYMBOL    CODE     NEAR LAB  ?L?COM0002
      R14         REGSYM    ---      BYTE      bLocalTxQueue
      R15         REGSYM    ---      BYTE      txQueueId
      R10         REGSYM    ---      BYTE      txPktId
      WR4         REGSYM    ---      INT       txProcess
      ---         BLOCKEND  ---      ---       LVL=0

      00FF2871H   BLOCK     CODE     ---       LVL=0
      00FF2877H   LINE      ---      ---       #53
      00FF287BH   LINE      ---      ---       #59
      00FF2887H   LINE      ---      ---       #62
      00FF2895H   LINE      ---      ---       #63
      00FF2898H   LINE      ---      ---       #66
      00FF28A4H   LINE      ---      ---       #68
      00FF28A4H   LINE      ---      ---       #69
      00FF28A6H   LINE      ---      ---       #70
      00FF28A8H   LINE      ---      ---       #72
      00FF28A8H   LINE      ---      ---       #73
      00FF28B2H   LINE      ---      ---       #74
      00FF28B4H   LINE      ---      ---       #76
      00FF28B6H   LINE      ---      ---       #77
      00FF28B8H   LINE      ---      ---       #79
      00FF28B8H   LINE      ---      ---       #80
      00FF28C1H   LINE      ---      ---       #81
      00FF28C3H   LINE      ---      ---       #83
      00FF28C3H   LINE      ---      ---       #84
      00FF28C5H   LINE      ---      ---       #85
      00FF28C5H   LINE      ---      ---       #87
      00FF28C7H   LINE      ---      ---       #88
      00FF2871H   SYMBOL    CODE     NEAR LAB  ?L?COM0019
      R10         REGSYM    ---      BYTE      bLocalRxQueue
      WR4         REGSYM    ---      INT       rxProcess
      ---         BLOCKEND  ---      ---       LVL=0

      00FF3D7FH   BLOCK     CODE     ---       LVL=0
      00FF3D84H   LINE      ---      ---       #91
      00FF3D8AH   LINE      ---      ---       #95
      00FF3D7FH   SYMBOL    CODE     NEAR LAB  ?L?COM003C
      R1          REGSYM    ---      BYTE      bLocalRxQueue
      REG=1       REGSYM    ---      ---       pRxPhyStatus
      00FF3D8AH   BLOCK     CODE     NEAR LAB  LVL=1
      00FF3D8AH   LINE      ---      ---       #100
      00FF3D97H   LINE      ---      ---       #101
      00FF3D9BH   LINE      ---      ---       #103
      00FF3D9FH   LINE      ---      ---       #104
      00FF3DAAH   LINE      ---      ---       #106
L251 LINKER/LOCATER V4.66.93.0                                                        04/08/2024  14:48:14  PAGE 195


      00FF3DB2H   LINE      ---      ---       #112
      WR4         REGSYM    ---      WORD      rxPktLength
      R15         REGSYM    ---      BYTE      retValue
      WR4         REGSYM    ---      WORD      offset
      ---         BLOCKEND  CODE     ---       LVL=1
      00FF3DB4H   LINE      ---      ---       #113
      00FF3DB4H   LINE      CODE     ---       #113

      ---         MODULE    ---      ---       hal_rf
      00FF8F8AH   PUBLIC    CODE     ---       HALRF_AgcSet
      00FFC073H   PUBLIC    CODE     ---       HALRF_TxPwrSet
      00FFC129H   PUBLIC    CODE     ---       HALRF_TxPwrCompChUpdat
      00FF68EAH   PUBLIC    CODE     ---       HALRF_TxPwrCompSet
      00FF6958H   PUBLIC    CODE     ---       HALRF_TxPwrChCompSet
      00FF69DBH   PUBLIC    CODE     ---       HALRF_TxPwrChSegSet
      00FFC0BEH   PUBLIC    CODE     ---       HALRF_TxPwrRptGet
      00FFC4F8H   PUBLIC    CODE     ---       HALRF_TemperatureRptGet
      00FFC50FH   PUBLIC    CODE     ---       HALRF_VoltageRptGet
      00FFC526H   PUBLIC    CODE     ---       HALRF_RssiOffsetSet
      00FFAFB6H   PUBLIC    CODE     ---       HALRF_AllPathDisable
      00FF690DH   PUBLIC    CODE     ---       HALRF_TxPwrCompUpdate
      0000B667H   PUBLIC    EDATA    ---       txPwrCtrlArray

      00FF8F8AH   BLOCK     CODE     ---       LVL=0
      00FF8F8AH   LINE      ---      ---       #32
      00FF8F8AH   LINE      ---      ---       #40
      00FF8F8EH   LINE      ---      ---       #41
      00FF8F92H   LINE      ---      ---       #42
      00FF8F96H   LINE      ---      ---       #43
      00FF8F9AH   LINE      ---      ---       #46
      WR6         REGSYM    ---      INT       type
      R3          REGSYM    ---      BYTE      lnaGain
      R5          REGSYM    ---      BYTE      tiaGain
      R4          REGSYM    ---      BYTE      vgaGain
      ---         BLOCKEND  ---      ---       LVL=0

      00FFC073H   BLOCK     CODE     ---       LVL=0
      00FFC073H   LINE      ---      ---       #50
      00FFC07DH   LINE      ---      ---       #56
      WR30        REGSYM    ---      INT       rfkBand
      WR8         REGSYM    ---      INT       modem
      R15         REGSYM    ---      BYTE      gainTab
      R10         REGSYM    ---      BYTE      offset
      00FFC07DH   BLOCK     CODE     NEAR LAB  LVL=1
      00FFC07DH   LINE      ---      ---       #58
      00FFC08BH   LINE      ---      ---       #60
      00FFC093H   LINE      ---      ---       #62
      00FFC097H   LINE      ---      ---       #63
      00FFC09BH   LINE      ---      ---       #69
      00FFC0AFH   LINE      ---      ---       #71
      00FFC0B2H   LINE      ---      ---       #72
      REG=14      REGSYM    ---      ---       pTxPwrCtrl
      ---         BLOCKEND  CODE     ---       LVL=1
      ---         BLOCKEND  CODE     ---       LVL=0

      00FFC129H   BLOCK     CODE     ---       LVL=0
      00FFC129H   LINE      ---      ---       #77
      00FFC12BH   LINE      ---      ---       #80
      DR28        REGSYM    ---      DWORD     freq
      00FFC12BH   BLOCK     CODE     NEAR LAB  LVL=1
      00FFC12BH   LINE      ---      ---       #84
      00FFC12DH   LINE      ---      ---       #86
      00FFC12DH   LINE      ---      ---       #88
      00FFC139H   LINE      ---      ---       #89
      00FFC143H   LINE      ---      ---       #91
L251 LINKER/LOCATER V4.66.93.0                                                        04/08/2024  14:48:14  PAGE 196


      00FFC14BH   LINE      ---      ---       #93
      00FFC14DH   LINE      ---      ---       #95
      00FFC164H   LINE      ---      ---       #96
      00FFC164H   LINE      ---      ---       #97
      00FFC16BH   LINE      ---      ---       #99
      00FFC173H   LINE      ---      ---       #100
      00FFC175H   LINE      ---      ---       #101
      REG=6       REGSYM    ---      ---       pChSeg
      R6          REGSYM    ---      BYTE      segIdx
      R7          REGSYM    ---      BYTE      updateIdx
      ---         BLOCKEND  CODE     ---       LVL=1
      00FFC17AH   LINE      ---      ---       #103
      00FFC17AH   LINE      CODE     ---       #103

      00FF690DH   BLOCK     CODE     ---       LVL=0
      00FF690DH   LINE      ---      ---       #105
      00FF690FH   LINE      ---      ---       #108
      R6          REGSYM    ---      BYTE      modemType
      00FF690FH   BLOCK     CODE     NEAR LAB  LVL=1
      00FF690FH   LINE      ---      ---       #113
      00FF6918H   LINE      ---      ---       #116
      00FF691AH   LINE      ---      ---       #118
      00FF6920H   LINE      ---      ---       #119
      00FF6926H   LINE      ---      ---       #120
      00FF6932H   LINE      ---      ---       #121
      00FF6938H   LINE      ---      ---       #122
      00FF693EH   LINE      ---      ---       #123
      00FF6944H   LINE      ---      ---       #124
      00FF6948H   LINE      ---      ---       #125
      00FF6950H   LINE      ---      ---       #126
      R10         REGSYM    ---      BYTE      segIdx
      WR4         REGSYM    ---      INT       tempValue
      REG=3       REGSYM    ---      ---       pTxPwrCtrl
      ---         BLOCKEND  CODE     ---       LVL=1
      00FF6957H   LINE      ---      ---       #128
      00FF6957H   LINE      CODE     ---       #128

      00FF68EAH   BLOCK     CODE     ---       LVL=0
      00FF68EAH   LINE      ---      ---       #130
      00FF68ECH   LINE      ---      ---       #136
      R1          REGSYM    ---      CHAR      txPwrOffset
      R2          REGSYM    ---      BYTE      txPolyGain
      R3          REGSYM    ---      BYTE      txPaPwPre
      R10         REGSYM    ---      BYTE      modemType
      00FF68ECH   BLOCK     CODE     NEAR LAB  LVL=1
      00FF68ECH   LINE      ---      ---       #139
      00FF68F5H   LINE      ---      ---       #142
      00FF68FDH   LINE      ---      ---       #143
      00FF6901H   LINE      ---      ---       #144
      00FF6905H   LINE      ---      ---       #145
      00FF6909H   LINE      ---      ---       #146
      REG=4       REGSYM    ---      ---       pTxPwrCtrl
      ---         BLOCKEND  CODE     ---       LVL=1
      ---         BLOCKEND  CODE     ---       LVL=0

      00FF6958H   BLOCK     CODE     ---       LVL=0
      00FF6958H   LINE      ---      ---       #150
      00FF695EH   LINE      ---      ---       #154
      REG=2       REGSYM    ---      ---       pTxPwrOffset
      R15         REGSYM    ---      BYTE      modemType
      00FF695EH   BLOCK     CODE     NEAR LAB  LVL=1
      00FF695EH   LINE      ---      ---       #157
      00FF6967H   LINE      ---      ---       #160
      00FF696FH   LINE      ---      ---       #161
      00FF697AH   LINE      ---      ---       #162
L251 LINKER/LOCATER V4.66.93.0                                                        04/08/2024  14:48:14  PAGE 197


      REG=3       REGSYM    ---      ---       pTxPwrCtrl
      ---         BLOCKEND  CODE     ---       LVL=1
      00FF697EH   LINE      ---      ---       #164
      00FF697EH   LINE      CODE     ---       #164

      00FF69DBH   BLOCK     CODE     ---       LVL=0
      00FF69DBH   LINE      ---      ---       #166
      00FF69DDH   LINE      ---      ---       #170
      REG=1       REGSYM    ---      ---       pChSeg
      R5          REGSYM    ---      BYTE      modemType
      00FF69DDH   BLOCK     CODE     NEAR LAB  LVL=1
      00FF69DDH   LINE      ---      ---       #173
      00FF69E6H   LINE      ---      ---       #176
      00FF69EEH   LINE      ---      ---       #177
      REG=3       REGSYM    ---      ---       pTxPwrCtrl
      ---         BLOCKEND  CODE     ---       LVL=1
      ---         BLOCKEND  CODE     ---       LVL=0

      00FFC0BEH   BLOCK     CODE     ---       LVL=0
      00FFC0BEH   LINE      ---      ---       #181
      00FFC0C4H   LINE      ---      ---       #185
      WR30        REGSYM    ---      INT       rfkBand
      REG=4       REGSYM    ---      ---       pTxPwrRpt
      00FFC0C4H   BLOCK     CODE     NEAR LAB  LVL=1
      00FFC0C4H   LINE      ---      ---       #191
      00FFC0CAH   LINE      ---      ---       #192
      00FFC0D8H   LINE      ---      ---       #194
      00FFC0DEH   LINE      ---      ---       #195
      00FFC0E4H   LINE      ---      ---       #197
      00FFC0E8H   LINE      ---      ---       #200
      00FFC0ECH   LINE      ---      ---       #204
      00FFC0EEH   LINE      ---      ---       #206
      00FFC0FCH   LINE      ---      ---       #207
      00FFC101H   LINE      ---      ---       #208
      00FFC103H   LINE      ---      ---       #209
      00FFC108H   LINE      ---      ---       #210
      00FFC10BH   LINE      ---      ---       #211
      00FFC112H   LINE      ---      ---       #212
      00FFC119H   LINE      ---      ---       #213
      00FFC11BH   LINE      ---      ---       #216
      WR0         REGSYM    ---      INT       modem
      R10         REGSYM    ---      BYTE      segIdx
      R15         REGSYM    ---      CHAR      txPwrIdx
      R7          REGSYM    ---      CHAR      tempVal
      REG=14      REGSYM    ---      ---       pTxPwrCtrl
      ---         BLOCKEND  CODE     ---       LVL=1
      00FFC126H   LINE      ---      ---       #217
      00FFC126H   LINE      CODE     ---       #217

      00FFC526H   BLOCK     CODE     ---       LVL=0
      00FFC526H   LINE      ---      ---       #221
      00FFC528H   LINE      ---      ---       #225
      WR6         REGSYM    ---      INT       rfkBand
      R10         REGSYM    ---      BYTE      offset
      00FFC528H   BLOCK     CODE     NEAR LAB  LVL=1
      00FFC528H   LINE      ---      ---       #227
      00FFC530H   LINE      ---      ---       #229
      00FFC538H   LINE      ---      ---       #230
      REG=4       REGSYM    ---      ---       pRssiCtrl
      ---         BLOCKEND  CODE     ---       LVL=1
      00FFC53CH   LINE      ---      ---       #231
      00FFC53CH   LINE      CODE     ---       #231

      00FFC4F8H   BLOCK     CODE     ---       LVL=0
      00FFC4F8H   LINE      ---      ---       #233
L251 LINKER/LOCATER V4.66.93.0                                                        04/08/2024  14:48:14  PAGE 198


      00FFC4FCH   LINE      ---      ---       #238
      00FFC507H   LINE      ---      ---       #239
      00FFC50EH   LINE      ---      ---       #240
      REG=4       REGSYM    ---      ---       pTimeStamp
      REG=5       REGSYM    ---      ---       pValue
      ---         BLOCKEND  ---      ---       LVL=0

      00FFC50FH   BLOCK     CODE     ---       LVL=0
      00FFC50FH   LINE      ---      ---       #242
      00FFC513H   LINE      ---      ---       #247
      00FFC51EH   LINE      ---      ---       #248
      00FFC525H   LINE      ---      ---       #249
      REG=4       REGSYM    ---      ---       pTimeStamp
      REG=5       REGSYM    ---      ---       pValue
      ---         BLOCKEND  ---      ---       LVL=0

      00FFAFB6H   BLOCK     CODE     ---       LVL=0
      00FFAFB6H   LINE      ---      ---       #252
      00FFAFB6H   LINE      ---      ---       #254
      00FFAFC2H   LINE      ---      ---       #256
      00FFAFC7H   LINE      ---      ---       #257
      00FFAFCCH   LINE      ---      ---       #258
      00FFAFD1H   LINE      ---      ---       #260
      00FFAFDDH   LINE      ---      ---       #261
      00FFAFE2H   LINE      ---      ---       #262
      00FFAFE7H   LINE      ---      ---       #268
      ---         BLOCKEND  ---      ---       LVL=0

      ---         MODULE    ---      ---       hal_rfdb

      ---         MODULE    ---      ---       hal_sec
      00FF365EH   PUBLIC    CODE     ---       HALSEC_AesKeySet
      00FF3D69H   PUBLIC    CODE     ---       HALSEC_AesKeyOnlySet
      00FF3D5CH   PUBLIC    CODE     ---       HALSEC_NonceOnlySet
      00FFC53DH   PUBLIC    CODE     ---       HALSEC_AesLevelOnlySet
      00FFC567H   PUBLIC    CODE     ---       HALSEC_AesSet
      00FFC5DFH   PUBLIC    CODE     ---       HALSEC_AesTxSet
      0000B61BH   PUBLIC    EDATA    BYTE      ?HALSEC_AesSet?BYTE

      00FF365EH   BLOCK     CODE     ---       LVL=0
      00FF365EH   LINE      ---      ---       #23
      00FF3665H   LINE      ---      ---       #35
      00FF3678H   LINE      ---      ---       #39
      00FF3685H   LINE      ---      ---       #40
      WR2         REGSYM    ---      INT       aesKeyType
      REG=0       REGSYM    ---      ---       pAesKey
      REG=7       REGSYM    ---      ---       pNonce
      ---         BLOCKEND  ---      ---       LVL=0

      00FF3D69H   BLOCK     CODE     ---       LVL=0
      00FF3D69H   LINE      ---      ---       #42
      00FF3D6CH   LINE      ---      ---       #53
      WR2         REGSYM    ---      INT       aesKeyType
      REG=0       REGSYM    ---      ---       pAesKey
      ---         BLOCKEND  ---      ---       LVL=0

      00FF3D50H   BLOCK     CODE     ---       LVL=0
      00FF3D5CH   LINE      ---      ---       #57
      00FF3D5EH   LINE      ---      ---       #63
      00FF3D50H   SYMBOL    CODE     NEAR LAB  ?L?COM0034
      REG=2       REGSYM    ---      ---       pNonce
      ---         BLOCKEND  ---      ---       LVL=0

      00FFC53DH   BLOCK     CODE     ---       LVL=0
      00FFC53DH   LINE      ---      ---       #66
L251 LINKER/LOCATER V4.66.93.0                                                        04/08/2024  14:48:14  PAGE 199


      00FFC53FH   LINE      ---      ---       #74
      00FFC55BH   LINE      ---      ---       #77
      WR6         REGSYM    ---      INT       aesLevel
      R10         REGSYM    ---      BYTE      bLoopback
      ---         BLOCKEND  ---      ---       LVL=0

      00FFC567H   BLOCK     CODE     ---       LVL=0
      00FFC567H   LINE      ---      ---       #80
      00FFC56BH   LINE      ---      ---       #93
      00FFC589H   LINE      ---      ---       #96
      00FFC59EH   LINE      ---      ---       #100
      00FFC5A9H   LINE      ---      ---       #104
      00FFC5B4H   LINE      ---      ---       #107
      00FFC5C1H   LINE      ---      ---       #108
      00FFC5CEH   LINE      ---      ---       #111
      00FFC5DEH   LINE      ---      ---       #112
      WR6         REGSYM    ---      INT       aesLevel
      WR8         REGSYM    ---      INT       aesMode
      R10         REGSYM    ---      BYTE      bLoopback
      WR2         REGSYM    ---      WORD      aDataLength
      WR0         REGSYM    ---      WORD      mDataLength
      0000B624H   SYMBOL    EDATA    WORD      bypassLen0
      0000B626H   SYMBOL    EDATA    WORD      bypassLen1
      ---         BLOCKEND  ---      ---       LVL=0

      00FFC5DFH   BLOCK     CODE     ---       LVL=0
      00FFC5DFH   LINE      ---      ---       #114
      00FFC5E3H   LINE      ---      ---       #121
      00FFC5EEH   LINE      ---      ---       #125
      00FFC5F9H   LINE      ---      ---       #126
      WR0         REGSYM    ---      WORD      aDataLength
      WR2         REGSYM    ---      WORD      mDataLength
      ---         BLOCKEND  ---      ---       LVL=0

      ---         MODULE    ---      ---       hal_rfk
      00FFC5FAH   PUBLIC    CODE     ---       HALRFK_Calibration
      00FFCAFAH   PUBLIC    CODE     ---       HALRFK_kValueSet?_
      00FFCB52H   PUBLIC    CODE     ---       HALRFK_kValueSet2Hw
      00FFCBDFH   PUBLIC    CODE     ---       HALRFK_kValueGet?_

      00FFC5FAH   BLOCK     CODE     ---       LVL=0
      00FFC5FAH   LINE      ---      ---       #40
      00FFC5FCH   LINE      ---      ---       #41
      00FFC5FCH   BLOCK     CODE     NEAR LAB  LVL=1
      00FFC5FCH   LINE      ---      ---       #42
      00FFC602H   LINE      ---      ---       #43
      00FFC608H   LINE      ---      ---       #44
      00FFC614H   LINE      ---      ---       #51
      00FFC618H   LINE      ---      ---       #55
      00FFC61EH   LINE      ---      ---       #56
      00FFC61EH   LINE      ---      ---       #68
      00FFC621H   LINE      ---      ---       #71
      00FFC628H   LINE      ---      ---       #76
      00FFC62DH   LINE      ---      ---       #103
      00FFC62FH   LINE      ---      ---       #105
      00FFC633H   LINE      ---      ---       #106
      00FFC636H   LINE      ---      ---       #107
      00FFC63DH   LINE      ---      ---       #108
      00FFC63FH   LINE      ---      ---       #109
      00FFC641H   LINE      ---      ---       #110
      00FFC649H   LINE      ---      ---       #115
      00FFC64EH   LINE      ---      ---       #125
      00FFC653H   LINE      ---      ---       #143
      00FFC655H   LINE      ---      ---       #145
      00FFC659H   LINE      ---      ---       #146
L251 LINKER/LOCATER V4.66.93.0                                                        04/08/2024  14:48:14  PAGE 200


      00FFC65CH   LINE      ---      ---       #147
      00FFC665H   LINE      ---      ---       #148
      00FFC667H   LINE      ---      ---       #149
      00FFC669H   LINE      ---      ---       #150
      00FFC671H   LINE      ---      ---       #155
      00FFC677H   LINE      ---      ---       #157
      00FFC67BH   LINE      ---      ---       #158
      00FFC67EH   LINE      ---      ---       #159
      00FFC687H   LINE      ---      ---       #160
      00FFC689H   LINE      ---      ---       #161
      00FFC68BH   LINE      ---      ---       #162
      00FFC693H   LINE      ---      ---       #167
      00FFC698H   LINE      ---      ---       #174
      WR14        REGSYM    ---      INT       rfBand
      WR6         REGSYM    ---      INT       rfkBand
      REG=6       REGSYM    ---      ---       pRfkCtrl
      0000B38CH   SYMBOL    EDATA    ---       sHalrfkParaBackup
      ---         BLOCKEND  CODE     ---       LVL=1
      00FFC69FH   LINE      ---      ---       #187
      00FFC69FH   LINE      CODE     ---       #187

      00FFCAFAH   BLOCK     CODE     ---       LVL=0
      00FFCAFAH   LINE      ---      ---       #218
      00FFCB00H   LINE      ---      ---       #226
      WR0         REGSYM    ---      INT       rfkBand
      R11         REGSYM    ---      BYTE      status
      R10         REGSYM    ---      BYTE      rxFilt
      REG=1       REGSYM    ---      ---       pTxLo
      FFFFFFFDH   STKSYM    ---      ---       pTxSb
      00FFCB00H   BLOCK     CODE     NEAR LAB  LVL=1
      00FFCB00H   LINE      ---      ---       #227
      00FFCB0CH   LINE      ---      ---       #231
      00FFCB0FH   LINE      ---      ---       #232
      00FFCB13H   LINE      ---      ---       #239
      00FFCB13H   LINE      ---      ---       #241
      00FFCB1AH   LINE      ---      ---       #242
      00FFCB22H   LINE      ---      ---       #243
      00FFCB2DH   LINE      ---      ---       #244
      00FFCB39H   LINE      ---      ---       #245
      00FFCB45H   LINE      ---      ---       #248
      00FFCB4FH   LINE      ---      ---       #249
      REG=4       REGSYM    ---      ---       pRfkCtrl
      ---         BLOCKEND  CODE     ---       LVL=1
      00FFCB51H   LINE      ---      ---       #250
      00FFCB51H   LINE      CODE     ---       #250

      00FFCB52H   BLOCK     CODE     ---       LVL=0
      00FFCB52H   LINE      ---      ---       #253
      00FFCB52H   LINE      ---      ---       #254
      00FFCB52H   BLOCK     CODE     NEAR LAB  LVL=1
      00FFCB52H   LINE      ---      ---       #255
      00FFCB5FH   LINE      ---      ---       #258
      00FFCB67H   LINE      ---      ---       #263
      00FFCB6BH   LINE      ---      ---       #265
      00FFCB6DH   LINE      ---      ---       #271
      00FFCB78H   LINE      ---      ---       #273
      00FFCB78H   LINE      ---      ---       #292
      00FFCB7DH   LINE      ---      ---       #294
      00FFCB88H   LINE      ---      ---       #295
      00FFCB8CH   LINE      ---      ---       #296
      00FFCB8EH   LINE      ---      ---       #299
      00FFCB96H   LINE      ---      ---       #300
      00FFCB9DH   LINE      ---      ---       #301
      00FFCB9DH   LINE      ---      ---       #303
      00FFCBA2H   LINE      ---      ---       #305
L251 LINKER/LOCATER V4.66.93.0                                                        04/08/2024  14:48:14  PAGE 201


      00FFCBADH   LINE      ---      ---       #306
      00FFCBB8H   LINE      ---      ---       #307
      00FFCBC3H   LINE      ---      ---       #308
      00FFCBC4H   LINE      ---      ---       #311
      00FFCBCDH   LINE      ---      ---       #312
      00FFCBD5H   LINE      ---      ---       #313
      00FFCBDEH   LINE      ---      ---       #314
      00FFCBDEH   LINE      ---      ---       #319
      REG=3       REGSYM    ---      ---       pRfkCtrl
      ---         BLOCKEND  CODE     ---       LVL=1
      00FFCBDEH   LINE      ---      ---       #321
      00FFCBDEH   LINE      CODE     ---       #321

      00FFCBDFH   BLOCK     CODE     ---       LVL=0
      00FFCBDFH   LINE      ---      ---       #324
      00FFCBE7H   LINE      ---      ---       #331
      REG=5       REGSYM    ---      ---       pStatus
      REG=0       REGSYM    ---      ---       pRxFilt
      REG=1       REGSYM    ---      ---       pRxTiaDc
      REG=7       REGSYM    ---      ---       pTxLo
      FFFFFFF9H   STKSYM    ---      ---       pTxSb
      00FFCBE7H   BLOCK     CODE     NEAR LAB  LVL=1
      00FFCBE7H   LINE      ---      ---       #332
      00FFCBF4H   LINE      ---      ---       #334
      00FFCBFAH   LINE      ---      ---       #335
      00FFCC01H   LINE      ---      ---       #336
      00FFCC10H   LINE      ---      ---       #337
      00FFCC1FH   LINE      ---      ---       #338
      REG=6       REGSYM    ---      ---       pRfkCtrl
      ---         BLOCKEND  CODE     ---       LVL=1
      00FFCC30H   LINE      ---      ---       #339
      00FFCC30H   LINE      CODE     ---       #339

      ---         MODULE    ---      ---       hal_io
      00FFCC33H   PUBLIC    CODE     ---       HALIO_dioSet
      00000080H   SFRSYM    DATA     BYTE      P0

      00FFCC33H   BLOCK     CODE     ---       LVL=0
      00FFCC33H   LINE      ---      ---       #24
      00FFCC33H   LINE      ---      ---       #33
      00FFCC51H   LINE      ---      ---       #34
      00FFCC5CH   LINE      ---      ---       #53
      00FFCC5FH   LINE      ---      ---       #54
      ---         BLOCKEND  ---      ---       LVL=0

      ---         MODULE    ---      ---       hal_init
      00FFCC60H   PUBLIC    CODE     ---       HAL_ParaInit
      00FFCD49H   PUBLIC    CODE     ---       HAL_ColdInit
      00FFCD6AH   PUBLIC    CODE     ---       HAL_DftParaGet
      0000AEEBH   PUBLIC    EDATA    ---       pHalFwCfg
      0000AEEFH   PUBLIC    EDATA    ---       pHalRegPatch
      0000AEF3H   PUBLIC    EDATA    ---       pHalHwCfg
      0000AEF7H   PUBLIC    EDATA    ---       pHalMdmDefaultCfg
      0000AEFBH   PUBLIC    EDATA    ---       pHalRfDefaultCfg2G
      0000AEFFH   PUBLIC    EDATA    ---       pHalRfDefaultCfgSubG
      0000AF03H   PUBLIC    EDATA    ---       pHalPmuDefaultCfg2G
      0000AF07H   PUBLIC    EDATA    ---       pHalPmuDefaultCfgSubG
      0000AF0BH   PUBLIC    EDATA    ---       pHalBmuMemSizeHwRxq
      0000AF0FH   PUBLIC    EDATA    ---       pHalBmuMemSizeHwSwRxq
      0000AF13H   PUBLIC    EDATA    ---       pHalHwPara
      0000AF17H   PUBLIC    EDATA    ---       pHalHwTab
      0000AF1BH   PUBLIC    EDATA    ---       sHalCtrl
      0000B049H   PUBLIC    EDATA    ---       sHalPktCfg
      0000B078H   PUBLIC    EDATA    ---       pHalPktCfg
      0000B07AH   PUBLIC    EDATA    ---       sHalFuncHdlr
L251 LINKER/LOCATER V4.66.93.0                                                        04/08/2024  14:48:14  PAGE 202


      0000B0BEH   PUBLIC    EDATA    ---       pHalPrtclCfg
      00FF125CH   PUBLIC    HCONST   ---       sHalParaIndDefault

      00FFCD6AH   BLOCK     CODE     ---       LVL=0
      00FFCD6AH   LINE      ---      ---       #263
      00FFCD6CH   LINE      ---      ---       #266
      WR2         REGSYM    ---      INT       halType
      00FFCD6CH   BLOCK     CODE     NEAR LAB  LVL=1
      00FFCD6CH   LINE      ---      ---       #274
      00FFCD74H   LINE      ---      ---       #276
      REG=1       REGSYM    ---      ---       pHalParaInd
      ---         BLOCKEND  CODE     ---       LVL=1
      00FFCD8AH   LINE      ---      ---       #277
      00FFCD8AH   LINE      CODE     ---       #277

      00FFCC60H   BLOCK     CODE     ---       LVL=0
      00FFCC60H   LINE      ---      ---       #279
      00FFCC60H   LINE      ---      ---       #296
      00FFCC6EH   LINE      ---      ---       #297
      00FFCC7CH   LINE      ---      ---       #306
      00FFCC8EH   LINE      ---      ---       #317
      00FFCCA0H   LINE      ---      ---       #334
      00FFCCB2H   LINE      ---      ---       #337
      00FFCCC4H   LINE      ---      ---       #356
      00FFCCD6H   LINE      ---      ---       #359
      00FFCCE8H   LINE      ---      ---       #373
      00FFCCFAH   LINE      ---      ---       #374
      00FFCD0CH   LINE      ---      ---       #383
      00FFCD1EH   LINE      ---      ---       #391
      00FFCD30H   LINE      ---      ---       #399
      00FFCD42H   LINE      ---      ---       #407
      00FFCD48H   LINE      ---      ---       #410
      ---         BLOCKEND  ---      ---       LVL=0

      00FFCD49H   BLOCK     CODE     ---       LVL=0
      00FFCD49H   LINE      ---      ---       #412
      00FFCD49H   LINE      ---      ---       #420
      00FFCD4FH   LINE      ---      ---       #421
      00FFCD53H   LINE      ---      ---       #422
      00FFCD69H   LINE      ---      ---       #423
      ---         BLOCKEND  ---      ---       LVL=0

      ---         MODULE    ---      ---       hal_patch

      ---         MODULE    ---      ---       hal_prtcl
      00FF130EH   PUBLIC    HCONST   ---       sHalPrtclCfg

      ---         MODULE    ---      ---       hal_rt569mp_init
      00FFAC92H   PUBLIC    CODE     ---       HAL_HwInit

      00FFAC92H   BLOCK     CODE     ---       LVL=0
      00FFAC92H   LINE      ---      ---       #27
      00FFACA0H   LINE      ---      ---       #34
      00FFACA4H   LINE      ---      ---       #35
      00FFACA8H   LINE      ---      ---       #36
      00FFACACH   LINE      ---      ---       #145
      00FFACBBH   LINE      ---      ---       #148
      00FFACCBH   LINE      ---      ---       #151
      00FFACCBH   LINE      ---      ---       #152
      00FFACDAH   LINE      ---      ---       #153
      00FFACE9H   LINE      ---      ---       #154
      00FFACF5H   LINE      ---      ---       #158
      00FFACF9H   LINE      ---      ---       #159
      00FFAD04H   LINE      ---      ---       #162
      00FFAD0DH   LINE      ---      ---       #164
L251 LINKER/LOCATER V4.66.93.0                                                        04/08/2024  14:48:14  PAGE 203


      00FFAD0FH   LINE      ---      ---       #168
      00FFAD0FH   LINE      ---      ---       #169
      00FFAD1EH   LINE      ---      ---       #170
      00FFAD2DH   LINE      ---      ---       #171
      00FFAD39H   LINE      ---      ---       #174
      00FFAD45H   LINE      ---      ---       #175
      00FFAD51H   LINE      ---      ---       #176
      00FFAD56H   LINE      ---      ---       #177
      00FFAD62H   LINE      ---      ---       #178
      00FFAD6BH   LINE      ---      ---       #179
      00FFAD77H   LINE      ---      ---       #180
      00FFAD83H   LINE      ---      ---       #182
      00FFAD9AH   LINE      ---      ---       #191
      00FFADA6H   LINE      ---      ---       #192
      00FFADB4H   LINE      ---      ---       #193
      00FFADB9H   LINE      ---      ---       #194
      00FFADC5H   LINE      ---      ---       #196
      00FFADCDH   LINE      ---      ---       #198
      00FFADD6H   LINE      ---      ---       #199
      00FFADE2H   LINE      ---      ---       #200
      00FFADEEH   LINE      ---      ---       #203
      00FFADFAH   LINE      ---      ---       #204
      00FFAE08H   LINE      ---      ---       #205
      00FFAE14H   LINE      ---      ---       #206
      00FFAE22H   LINE      ---      ---       #210
      00FFAE30H   LINE      ---      ---       #211
      00FFAE3CH   LINE      ---      ---       #212
      00FFAE48H   LINE      ---      ---       #213
      00FFAE4FH   LINE      ---      ---       #241
      00FFAE57H   LINE      ---      ---       #243
      00FFAE57H   LINE      ---      ---       #244
      00FFAE63H   LINE      ---      ---       #245
      00FFAE71H   LINE      ---      ---       #246
      00FFAE71H   LINE      ---      ---       #247
      00FFAE71H   LINE      ---      ---       #249
      00FFAE71H   LINE      ---      ---       #251
      00FFAE71H   LINE      ---      ---       #254
      00FFAE77H   LINE      ---      ---       #257
      00FFAE7DH   LINE      ---      ---       #260
      00FFAE7FH   LINE      ---      ---       #263
      00FFAE95H   LINE      ---      ---       #275
      00FFAEA1H   LINE      ---      ---       #290
      00FFAEBFH   LINE      ---      ---       #292
      00FFAECAH   LINE      ---      ---       #295
      00FFAECCH   LINE      ---      ---       #301
      00FFAEDDH   LINE      ---      ---       #304
      00FFAEE0H   LINE      ---      ---       #307
      00FFAEEAH   LINE      ---      ---       #318
      00FFAEF3H   LINE      ---      ---       #319
      00FFAEFBH   LINE      ---      ---       #325
      0000B628H   SYMBOL    EDATA    INT       rfBand
      WR14        REGSYM    ---      INT       rfkBand
      WR12        REGSYM    ---      INT       modem
      0000B62AH   SYMBOL    EDATA    INT       clkMode
      ---         BLOCKEND  ---      ---       LVL=0

      ---         MODULE    ---      ---       rt569mp_mem
      00FF13CBH   PUBLIC    HCONST   ---       pMemMapSharedBuffer
      00FF13CDH   PUBLIC    HCONST   ---       pMemMapExtData
      00FF13CFH   PUBLIC    HCONST   ---       pMemMapBmuLinkTable

      ---         MODULE    ---      ---       rt569mp_reg
      00FF0006H   PUBLIC    HCONST   ---       pBmuMacIntrSts

      ---         MODULE    ---      ---       hal_rt569mp_rfk
L251 LINKER/LOCATER V4.66.93.0                                                        04/08/2024  14:48:14  PAGE 204


      00FFCD8BH   PUBLIC    CODE     ---       HALRFK_ParaBackUp
      00FFC8B1H   PUBLIC    CODE     ---       HALRFK_ParaRecover
      00FFC6D1H   PUBLIC    CODE     ---       HALRFK_SingleToneEnable
      00FFC6A2H   PUBLIC    CODE     ---       HALRFK_SingleToneDisable
      00FFC6EEH   PUBLIC    CODE     ---       HALRFK_PllForLokSet
      00FFCEFCH   PUBLIC    CODE     ---       HALRFK_TxLok
      00FFC70EH   PUBLIC    CODE     ---       HALRFK_PllForSideBandKSet
      00FFCFF7H   PUBLIC    CODE     ---       HALRFK_TxSbk
      00FFC954H   PUBLIC    CODE     ---       HALRFK_LbPathEnable
      00FFD0C5H   PUBLIC    CODE     ---       HALRFK_LbPathDisable
      00FF2EF9H   PUBLIC    CODE     ---       HALRFK_LbTrxEnable
      00FFC6AFH   PUBLIC    CODE     ---       HALRFK_LbTrxDisable
      00FFC72EH   PUBLIC    CODE     ---       HALRFK_PllForFiltKSet
      00FFD0ECH   PUBLIC    CODE     ---       HALRFK_RxFiltK
      00FFD194H   PUBLIC    CODE     ---       HALRFK_RxPathEnable
      00FFD204H   PUBLIC    CODE     ---       HALRFK_RxPathDisable
      00FFD22FH   PUBLIC    CODE     ---       HALRFK_RxEnable
      00FFD2AEH   PUBLIC    CODE     ---       HALRFK_RxDisable
      00FFCA0AH   PUBLIC    CODE     ---       HALRFK_RingPllSet
      00FFCF8BH   PUBLIC    CODE     ---       HALRFK_RssiGet
      00FF8FA3H   PUBLIC    CODE     ---       HALRFK_RfGainCfg
      00FFC782H   PUBLIC    CODE     ---       HALRFK_RfPllCfg
      00FFC801H   PUBLIC    CODE     ---       HALRFK_RfTxCfg
      00FFCE87H   PUBLIC    CODE     ---       HALRFK_RxBwCfg
      0000B62CH   PUBLIC    EDATA    ---       sHalRfkCtrl
      0000B641H   PUBLIC    EDATA    BYTE      ?HALRFK_RingPllSet?BYTE

      00FFCA0AH   BLOCK     CODE     ---       LVL=0
      00FFCA0AH   LINE      ---      ---       #211
      00FFCA0CH   LINE      ---      ---       #225
      00FFCA1FH   LINE      ---      ---       #226
      00FFCA32H   LINE      ---      ---       #227
      00FFCA46H   LINE      ---      ---       #228
      00FFCA5CH   LINE      ---      ---       #229
      00FFCA70H   LINE      ---      ---       #230
      00FFCA82H   LINE      ---      ---       #231
      00FFCA97H   LINE      ---      ---       #232
      00FFCAADH   LINE      ---      ---       #233
      00FFCAC3H   LINE      ---      ---       #234
      00FFCAC9H   LINE      ---      ---       #235
      00FFCADCH   LINE      ---      ---       #237
      00FFCAF9H   LINE      ---      ---       #238
      WR30        REGSYM    ---      INT       band
      R11         REGSYM    ---      BYTE      divNum
      R9          REGSYM    ---      BYTE      divNum2
      R10         REGSYM    ---      BYTE      calDiv
      R3          REGSYM    ---      BYTE      div2ClkRing
      R2          REGSYM    ---      BYTE      manuBank
      R1          REGSYM    ---      BYTE      bank1
      R0          REGSYM    ---      BYTE      iniBank
      0000B64AH   SYMBOL    EDATA    BYTE      bypRst
      0000B64BH   SYMBOL    EDATA    BYTE      tuneBuff
      0000B64CH   SYMBOL    EDATA    BYTE      calBuf
      ---         BLOCKEND  ---      ---       LVL=0

      00FFCF7FH   BLOCK     CODE     ---       LVL=0
      00FFCF8BH   LINE      ---      ---       #240
      00FFCF91H   LINE      ---      ---       #244
      00FFCF7FH   SYMBOL    CODE     NEAR LAB  ?L?COM0029
      WR4         REGSYM    ---      WORD      extraDelay
      R15         REGSYM    ---      BYTE      rssiAvg
      00FFCF91H   BLOCK     CODE     NEAR LAB  LVL=1
      00FFCF91H   LINE      ---      ---       #251
      00FFCF9DH   LINE      ---      ---       #253
      00FFCFA4H   LINE      ---      ---       #255
L251 LINKER/LOCATER V4.66.93.0                                                        04/08/2024  14:48:14  PAGE 205


      00FFCFB0H   LINE      ---      ---       #258
      00FFCFB2H   LINE      ---      ---       #259
      00FFCFB6H   LINE      ---      ---       #261
      00FFCFBDH   LINE      ---      ---       #262
      00FFCFC8H   LINE      ---      ---       #263
      00FFCFD0H   LINE      ---      ---       #264
      00FFCFE7H   LINE      ---      ---       #266
      WR12        REGSYM    ---      INT       rssiAcc
      0000B676H   SYMBOL    EDATA    CHAR      rssiTemp
      R14         REGSYM    ---      BYTE      idx
      ---         BLOCKEND  CODE     ---       LVL=1
      00FFCFF4H   LINE      ---      ---       #267
      00FFCFF4H   LINE      CODE     ---       #267

      00FF8F9CH   BLOCK     CODE     ---       LVL=0
      00FF8FA3H   LINE      ---      ---       #269
      00FF8FA9H   LINE      ---      ---       #275
      00FF8FB7H   LINE      ---      ---       #276
      00FF8FCBH   LINE      ---      ---       #277
      00FF8FDBH   LINE      ---      ---       #278
      00FF8FE2H   LINE      ---      ---       #279
      00FF8F9CH   SYMBOL    CODE     NEAR LAB  ?L?COM0047
      R10         REGSYM    ---      BYTE      lnaGain
      R2          REGSYM    ---      BYTE      vgaGain
      R3          REGSYM    ---      BYTE      tiaGain
      ---         BLOCKEND  ---      ---       LVL=0

      00FFC782H   BLOCK     CODE     ---       LVL=0
      00FFC782H   LINE      ---      ---       #282
      00FFC788H   LINE      ---      ---       #291
      00FFC79BH   LINE      ---      ---       #292
      00FFC7B2H   LINE      ---      ---       #293
      00FFC7BDH   LINE      ---      ---       #294
      00FFC7D1H   LINE      ---      ---       #295
      00FFC7E5H   LINE      ---      ---       #296
      00FFC7ECH   LINE      ---      ---       #297
      R11         REGSYM    ---      BYTE      pllN
      R9          REGSYM    ---      BYTE      pllS
      WR0         REGSYM    ---      WORD      pllSDM
      R10         REGSYM    ---      BYTE      mod
      R3          REGSYM    ---      BYTE      mod46
      R2          REGSYM    ---      BYTE      selVco
      ---         BLOCKEND  ---      ---       LVL=0

      00FFC7EDH   BLOCK     CODE     ---       LVL=0
      00FFC801H   LINE      ---      ---       #315
      00FFC80BH   LINE      ---      ---       #326
      00FFC81EH   LINE      ---      ---       #327
      00FFC837H   LINE      ---      ---       #328
      00FFC84EH   LINE      ---      ---       #329
      00FFC862H   LINE      ---      ---       #330
      00FFC875H   LINE      ---      ---       #331
      00FFC885H   LINE      ---      ---       #332
      00FFC89FH   LINE      ---      ---       #333
      00FFC7EDH   SYMBOL    CODE     NEAR LAB  ?L?COM0014
      R11         REGSYM    ---      BYTE      regGainAttRefBle
      R8          REGSYM    ---      BYTE      gainPre
      R9          REGSYM    ---      BYTE      pwPa
      R0          REGSYM    ---      BYTE      pwD2s
      R1          REGSYM    ---      BYTE      pabPreSze
      R3          REGSYM    ---      BYTE      gainPa
      R2          REGSYM    ---      BYTE      pabPwPre
      R10         REGSYM    ---      BYTE      gainPaBit2
      ---         BLOCKEND  ---      ---       LVL=0

L251 LINKER/LOCATER V4.66.93.0                                                        04/08/2024  14:48:14  PAGE 206


      00FFCE87H   BLOCK     CODE     ---       LVL=0
      00FFCE87H   LINE      ---      ---       #342
      00FFCE87H   LINE      ---      ---       #345
      00FFCE90H   LINE      ---      ---       #346
      00FFCE9EH   LINE      ---      ---       #347
      00FFCEA5H   LINE      ---      ---       #351
      00FFCEB8H   LINE      ---      ---       #360
      00FFCECBH   LINE      ---      ---       #367
      00FFCEDEH   LINE      ---      ---       #373
      00FFCEE7H   LINE      ---      ---       #376
      00FFCEF3H   LINE      ---      ---       #377
      00FFCEFBH   LINE      ---      ---       #378
      ---         BLOCKEND  ---      ---       LVL=0

      00FFCD8BH   BLOCK     CODE     ---       LVL=0
      00FFCD8BH   LINE      ---      ---       #380
      00FFCD8FH   LINE      ---      ---       #392
      00FFCD9CH   LINE      ---      ---       #393
      00FFCDAAH   LINE      ---      ---       #394
      00FFCDB7H   LINE      ---      ---       #395
      00FFCDC2H   LINE      ---      ---       #396
      00FFCDCFH   LINE      ---      ---       #397
      00FFCDDCH   LINE      ---      ---       #398
      00FFCDEBH   LINE      ---      ---       #399
      00FFCDF6H   LINE      ---      ---       #400
      00FFCE03H   LINE      ---      ---       #404
      00FFCE10H   LINE      ---      ---       #405
      00FFCE1DH   LINE      ---      ---       #406
      00FFCE2BH   LINE      ---      ---       #407
      00FFCE3AH   LINE      ---      ---       #411
      00FFCE44H   LINE      ---      ---       #414
      00FFCE53H   LINE      ---      ---       #415
      00FFCE5EH   LINE      ---      ---       #416
      00FFCE69H   LINE      ---      ---       #417
      00FFCE7AH   LINE      ---      ---       #420
      00FFCE82H   LINE      ---      ---       #423
      00FFCE84H   LINE      ---      ---       #428
      REG=7       REGSYM    ---      ---       pPara
      ---         BLOCKEND  ---      ---       LVL=0

      00FFC8B1H   BLOCK     CODE     ---       LVL=0
      00FFC8B1H   LINE      ---      ---       #430
      00FFC8B5H   LINE      ---      ---       #435
      00FFC8BAH   LINE      ---      ---       #436
      00FFC8D2H   LINE      ---      ---       #442
      00FFC8F4H   LINE      ---      ---       #448
      00FFC8FEH   LINE      ---      ---       #451
      00FFC912H   LINE      ---      ---       #452
      00FFC91DH   LINE      ---      ---       #453
      00FFC928H   LINE      ---      ---       #454
      00FFC939H   LINE      ---      ---       #455
      REG=7       REGSYM    ---      ---       pPara
      ---         BLOCKEND  ---      ---       LVL=0

      00FFC6CDH   BLOCK     CODE     ---       LVL=0
      00FFC6D1H   LINE      ---      ---       #457
      00FFC6D3H   LINE      ---      ---       #463
      00FFC6DAH   LINE      ---      ---       #464
      00FFC6E1H   LINE      ---      ---       #467
      00FFC6EDH   LINE      ---      ---       #468
      00FFC6CDH   SYMBOL    CODE     NEAR LAB  ?L?COM004C
      R11         REGSYM    ---      BYTE      stI
      R4          REGSYM    ---      BYTE      stQ
      ---         BLOCKEND  ---      ---       LVL=0

L251 LINKER/LOCATER V4.66.93.0                                                        04/08/2024  14:48:14  PAGE 207


      00FFC6A2H   BLOCK     CODE     ---       LVL=0
      00FFC6A2H   LINE      ---      ---       #470
      00FFC6A2H   LINE      ---      ---       #473
      00FFC6AEH   LINE      ---      ---       #474
      ---         BLOCKEND  ---      ---       LVL=0

      00FFC6EEH   BLOCK     CODE     ---       LVL=0
      00FFC6EEH   LINE      ---      ---       #478
      00FFC6F2H   LINE      ---      ---       #486
      00FFC6F5H   LINE      ---      ---       #488
      00FFC6F9H   LINE      ---      ---       #497
      00FFC6F9H   LINE      ---      ---       #499
      00FFC70BH   LINE      ---      ---       #500
      00FFC70BH   LINE      ---      ---       #502
      00FFC70BH   LINE      ---      ---       #503
      WR14        REGSYM    ---      INT       rfBand
      ---         BLOCKEND  ---      ---       LVL=0

      00FFCEFCH   BLOCK     CODE     ---       LVL=0
      00FFCEFCH   LINE      ---      ---       #505
      00FFCF00H   LINE      ---      ---       #508
      REG=7       REGSYM    ---      ---       pDcOffset
      00FFCF00H   BLOCK     CODE     NEAR LAB  LVL=1
      00FFCF00H   LINE      ---      ---       #527
      00FFCF06H   LINE      ---      ---       #528
      00FFCF0BH   LINE      ---      ---       #529
      00FFCF0DH   LINE      ---      ---       #533
      00FFCF10H   LINE      ---      ---       #537
      00FFCF17H   LINE      ---      ---       #542
      00FFCF1DH   LINE      ---      ---       #546
      00FFCF28H   LINE      ---      ---       #552
      00FFCF2EH   LINE      ---      ---       #554
      00FFCF38H   LINE      ---      ---       #556
      00FFCF40H   LINE      ---      ---       #557
      00FFCF44H   LINE      ---      ---       #558
      00FFCF48H   LINE      ---      ---       #559
      00FFCF5BH   LINE      ---      ---       #571
      00FFCF63H   LINE      ---      ---       #574
      00FFCF6EH   LINE      ---      ---       #575
      00FFCF75H   LINE      ---      ---       #576
      00FFCF78H   LINE      ---      ---       #577
      0000B630H   SYMBOL    EDATA    CHAR      rssiMin
      0000B631H   SYMBOL    EDATA    CHAR      rssiTemp
      0000B632H   SYMBOL    EDATA    CHAR      minI
      R13         REGSYM    ---      CHAR      minQ
      R12         REGSYM    ---      CHAR      iIdx
      0000B633H   SYMBOL    EDATA    CHAR      qIdx
      ---         BLOCKEND  CODE     ---       LVL=1
      00FFCF7CH   LINE      ---      ---       #578
      00FFCF7CH   LINE      CODE     ---       #578

      00FFC70EH   BLOCK     CODE     ---       LVL=0
      00FFC70EH   LINE      ---      ---       #582
      00FFC712H   LINE      ---      ---       #590
      00FFC715H   LINE      ---      ---       #592
      00FFC719H   LINE      ---      ---       #601
      00FFC719H   LINE      ---      ---       #603
      00FFC72BH   LINE      ---      ---       #605
      00FFC72BH   LINE      ---      ---       #606
      WR14        REGSYM    ---      INT       rfBand
      ---         BLOCKEND  ---      ---       LVL=0

      00FFCFF7H   BLOCK     CODE     ---       LVL=0
      00FFCFF7H   LINE      ---      ---       #608
      00FFCFFBH   LINE      ---      ---       #611
L251 LINKER/LOCATER V4.66.93.0                                                        04/08/2024  14:48:14  PAGE 208


      REG=7       REGSYM    ---      ---       pIqc
      00FFCFFBH   BLOCK     CODE     NEAR LAB  LVL=1
      00FFCFFBH   LINE      ---      ---       #632
      00FFD001H   LINE      ---      ---       #633
      00FFD005H   LINE      ---      ---       #634
      00FFD00AH   LINE      ---      ---       #635
      00FFD010H   LINE      ---      ---       #636
      00FFD01CH   LINE      ---      ---       #640
      00FFD020H   LINE      ---      ---       #644
      00FFD02EH   LINE      ---      ---       #645
      00FFD039H   LINE      ---      ---       #646
      00FFD044H   LINE      ---      ---       #652
      00FFD051H   LINE      ---      ---       #654
      00FFD05BH   LINE      ---      ---       #656
      00FFD063H   LINE      ---      ---       #657
      00FFD06EH   LINE      ---      ---       #658
      00FFD076H   LINE      ---      ---       #659
      00FFD07EH   LINE      ---      ---       #660
      00FFD07EH   LINE      ---      ---       #663
      00FFD08AH   LINE      ---      ---       #674
      00FFD08EH   LINE      ---      ---       #676
      00FFD099H   LINE      ---      ---       #677
      00FFD0A4H   LINE      ---      ---       #678
      00FFD0AFH   LINE      ---      ---       #679
      00FFD0B2H   LINE      ---      ---       #680
      00FFD0BAH   LINE      ---      ---       #681
      0000B597H   SYMBOL    EDATA    CHAR      rssiMin
      0000B598H   SYMBOL    EDATA    CHAR      rssiTemp
      0000B599H   SYMBOL    EDATA    CHAR      minA
      0000B59AH   SYMBOL    EDATA    CHAR      minB
      0000B59BH   SYMBOL    EDATA    CHAR      minC
      WR12        REGSYM    ---      WORD      idx
      0000B59CH   SYMBOL    EDATA    ---       pSbkCand
      ---         BLOCKEND  CODE     ---       LVL=1
      00FFD0C2H   LINE      ---      ---       #682
      00FFD0C2H   LINE      CODE     ---       #682

      00FFC954H   BLOCK     CODE     ---       LVL=0
      00FFC954H   LINE      ---      ---       #702
      00FFC956H   LINE      ---      ---       #707
      00FFC961H   LINE      ---      ---       #708
      00FFC96CH   LINE      ---      ---       #711
      00FFC97AH   LINE      ---      ---       #712
      00FFC988H   LINE      ---      ---       #713
      00FFC992H   LINE      ---      ---       #716
      00FFC99EH   LINE      ---      ---       #717
      00FFC9A2H   LINE      ---      ---       #718
      00FFC9A6H   LINE      ---      ---       #732
      00FFC9A6H   LINE      ---      ---       #735
      00FFC9AEH   LINE      ---      ---       #736
      00FFC9D9H   LINE      ---      ---       #738
      00FFC9E5H   LINE      ---      ---       #739
      00FFC9F1H   LINE      ---      ---       #740
      00FFC9FDH   LINE      ---      ---       #741
      00FFCA09H   LINE      ---      ---       #742
      00FFCA09H   LINE      ---      ---       #744
      00FFCA09H   LINE      ---      ---       #745
      WR2         REGSYM    ---      INT       rfBand
      ---         BLOCKEND  ---      ---       LVL=0

      00FFD0C5H   BLOCK     CODE     ---       LVL=0
      00FFD0C5H   LINE      ---      ---       #747
      00FFD0C7H   LINE      ---      ---       #752
      00FFD0D3H   LINE      ---      ---       #753
      00FFD0D7H   LINE      ---      ---       #766
L251 LINKER/LOCATER V4.66.93.0                                                        04/08/2024  14:48:14  PAGE 209


      00FFD0D7H   LINE      ---      ---       #769
      00FFD0DFH   LINE      ---      ---       #771
      00FFD0EBH   LINE      ---      ---       #772
      00FFD0EBH   LINE      ---      ---       #774
      00FFD0EBH   LINE      ---      ---       #775
      WR4         REGSYM    ---      INT       rfBand
      ---         BLOCKEND  ---      ---       LVL=0

      00FF2EF9H   BLOCK     CODE     ---       LVL=0
      00FF2EF9H   LINE      ---      ---       #777
      00FF2EFBH   LINE      ---      ---       #778
      00FF2EFBH   BLOCK     CODE     NEAR LAB  LVL=1
      00FF2EFBH   LINE      ---      ---       #784
      00FF2F07H   LINE      ---      ---       #794
      00FF2F13H   LINE      ---      ---       #795
      00FF2F1DH   LINE      ---      ---       #796
      00FF2F36H   LINE      ---      ---       #797
      00FF2F4BH   LINE      ---      ---       #800
      00FF2F58H   LINE      ---      ---       #801
      00FF2F5DH   LINE      ---      ---       #802
      R15         REGSYM    ---      BYTE      bandSel
      ---         BLOCKEND  CODE     ---       LVL=1
      00FF2F67H   LINE      ---      ---       #814
      00FF2F67H   LINE      CODE     ---       #814

      00FFC6AFH   BLOCK     CODE     ---       LVL=0
      00FFC6AFH   LINE      ---      ---       #816
      00FFC6AFH   LINE      ---      ---       #819
      00FFC6BBH   LINE      ---      ---       #820
      00FFC6C7H   LINE      ---      ---       #821
      00FFC6CCH   LINE      ---      ---       #822
      ---         BLOCKEND  ---      ---       LVL=0

      00FFC72EH   BLOCK     CODE     ---       LVL=0
      00FFC72EH   LINE      ---      ---       #854
      00FFC732H   LINE      ---      ---       #862
      00FFC73DH   LINE      ---      ---       #864
      00FFC741H   LINE      ---      ---       #878
      00FFC741H   LINE      ---      ---       #880
      00FFC753H   LINE      ---      ---       #882
      00FFC75BH   LINE      ---      ---       #883
      00FFC763H   LINE      ---      ---       #884
      00FFC771H   LINE      ---      ---       #885
      00FFC77FH   LINE      ---      ---       #886
      00FFC77FH   LINE      ---      ---       #888
      00FFC77FH   LINE      ---      ---       #889
      WR14        REGSYM    ---      INT       rfBand
      ---         BLOCKEND  ---      ---       LVL=0

      00FFD0ECH   BLOCK     CODE     ---       LVL=0
      00FFD0ECH   LINE      ---      ---       #891
      00FFD0F0H   LINE      ---      ---       #894
      REG=7       REGSYM    ---      ---       pFiltCap
      00FFD0F0H   BLOCK     CODE     NEAR LAB  LVL=1
      00FFD0F0H   LINE      ---      ---       #924
      00FFD0F6H   LINE      ---      ---       #925
      00FFD0FAH   LINE      ---      ---       #929
      00FFD100H   LINE      ---      ---       #933
      00FFD10BH   LINE      ---      ---       #936
      00FFD11EH   LINE      ---      ---       #942
      00FFD124H   LINE      ---      ---       #954
      00FFD139H   LINE      ---      ---       #957
      00FFD15DH   LINE      ---      ---       #994
      00FFD163H   LINE      ---      ---       #996
      00FFD167H   LINE      ---      ---       #997
L251 LINKER/LOCATER V4.66.93.0                                                        04/08/2024  14:48:14  PAGE 210


      00FFD16FH   LINE      ---      ---       #1013
      00FFD183H   LINE      ---      ---       #1017
      00FFD18EH   LINE      ---      ---       #1018
      0000B5EFH   SYMBOL    EDATA    BYTE      minCap
      0000B5F0H   SYMBOL    EDATA    BYTE      cIdx
      0000B5F1H   SYMBOL    EDATA    CHAR      rssiRef
      0000B5F2H   SYMBOL    EDATA    CHAR      rssiTemp1
      WR12        REGSYM    ---      INT       minRssiDiff
      0000B5F3H   SYMBOL    EDATA    INT       rssiDiff
      ---         BLOCKEND  CODE     ---       LVL=1
      00FFD191H   LINE      ---      ---       #1024
      00FFD191H   LINE      CODE     ---       #1024

      00FFD194H   BLOCK     CODE     ---       LVL=0
      00FFD194H   LINE      ---      ---       #1028
      00FFD196H   LINE      ---      ---       #1033
      00FFD1A1H   LINE      ---      ---       #1034
      00FFD1A8H   LINE      ---      ---       #1037
      00FFD1B6H   LINE      ---      ---       #1038
      00FFD1C4H   LINE      ---      ---       #1039
      00FFD1CEH   LINE      ---      ---       #1042
      00FFD1E7H   LINE      ---      ---       #1043
      00FFD1EBH   LINE      ---      ---       #1054
      00FFD1EBH   LINE      ---      ---       #1056
      00FFD1F7H   LINE      ---      ---       #1057
      00FFD203H   LINE      ---      ---       #1058
      00FFD203H   LINE      ---      ---       #1060
      00FFD203H   LINE      ---      ---       #1061
      WR2         REGSYM    ---      INT       rfBand
      ---         BLOCKEND  ---      ---       LVL=0

      00FFD204H   BLOCK     CODE     ---       LVL=0
      00FFD204H   LINE      ---      ---       #1063
      00FFD206H   LINE      ---      ---       #1068
      00FFD212H   LINE      ---      ---       #1069
      00FFD216H   LINE      ---      ---       #1081
      00FFD216H   LINE      ---      ---       #1084
      00FFD222H   LINE      ---      ---       #1085
      00FFD22EH   LINE      ---      ---       #1086
      00FFD22EH   LINE      ---      ---       #1088
      00FFD22EH   LINE      ---      ---       #1089
      WR4         REGSYM    ---      INT       rfBand
      ---         BLOCKEND  ---      ---       LVL=0

      00FFD22FH   BLOCK     CODE     ---       LVL=0
      00FFD22FH   LINE      ---      ---       #1091
      00FFD231H   LINE      ---      ---       #1092
      00FFD231H   BLOCK     CODE     NEAR LAB  LVL=1
      00FFD231H   LINE      ---      ---       #1098
      00FFD23DH   LINE      ---      ---       #1108
      00FFD249H   LINE      ---      ---       #1109
      00FFD254H   LINE      ---      ---       #1110
      00FFD26BH   LINE      ---      ---       #1111
      00FFD286H   LINE      ---      ---       #1112
      00FFD297H   LINE      ---      ---       #1113
      00FFD2A0H   LINE      ---      ---       #1116
      R15         REGSYM    ---      BYTE      bandSel
      ---         BLOCKEND  CODE     ---       LVL=1
      00FFD2ABH   LINE      ---      ---       #1128
      00FFD2ABH   LINE      CODE     ---       #1128

      00FFD2AEH   BLOCK     CODE     ---       LVL=0
      00FFD2AEH   LINE      ---      ---       #1130
      00FFD2AEH   LINE      ---      ---       #1133
      00FFD2BAH   LINE      ---      ---       #1134
L251 LINKER/LOCATER V4.66.93.0                                                        04/08/2024  14:48:14  PAGE 211


      00FFD2C6H   LINE      ---      ---       #1135
      00FFD2CBH   LINE      ---      ---       #1136
      ---         BLOCKEND  ---      ---       LVL=0

      ---         MODULE    ---      ---       hal_rt569mp_rf
      00FFB63FH   PUBLIC    CODE     ---       HALRF_PllCfg
      00FFC17BH   PUBLIC    CODE     ---       HALRF_Freq2gCfg
      00FFC344H   PUBLIC    CODE     ---       HALRF_FreqSubgCfg
      00FFD2CCH   PUBLIC    CODE     ---       HALRF_AgcInit
      00FFD337H   PUBLIC    CODE     ---       HALRF_TemperatureMeasure
      00FFD338H   PUBLIC    CODE     ---       HALRF_VoltageMeasure
      00FFAEFEH   PUBLIC    CODE     ---       HALRF_TxPwrSet2Hw
      00FF4B98H   PUBLIC    CODE     ---       HALRF_TxPwrCompSet2Hw
      00FF8EDCH   PUBLIC    CODE     ---       HALRF_AgcSet2Hw
      00FFD339H   PUBLIC    CODE     ---       HALRF_ExtFemInit
      00FFC2A5H   PUBLIC    CODE     ---       HALRF_IfCheck
      00FFC23BH   PUBLIC    CODE     ---       HALRF_Freq2gCal
      00FFAF40H   PUBLIC    CODE     ---       HALRF_TxGainTableCfg
      00FF1373H   PUBLIC    HCONST   ---       pllFreqBandTab
      0000B62CH   PUBLIC    EDATA    BYTE      ?HALRF_IfCheck?BYTE

      00FFC2A5H   BLOCK     CODE     ---       LVL=0
      00FFC2A5H   LINE      ---      ---       #93
      00FFC2A9H   LINE      ---      ---       #120
      00FFC2B6H   LINE      ---      ---       #123
      00FFC2B6H   LINE      ---      ---       #124
      00FFC2BBH   LINE      ---      ---       #125
      00FFC2CAH   LINE      ---      ---       #126
      00FFC2D5H   LINE      ---      ---       #127
      00FFC2F4H   LINE      ---      ---       #129
      00FFC2FDH   LINE      ---      ---       #133
      00FFC2FEH   LINE      ---      ---       #136
      00FFC2FEH   LINE      ---      ---       #137
      00FFC303H   LINE      ---      ---       #138
      00FFC312H   LINE      ---      ---       #139
      00FFC31DH   LINE      ---      ---       #140
      00FFC33CH   LINE      ---      ---       #144
      00FFC340H   LINE      ---      ---       #146
      00FFC341H   LINE      ---      ---       #148
      00FFC341H   LINE      ---      ---       #149
      WR6         REGSYM    ---      INT       dataBw
      REG=2       REGSYM    ---      ---       pIfNum
      REG=15      REGSYM    ---      ---       pIfTab
      REG=4       REGSYM    ---      ---       pPllCfgRet
      0000B634H   SYMBOL    EDATA    ---       pIfIdx
      0000B636H   SYMBOL    EDATA    ---       pIfIdxZero
      ---         BLOCKEND  ---      ---       LVL=0

      00FFC23BH   BLOCK     CODE     ---       LVL=0
      00FFC23BH   LINE      ---      ---       #156
      00FFC23BH   LINE      ---      ---       #161
      WR6         REGSYM    ---      WORD      freq
      WR4         REGSYM    ---      WORD      ifVal
      REG=1       REGSYM    ---      ---       pPllCfgRet
      00FFC23BH   BLOCK     CODE     NEAR LAB  LVL=1
      00FFC23BH   LINE      ---      ---       #165
      00FFC243H   LINE      ---      ---       #177
      00FFC24DH   LINE      ---      ---       #178
      00FFC24FH   LINE      ---      ---       #179
      00FFC261H   LINE      ---      ---       #180
      00FFC273H   LINE      ---      ---       #181
      00FFC28AH   LINE      ---      ---       #182
      00FFC29BH   LINE      ---      ---       #183
      00FFC2A0H   LINE      ---      ---       #184
      DR4         REGSYM    ---      DWORD     freqTarget
L251 LINKER/LOCATER V4.66.93.0                                                        04/08/2024  14:48:14  PAGE 212


      ---         BLOCKEND  CODE     ---       LVL=1
      00FFC2A4H   LINE      ---      ---       #185
      00FFC2A4H   LINE      CODE     ---       #185

      00FFB63FH   BLOCK     CODE     ---       LVL=0
      00FFB63FH   LINE      ---      ---       #191
      00FFB641H   LINE      ---      ---       #196
      00FFB657H   LINE      ---      ---       #197
      00FFB66FH   LINE      ---      ---       #198
      00FFB681H   LINE      ---      ---       #199
      00FFB697H   LINE      ---      ---       #200
      00FFB6ADH   LINE      ---      ---       #208
      REG=1       REGSYM    ---      ---       pPllCfg
      ---         BLOCKEND  ---      ---       LVL=0

      00FFC17BH   BLOCK     CODE     ---       LVL=0
      00FFC17BH   LINE      ---      ---       #211
      00FFC181H   LINE      ---      ---       #216
      WR14        REGSYM    ---      WORD      freq
      WR4         REGSYM    ---      INT       dataBw
      WR12        REGSYM    ---      INT       mode
      00FFC181H   BLOCK     CODE     NEAR LAB  LVL=1
      00FFC181H   LINE      ---      ---       #221
      00FFC189H   LINE      ---      ---       #225
      00FFC1A9H   LINE      ---      ---       #228
      00FFC1B9H   LINE      ---      ---       #232
      00FFC1BBH   LINE      ---      ---       #236
      00FFC1CDH   LINE      ---      ---       #238
      00FFC1CDH   LINE      ---      ---       #245
      00FFC1CDH   LINE      ---      ---       #251
      00FFC1CDH   LINE      ---      ---       #254
      00FFC1F0H   LINE      ---      ---       #258
      00FFC1F2H   LINE      ---      ---       #260
      00FFC1F2H   LINE      ---      ---       #262
      00FFC1F5H   LINE      ---      ---       #265
      00FFC20FH   LINE      ---      ---       #269
      00FFC219H   LINE      ---      ---       #270
      00FFC225H   LINE      ---      ---       #271
      00FFC238H   LINE      ---      ---       #272
      00FFC238H   LINE      ---      ---       #273
      0000B58DH   SYMBOL    EDATA    ---       pIfTab
      0000B591H   SYMBOL    EDATA    BYTE      ifNum
      0000B592H   SYMBOL    EDATA    BYTE      ifIdx
      0000B593H   SYMBOL    EDATA    BYTE      ifZeroIdx
      0000B594H   SYMBOL    EDATA    ---       pPllCfgRet
      0000B596H   SYMBOL    EDATA    BYTE      ifBitShift
      ---         BLOCKEND  CODE     ---       LVL=1
      00FFC238H   LINE      ---      ---       #274
      00FFC238H   LINE      CODE     ---       #274

      00FFC344H   BLOCK     CODE     ---       LVL=0
      00FFC344H   LINE      ---      ---       #278
      00FFC348H   LINE      ---      ---       #281
      DR12        REGSYM    ---      DWORD     freq
      00FFC348H   BLOCK     CODE     NEAR LAB  LVL=1
      00FFC348H   LINE      ---      ---       #286
      00FFC350H   LINE      ---      ---       #289
      00FFC370H   LINE      ---      ---       #292
      00FFC37CH   LINE      ---      ---       #294
      00FFC37FH   LINE      ---      ---       #297
      00FFC38CH   LINE      ---      ---       #298
      00FFC3AFH   LINE      ---      ---       #302
      00FFC3B5H   LINE      ---      ---       #303
      00FFC3C1H   LINE      ---      ---       #305
      00FFC3CFH   LINE      ---      ---       #306
L251 LINKER/LOCATER V4.66.93.0                                                        04/08/2024  14:48:14  PAGE 213


      00FFC3E5H   LINE      ---      ---       #309
      00FFC3EAH   LINE      ---      ---       #312
      00FFC40DH   LINE      ---      ---       #313
      00FFC40DH   LINE      ---      ---       #316
      00FFC419H   LINE      ---      ---       #317
      00FFC427H   LINE      ---      ---       #318
      00FFC429H   LINE      ---      ---       #319
      00FFC439H   LINE      ---      ---       #322
      00FFC43CH   LINE      ---      ---       #323
      00FFC43CH   LINE      ---      ---       #327
      00FFC446H   LINE      ---      ---       #328
      00FFC461H   LINE      ---      ---       #330
      00FFC47EH   LINE      ---      ---       #331
      00FFC48DH   LINE      ---      ---       #334
      00FFC495H   LINE      ---      ---       #335
      00FFC4ABH   LINE      ---      ---       #336
      00FFC4BDH   LINE      ---      ---       #337
      00FFC4CAH   LINE      ---      ---       #340
      00FFC4D4H   LINE      ---      ---       #341
      00FFC4E0H   LINE      ---      ---       #342
      00FFC43CH   SYMBOL    CODE     NEAR LAB  DONE?440?hal_rt569mp_rf
      0000B41BH   SYMBOL    EDATA    ---       pIfTab
      0000B41FH   SYMBOL    EDATA    BYTE      ifNum
      0000B420H   SYMBOL    EDATA    BYTE      ifIdx
      0000B421H   SYMBOL    EDATA    BYTE      ifZeroIdx
      0000B422H   SYMBOL    EDATA    BYTE      bandIdx
      0000B423H   SYMBOL    EDATA    ---       pPllCfgRet
      0000B425H   SYMBOL    EDATA    DWORD     freqTarget
      0000B429H   SYMBOL    EDATA    DWORD     absTrxIf
      0000B42DH   SYMBOL    EDATA    BYTE      ifBitShift
      00FFC455H   SYMBOL    CODE     NEAR LAB  DONE?440
      ---         BLOCKEND  CODE     ---       LVL=1
      00FFC4F5H   LINE      ---      ---       #343
      00FFC4F5H   LINE      CODE     ---       #343

      00FFD2CCH   BLOCK     CODE     ---       LVL=0
      00FFD2CCH   LINE      ---      ---       #346
      00FFD2CEH   LINE      ---      ---       #431
      00FFD2DCH   LINE      ---      ---       #433
      00FFD2E0H   LINE      ---      ---       #435
      00FFD2E9H   LINE      ---      ---       #436
      00FFD2F7H   LINE      ---      ---       #437
      00FFD2FCH   LINE      ---      ---       #438
      00FFD308H   LINE      ---      ---       #439
      00FFD311H   LINE      ---      ---       #440
      00FFD318H   LINE      ---      ---       #441
      00FFD323H   LINE      ---      ---       #442
      00FFD32FH   LINE      ---      ---       #443
      00FFD336H   LINE      ---      ---       #444
      WR4         REGSYM    ---      INT       clkMode
      ---         BLOCKEND  ---      ---       LVL=0

      00FFD337H   BLOCK     CODE     ---       LVL=0
      00FFD337H   LINE      ---      ---       #562
      00FFD337H   LINE      ---      ---       #565
      ---         BLOCKEND  ---      ---       LVL=0

      00FFD338H   BLOCK     CODE     ---       LVL=0
      00FFD338H   LINE      ---      ---       #567
      00FFD338H   LINE      ---      ---       #570
      ---         BLOCKEND  ---      ---       LVL=0

      00FFAF40H   BLOCK     CODE     ---       LVL=0
      00FFAF40H   LINE      ---      ---       #573
      00FFAF42H   LINE      ---      ---       #576
L251 LINKER/LOCATER V4.66.93.0                                                        04/08/2024  14:48:14  PAGE 214


      WR4         REGSYM    ---      INT       gainTabIdx
      00FFAF42H   BLOCK     CODE     NEAR LAB  LVL=1
      00FFAF42H   LINE      ---      ---       #577
      00FFAF48H   LINE      ---      ---       #579
      00FFAF5EH   LINE      ---      ---       #582
      00FFAF5EH   LINE      ---      ---       #584
      00FFAF64H   LINE      ---      ---       #586
      00FFAF68H   LINE      ---      ---       #587
      00FFAF68H   LINE      ---      ---       #588
      00FFAF87H   LINE      ---      ---       #592
      00FFAF89H   LINE      ---      ---       #596
      00FFAF89H   LINE      ---      ---       #597
      00FFAF89H   LINE      ---      ---       #598
      00FFAF89H   LINE      ---      ---       #599
      00FFAF89H   LINE      ---      ---       #600
      00FFAFA9H   LINE      ---      ---       #601
      00FFAFA9H   LINE      ---      ---       #602
      00FFAFA9H   LINE      ---      ---       #604
      WR6         REGSYM    ---      INT       rfkBand
      ---         BLOCKEND  CODE     ---       LVL=1
      00FFAFA9H   LINE      ---      ---       #605
      00FFAFA9H   LINE      CODE     ---       #605

      00FFAEFEH   BLOCK     CODE     ---       LVL=0
      00FFAEFEH   LINE      ---      ---       #608
      00FFAEFEH   LINE      ---      ---       #609
      00FFAEFEH   BLOCK     CODE     NEAR LAB  LVL=1
      00FFAEFEH   LINE      ---      ---       #610
      00FFAF16H   LINE      ---      ---       #613
      00FFAF1CH   LINE      ---      ---       #615
      00FFAF27H   LINE      ---      ---       #617
      00FFAF2BH   LINE      ---      ---       #619
      00FFAF2DH   LINE      ---      ---       #622
      00FFAF38H   LINE      ---      ---       #624
      REG=3       REGSYM    ---      ---       pTxPwrCtrl
      ---         BLOCKEND  CODE     ---       LVL=1
      ---         BLOCKEND  CODE     ---       LVL=0

      00FF4B98H   BLOCK     CODE     ---       LVL=0
      00FF4B98H   LINE      ---      ---       #633
      00FF4B9AH   LINE      ---      ---       #634
      00FF4B9AH   BLOCK     CODE     NEAR LAB  LVL=1
      00FF4B9AH   LINE      ---      ---       #636
      00FF4BA7H   LINE      ---      ---       #640
      00FF4BABH   LINE      ---      ---       #641
      00FF4BABH   LINE      ---      ---       #644
      00FF4BB1H   LINE      ---      ---       #646
      00FF4BBEH   LINE      ---      ---       #647
      00FF4BD1H   LINE      ---      ---       #648
      00FF4BE4H   LINE      ---      ---       #649
      REG=7       REGSYM    ---      ---       pTxPwrCtrl
      ---         BLOCKEND  CODE     ---       LVL=1
      ---         BLOCKEND  CODE     ---       LVL=0

      00FF8EDCH   BLOCK     CODE     ---       LVL=0
      00FF8EDCH   LINE      ---      ---       #653
      00FF8EDCH   LINE      ---      ---       #654
      00FF8EDCH   BLOCK     CODE     NEAR LAB  LVL=1
      00FF8EDCH   LINE      ---      ---       #671
      00FF8EE2H   LINE      ---      ---       #673
      00FF8F03H   LINE      ---      ---       #677
      00FF8F14H   LINE      ---      ---       #678
      00FF8F2CH   LINE      ---      ---       #679
      00FF8F2FH   LINE      ---      ---       #680
      00FF8F3EH   LINE      ---      ---       #681
L251 LINKER/LOCATER V4.66.93.0                                                        04/08/2024  14:48:14  PAGE 215


      00FF8F45H   LINE      ---      ---       #683
      00FF8F52H   LINE      ---      ---       #686
      00FF8F54H   LINE      ---      ---       #688
      00FF8F5AH   LINE      ---      ---       #689
      00FF8F65H   LINE      ---      ---       #700
      WR6         REGSYM    ---      INT       type
      ---         BLOCKEND  CODE     ---       LVL=1
      00FF8F65H   LINE      ---      ---       #701
      00FF8F65H   LINE      CODE     ---       #701

      00FFD339H   BLOCK     CODE     ---       LVL=0
      00FFD339H   LINE      ---      ---       #703
      00FFD339H   LINE      ---      ---       #706
      ---         BLOCKEND  ---      ---       LVL=0

      ---         MODULE    ---      ---       hal_rt569mp_tcon
      00FFD33AH   PUBLIC    CODE     ---       HALTCON_Init
      00FFD464H   PUBLIC    CODE     ---       HALTCON_PreTxTimeSet
      00FFB28DH   PUBLIC    CODE     ---       HALTCON_TxTailDelayGet
      00FFB352H   PUBLIC    CODE     ---       HALTCON_RxTailDelayGet

      00FFD33AH   BLOCK     CODE     ---       LVL=0
      00FFD33AH   LINE      ---      ---       #25
      00FFD33AH   LINE      ---      ---       #28
      00FFD33AH   BLOCK     CODE     NEAR LAB  LVL=1
      00FFD33AH   LINE      ---      ---       #32
      00FFD33AH   LINE      ---      ---       #45
      00FFD33EH   LINE      ---      ---       #48
      00FFD348H   LINE      ---      ---       #50
      00FFD348H   LINE      ---      ---       #52
      00FFD348H   LINE      ---      ---       #53
      00FFD350H   LINE      ---      ---       #54
      00FFD354H   LINE      ---      ---       #55
      00FFD358H   LINE      ---      ---       #56
      00FFD35CH   LINE      ---      ---       #57
      00FFD360H   LINE      ---      ---       #58
      00FFD362H   LINE      ---      ---       #62
      00FFD362H   LINE      ---      ---       #63
      00FFD36AH   LINE      ---      ---       #64
      00FFD36EH   LINE      ---      ---       #65
      00FFD372H   LINE      ---      ---       #66
      00FFD376H   LINE      ---      ---       #67
      00FFD37AH   LINE      ---      ---       #68
      00FFD37AH   LINE      ---      ---       #70
      00FFD37AH   LINE      ---      ---       #73
      00FFD382H   LINE      ---      ---       #74
      00FFD396H   LINE      ---      ---       #75
      00FFD3A2H   LINE      ---      ---       #76
      00FFD3ABH   LINE      ---      ---       #77
      00FFD3C9H   LINE      ---      ---       #78
      00FFD3E5H   LINE      ---      ---       #81
      00FFD3F0H   LINE      ---      ---       #82
      00FFD3F9H   LINE      ---      ---       #83
      00FFD405H   LINE      ---      ---       #84
      00FFD40EH   LINE      ---      ---       #85
      00FFD419H   LINE      ---      ---       #86
      00FFD420H   LINE      ---      ---       #87
      00FFD427H   LINE      ---      ---       #90
      00FFD42EH   LINE      ---      ---       #91
      00FFD435H   LINE      ---      ---       #92
      00FFD449H   LINE      ---      ---       #95
      00FFD450H   LINE      ---      ---       #96
      00FFD457H   LINE      ---      ---       #99
      00FFD463H   LINE      ---      ---       #102
      R10         REGSYM    ---      BYTE      unitShift
L251 LINKER/LOCATER V4.66.93.0                                                        04/08/2024  14:48:14  PAGE 216


      WR4         REGSYM    ---      WORD      txDelayTime
      WR2         REGSYM    ---      WORD      pllLockTime
      WR26        REGSYM    ---      WORD      paOnTime
      WR0         REGSYM    ---      WORD      txOnTime
      WR28        REGSYM    ---      WORD      paOffTime
      WR30        REGSYM    ---      WORD      rxOnTime
      ---         BLOCKEND  CODE     ---       LVL=1
      00FFD463H   LINE      ---      ---       #103
      00FFD463H   LINE      CODE     ---       #103

      00FFD464H   BLOCK     CODE     ---       LVL=0
      00FFD464H   LINE      ---      ---       #105
      00FFD466H   LINE      ---      ---       #108
      WR2         REGSYM    ---      INT       dataBwIdx
      00FFD466H   BLOCK     CODE     NEAR LAB  LVL=1
      00FFD466H   LINE      ---      ---       #123
      00FFD470H   LINE      ---      ---       #125
      00FFD470H   LINE      ---      ---       #127
      00FFD470H   LINE      ---      ---       #128
      00FFD478H   LINE      ---      ---       #129
      00FFD47AH   LINE      ---      ---       #133
      00FFD47AH   LINE      ---      ---       #134
      00FFD482H   LINE      ---      ---       #135
      00FFD482H   LINE      ---      ---       #137
      00FFD482H   LINE      ---      ---       #140
      00FFD486H   LINE      ---      ---       #148
      00FFD49DH   LINE      ---      ---       #151
      00FFD4A1H   LINE      ---      ---       #152
      00FFD4AFH   LINE      ---      ---       #154
      00FFD4B8H   LINE      ---      ---       #157
      R11         REGSYM    ---      BYTE      unitShift
      WR4         REGSYM    ---      WORD      mdmTxDelayTime
      WR8         REGSYM    ---      WORD      pllLockTime
      ---         BLOCKEND  CODE     ---       LVL=1
      00FFD4B8H   LINE      ---      ---       #158
      00FFD4B8H   LINE      CODE     ---       #158

      00FFB28DH   BLOCK     CODE     ---       LVL=0
      00FFB28DH   LINE      ---      ---       #160
      00FFB28DH   LINE      ---      ---       #163
      WR6         REGSYM    ---      INT       dataBw
      00FFB28DH   BLOCK     CODE     NEAR LAB  LVL=1
      00FFB28DH   LINE      ---      ---       #167
      00FFB2A5H   LINE      ---      ---       #184
      00FFB2B6H   LINE      ---      ---       #187
      R11         REGSYM    ---      BYTE      delayTime
      ---         BLOCKEND  CODE     ---       LVL=1
      00FFB2B6H   LINE      ---      ---       #188
      00FFB2B6H   LINE      CODE     ---       #188

      00FFB34EH   BLOCK     CODE     ---       LVL=0
      00FFB352H   LINE      ---      ---       #190
      00FFB352H   LINE      ---      ---       #193
      00FFB34EH   SYMBOL    CODE     NEAR LAB  ?L?COM004D
      WR6         REGSYM    ---      INT       dataBw
      00FFB352H   BLOCK     CODE     NEAR LAB  LVL=1
      00FFB352H   LINE      ---      ---       #196
      00FFB35BH   LINE      ---      ---       #198
      00FFB35BH   LINE      ---      ---       #200
      00FFB35BH   LINE      ---      ---       #201
      00FFB373H   LINE      ---      ---       #205
      00FFB375H   LINE      ---      ---       #208
      00FFB375H   LINE      ---      ---       #209
      00FFB38DH   LINE      ---      ---       #210
      00FFB38DH   LINE      ---      ---       #218
L251 LINKER/LOCATER V4.66.93.0                                                        04/08/2024  14:48:14  PAGE 217


      00FFB38DH   LINE      ---      ---       #221
      00FFB398H   LINE      ---      ---       #224
      R9          REGSYM    ---      BYTE      delayTime
      ---         BLOCKEND  CODE     ---       LVL=1
      00FFB39AH   LINE      ---      ---       #225
      00FFB39AH   LINE      CODE     ---       #225

      ---         MODULE    ---      ---       hal_rt569mp_para
      00FF01E2H   PUBLIC    HCONST   ---       rfConfig
      00FF02B2H   PUBLIC    HCONST   ---       pmuConfig
      00FF039AH   PUBLIC    HCONST   ---       rfTabSideBnadK
      00FF074BH   PUBLIC    HCONST   ---       phyConfig

      ---         MODULE    ---      ---       hal_rt569mp_pmu
      00FFD4B9H   PUBLIC    CODE     ---       HALPMU_PwrModeSet
      00FFD4E6H   PUBLIC    CODE     ---       HALPMU_PwrModeGet

      00FFD4B9H   BLOCK     CODE     ---       LVL=0
      00FFD4B9H   LINE      ---      ---       #23
      00FFD4BBH   LINE      ---      ---       #27
      00FFD4C7H   LINE      ---      ---       #28
      00FFD4CCH   LINE      ---      ---       #29
      00FFD4D2H   LINE      ---      ---       #30
      00FFD4D9H   LINE      ---      ---       #31
      00FFD4DDH   LINE      ---      ---       #32
      00FFD4E5H   LINE      ---      ---       #35
      WR4         REGSYM    ---      INT       pwrMode
      ---         BLOCKEND  ---      ---       LVL=0

      00FFD4E6H   BLOCK     CODE     ---       LVL=0
      00FFD4E6H   LINE      ---      ---       #37
      00FFD4E6H   LINE      ---      ---       #39
      00FFD4F3H   LINE      ---      ---       #40
      00FFD4F8H   LINE      ---      ---       #41
      00FFD4FBH   LINE      ---      ---       #42
      00FFD4FEH   LINE      ---      ---       #44
      00FFD502H   LINE      ---      ---       #45
      ---         BLOCKEND  ---      ---       LVL=0

      ---         MODULE    ---      ---       Ruci
      00FF4679H   PUBLIC    CODE     ---       RUCI_endianConvert
      0000B46EH   PUBLIC    EDATA    BYTE      ?RUCI_endianConvert?BYTE

      00FF466FH   BLOCK     CODE     ---       LVL=0
      00FF4679H   LINE      ---      ---       #23
      00FF467DH   LINE      ---      ---       #29
      00FF466FH   SYMBOL    CODE     NEAR LAB  ?L?COM0039
      REG=3       REGSYM    ---      ---       pDataIn
      R15         REGSYM    ---      BYTE      paraNum
      REG=0       REGSYM    ---      ---       pTypeMapIn
      0000B475H   SYMBOL    EDATA    ---       pElemNumMapIn
      00FF467DH   BLOCK     CODE     NEAR LAB  LVL=1
      00FF467DH   LINE      ---      ---       #37
      00FF467FH   LINE      ---      ---       #38
      00FF4683H   LINE      ---      ---       #39
      00FF468BH   LINE      ---      ---       #41
      00FF468FH   LINE      ---      ---       #43
      00FF46A4H   LINE      ---      ---       #45
      00FF46A4H   LINE      ---      ---       #48
      00FF46A7H   LINE      ---      ---       #57
      00FF46AEH   LINE      ---      ---       #58
      00FF46B6H   LINE      ---      ---       #59
      00FF46BEH   LINE      ---      ---       #60
      00FF46C6H   LINE      ---      ---       #61
      00FF46C9H   LINE      ---      ---       #62
L251 LINKER/LOCATER V4.66.93.0                                                        04/08/2024  14:48:14  PAGE 218


      00FF46D1H   LINE      ---      ---       #63
      00FF46D9H   LINE      ---      ---       #64
      00FF46E1H   LINE      ---      ---       #66
      00FF46E3H   LINE      ---      ---       #67
      00FF46F9H   LINE      ---      ---       #68
      00FF46FBH   LINE      ---      ---       #70
      00FF46FBH   LINE      ---      ---       #72
      00FF4702H   LINE      ---      ---       #74
      00FF4704H   LINE      ---      ---       #75
      00FF4712H   LINE      ---      ---       #76
      00FF4714H   LINE      ---      ---       #77
      00FF472AH   LINE      ---      ---       #78
      00FF472CH   LINE      ---      ---       #80
      00FF472CH   LINE      ---      ---       #82
      00FF4737H   LINE      ---      ---       #83
      00FF4739H   LINE      ---      ---       #85
      00FF4739H   LINE      ---      ---       #86
      00FF473CH   LINE      ---      ---       #87
      00FF473CH   LINE      ---      ---       #88
      00FF473CH   LINE      ---      ---       #90
      00FF4746H   LINE      ---      ---       #91
      00FF4750H   LINE      ---      ---       #92
      R14         REGSYM    ---      BYTE      paraIdx
      0000B479H   SYMBOL    EDATA    BYTE      elemIdx
      0000B47AH   SYMBOL    EDATA    ---       pDwTemp
      REG=3       REGSYM    ---      ---       pWTemp
      REG=6       REGSYM    ---      ---       pData
      0000B47EH   SYMBOL    EDATA    ---       pTypeMap
      0000B482H   SYMBOL    EDATA    ---       pElemNumMap
      ---         BLOCKEND  CODE     ---       LVL=1
      00FF4758H   LINE      ---      ---       #93
      00FF4758H   LINE      CODE     ---       #93

      ---         MODULE    ---      ---       Ruci_Pci15p4MacCmd
      00FF12A0H   PUBLIC    HCONST   ---       Ruci_ElmtType_Set15p4AddressFilter
      00FF12A8H   PUBLIC    HCONST   ---       Ruci_ElmtNum_Set15p4AddressFilter
      00FF12B0H   PUBLIC    HCONST   ---       Ruci_ElmtType_Set15p4MacPib
      00FF12BAH   PUBLIC    HCONST   ---       Ruci_ElmtNum_Set15p4MacPib
      00FF12C4H   PUBLIC    HCONST   ---       Ruci_ElmtType_Set15p4PhyPib
      00FF12CBH   PUBLIC    HCONST   ---       Ruci_ElmtNum_Set15p4PhyPib
      00FF12D2H   PUBLIC    HCONST   ---       Ruci_ElmtType_SetCslReceiverCtrl
      00FF12D7H   PUBLIC    HCONST   ---       Ruci_ElmtNum_SetCslReceiverCtrl
      00FF12DCH   PUBLIC    HCONST   ---       Ruci_ElmtType_UpdateCslSampleTime
      00FF12E0H   PUBLIC    HCONST   ---       Ruci_ElmtNum_UpdateCslSampleTime

      ---         MODULE    ---      ---       Ruci_PciBleCmd
      00FF12E4H   PUBLIC    HCONST   ---       Ruci_ElmtType_SetBleMac
      00FF12EBH   PUBLIC    HCONST   ---       Ruci_ElmtNum_SetBleMac
      00FF12F2H   PUBLIC    HCONST   ---       Ruci_ElmtType_SetHtrpPara
      00FF1300H   PUBLIC    HCONST   ---       Ruci_ElmtNum_SetHtrpPara

      ---         MODULE    ---      ---       Ruci_PciCommonCmd
      00FF11A3H   PUBLIC    HCONST   ---       Ruci_ElmtType_SetRfFrequency
      00FF11A7H   PUBLIC    HCONST   ---       Ruci_ElmtNum_SetRfFrequency
      00FF11ABH   PUBLIC    HCONST   ---       Ruci_ElmtType_SetWakeOnRadio
      00FF11B1H   PUBLIC    HCONST   ---       Ruci_ElmtNum_SetWakeOnRadio
      00FF11B7H   PUBLIC    HCONST   ---       Ruci_ElmtType_SetRxEnable
      00FF11BBH   PUBLIC    HCONST   ---       Ruci_ElmtNum_SetRxEnable
      00FF11BFH   PUBLIC    HCONST   ---       Ruci_ElmtType_Set2ChScanFrequency
      00FF11C5H   PUBLIC    HCONST   ---       Ruci_ElmtNum_Set2ChScanFrequency
      00FF11CBH   PUBLIC    HCONST   ---       Ruci_ElmtType_SetDutyCycle
      00FF11D0H   PUBLIC    HCONST   ---       Ruci_ElmtNum_SetDutyCycle
      00FF11D5H   PUBLIC    HCONST   ---       Ruci_ElmtType_SetRfeTxEnable
      00FF11E3H   PUBLIC    HCONST   ---       Ruci_ElmtNum_SetRfeTxEnable
      00FF11F1H   PUBLIC    HCONST   ---       Ruci_ElmtType_SetRfeRxEnable
L251 LINKER/LOCATER V4.66.93.0                                                        04/08/2024  14:48:14  PAGE 219


      00FF11FEH   PUBLIC    HCONST   ---       Ruci_ElmtNum_SetRfeRxEnable

      ---         MODULE    ---      ---       Ruci_PciData
      00FF138BH   PUBLIC    HCONST   ---       Ruci_ElmtType_SetTxControlField
      00FF1390H   PUBLIC    HCONST   ---       Ruci_ElmtNum_SetTxControlField
      00FF1395H   PUBLIC    HCONST   ---       Ruci_ElmtType_RxControlField
      00FF139BH   PUBLIC    HCONST   ---       Ruci_ElmtNum_RxControlField

      ---         MODULE    ---      ---       Ruci_PciEvent
      00FF13A1H   PUBLIC    HCONST   ---       Ruci_ElmtType_GetRegEvent
      00FF13A5H   PUBLIC    HCONST   ---       Ruci_ElmtNum_GetRegEvent
      00FF13A9H   PUBLIC    HCONST   ---       Ruci_ElmtType_GetCrcReportEvent
      00FF13AEH   PUBLIC    HCONST   ---       Ruci_ElmtNum_GetCrcReportEvent

      ---         MODULE    ---      ---       Ruci_PciFskCmd
      00FF13C3H   PUBLIC    HCONST   ---       Ruci_ElmtType_SetFskSfd
      00FF13C7H   PUBLIC    HCONST   ---       Ruci_ElmtNum_SetFskSfd

      ---         MODULE    ---      ---       Ruci_PciOqpskCmd

      ---         MODULE    ---      ---       Ruci_PciSlinkCmd

      ---         MODULE    ---      ---       Ruci_CmnEvent
      00FF1335H   PUBLIC    HCONST   ---       Ruci_ElmtType_GetFwVerEvent
      00FF133DH   PUBLIC    HCONST   ---       Ruci_ElmtNum_GetFwVerEvent
      00FF1345H   PUBLIC    HCONST   ---       Ruci_ElmtType_GetTemperatureRptEvent
      00FF134AH   PUBLIC    HCONST   ---       Ruci_ElmtNum_GetTemperatureRptEvent
      00FF134FH   PUBLIC    HCONST   ---       Ruci_ElmtType_GetVoltageRptEvent
      00FF1354H   PUBLIC    HCONST   ---       Ruci_ElmtNum_GetVoltageRptEvent

      ---         MODULE    ---      ---       Ruci_CmnHalCmd
      00FF1359H   PUBLIC    HCONST   ---       Ruci_ElmtType_SetPmuMpkSetting
      00FF1366H   PUBLIC    HCONST   ---       Ruci_ElmtNum_SetPmuMpkSetting

      ---         MODULE    ---      ---       Ruci_CmnSysCmd

      ---         MODULE    ---      ---       ?C?INITEDATA
      00FF0123H   PUBLIC    CODE     ---       ?C?INITEDATA

      ---         MODULE    ---      ---       ?C?SIDIV
      00FF000EH   PUBLIC    CODE     ---       ?C?SIDIV

      ---         MODULE    ---      ---       ?C?LMUL
      00FF0040H   PUBLIC    CODE     ---       ?C?LMUL

      ---         MODULE    ---      ---       ?C?LIMUL
      00FF0051H   PUBLIC    CODE     ---       ?C?LIMUL

      ---         MODULE    ---      ---       ?C?ULDIV
      00FF005CH   PUBLIC    CODE     NEAR LAB  ?C?ULDIV
      00FF005AH   PUBLIC    CODE     NEAR LAB  ?C?ULIDIV

      ---         MODULE    ---      ---       memcpy
      00FF0190H   PUBLIC    CODE     ---       memcpy?_

      ---         MODULE    ---      ---       memset
      00FF01CEH   PUBLIC    CODE     ---       memset?_

      ---         MODULE    ---      ---       hmemcpy
      00FF01AFH   PUBLIC    CODE     ---       hmemcpy?_

      ---         MODULE    ---      ---       ?C?INITEDATA_END
      00FF0FEBH   PUBLIC    HCONST   WORD      ?C?INITEDATA_END

      ---         MODULE    ---      ---       ?L?COMMON
L251 LINKER/LOCATER V4.66.93.0                                                        04/08/2024  14:48:14  PAGE 220


      00FF9876H   LINE      ---      ---       #39
      00FF987AH   LINE      ---      ---       #40
      00FF987AH   LINE      ---      ---       #43
      00FF9881H   LINE      ---      ---       #44
      00FF9887H   LINE      ---      ---       #45
      00FF988BH   LINE      ---      ---       #46
      00FF988BH   LINE      ---      ---       #47
      00FF9895H   LINE      ---      ---       #48
      00FF9897H   LINE      ---      ---       #50
      00FF989AH   LINE      ---      ---       #51
      00FF989CH   LINE      ---      ---       #53
      00FF98A6H   LINE      ---      ---       #54
      00FF98AEH   LINE      ---      ---       #55
      00FF98B5H   LINE      ---      ---       #59
      00FF98C1H   LINE      ---      ---       #60
      00FF98C3H   LINE      ---      ---       #61
      00FF98C3H   LINE      ---      ---       #62
      00FF98CCH   LINE      ---      ---       #65
      00FF98CEH   LINE      ---      ---       #66
      00FF98D8H   LINE      ---      ---       #67
      00FF98DFH   LINE      ---      ---       #68
      00FF98EAH   LINE      ---      ---       #69
      00FF990AH   LINE      ---      ---       #70
      00FF9915H   LINE      ---      ---       #71
      00FF9915H   LINE      ---      ---       #73
      00FF9916H   LINE      ---      ---       #75
      00FFBF7FH   SYMBOL    CODE     NEAR LAB  ?L?COM0006
      00FF8F66H   SYMBOL    CODE     NEAR LAB  ?L?COM000A
      00FF3763H   SYMBOL    CODE     NEAR LAB  ?L?COM000F
      00FF319EH   SYMBOL    CODE     NEAR LAB  ?L?COM0011
      00FF4AAFH   SYMBOL    CODE     NEAR LAB  ?L?COM0013
      00FFC93CH   SYMBOL    CODE     NEAR LAB  ?L?COM001A
      00FFD503H   SYMBOL    CODE     NEAR LAB  ?L?COM001F
      00FF4AE3H   SYMBOL    CODE     NEAR LAB  ?L?COM0020
      00FF3F8FH   SYMBOL    CODE     NEAR LAB  ?L?COM0023
      00FF5984H   SYMBOL    CODE     NEAR LAB  ?L?COM0028
      00FF377BH   SYMBOL    CODE     NEAR LAB  ?L?COM002B
      00FF36D1H   SYMBOL    CODE     NEAR LAB  ?L?COM002C
      00FF8F79H   SYMBOL    CODE     NEAR LAB  ?L?COM0032
      00FF37DEH   SYMBOL    CODE     NEAR LAB  ?L?COM003E
      00FF8ED0H   SYMBOL    CODE     NEAR LAB  ?L?COM003F
      00FF37EAH   SYMBOL    CODE     NEAR LAB  ?L?COM0040
      00FFAFAAH   SYMBOL    CODE     NEAR LAB  ?L?COM0041
      00FFA45BH   SYMBOL    CODE     NEAR LAB  ?L?COM0042
      00FFD520H   SYMBOL    CODE     NEAR LAB  ?L?COM0046
      00FFC0B5H   SYMBOL    CODE     NEAR LAB  ?L?COM0048
      00FF37D6H   SYMBOL    CODE     NEAR LAB  ?L?COM004E
      00FF77AFH   SYMBOL    CODE     NEAR LAB  ?L?COM0050
      00FF3F87H   SYMBOL    CODE     NEAR LAB  ?L?COM0056

Program Size: data=16.0 edata+hdata=6519 xdata=0 const=4593 code=49979
L251 RUN COMPLETE.  0 WARNING(S),  0 ERROR(S)
