L251 LINKER/LOCATER V4.66.93.0                                                          02/16/2024  15:12:23  PAGE 1


L251 LINKER/LOCATER V4.66.93.0, INVOKED BY:
C:\KEIL_V5_C251\C251\BIN\L251.EXE .\obj\STARTUP251_RT569MP.obj, .\obj\main.obj, .\obj\rf_task_ctrl.obj, .\obj\intr_rf.ob
>> j, .\obj\sys_init.obj, .\obj\sys_task.obj, .\obj\isr_hdlr.obj, .\obj\sys_ctrl.obj, .\obj\sys_mem.obj, .\obj\sys_mem2.
>> obj, .\obj\sys_qctrl.obj, .\obj\sys_rtc.obj, .\obj\common_isr.obj, .\obj\common_cmd_hdlr.obj, .\obj\common_event_gen.
>> obj, .\obj\common_feature.obj, .\obj\bmu.obj, .\obj\bmu_cmd.obj, .\obj\bmu_common.obj, .\obj\bmu_rx.obj, .\obj\bmu_tx
>> .obj, .\obj\bmu_ble.obj, .\obj\mac.obj, .\obj\mac_frame_parse.obj, .\obj\mac_isr.obj, .\obj\mac_cmd_hdlr.obj, .\obj\m
>> ac_task_ctrl.obj, .\obj\ruci_data_parse.obj, .\obj\mac_event_gen.obj, .\obj\mac_RaaSchedule.obj, .\obj\mac_TarSchedul
>> e.obj, .\obj\mac_cad.obj, .\obj\mac_scheduler.obj, .\obj\mac_RfeRx.obj, .\obj\mac_RfeTx.obj, .\obj\mac_DtmRx.obj, .\o
>> bj\mac_DtmTx.obj, .\obj\mac_htrp_control.obj, .\obj\mac_htrp_rx.obj, .\obj\mac_htrp_tx.obj, .\obj\mac_srcmatch.obj, .
>> \obj\mac_rx_scan.obj, .\obj\msg_ctrl.obj, .\obj\hal.obj, .\obj\hal_cfg.obj, .\obj\hal_mac.obj, .\obj\hal_para.obj, .\
>> obj\hal_phy.obj, .\obj\hal_pkt.obj, .\obj\hal_rf.obj, .\obj\hal_rfdb.obj, .\obj\hal_sec.obj, .\obj\hal_rfk.obj, .\obj
>> \hal_io.obj, .\obj\hal_init.obj, .\obj\hal_patch.obj, .\obj\hal_prtcl.obj, .\obj\hal_rt569mp_init.obj, .\obj\rt569mp_
>> mem.obj, .\obj\rt569mp_reg.obj, .\obj\hal_rt569mp_rfk.obj, .\obj\hal_rt569mp_rf.obj, .\obj\hal_rt569mp_tcon.obj, .\ob
>> j\hal_rt569mp_para.obj, .\obj\hal_rt569mp_pmu.obj, .\obj\Ruci.obj, .\obj\Ruci_Pci15p4MacCmd.obj, .\obj\Ruci_PciBleCmd
>> .obj, .\obj\Ruci_PciCommonCmd.obj, .\obj\Ruci_PciData.obj, .\obj\Ruci_PciEvent.obj, .\obj\Ruci_PciFskCmd.obj, .\obj\R
>> uci_PciOqpskCmd.obj, .\obj\Ruci_PciSlinkCmd.obj, .\obj\Ruci_CmnEvent.obj, .\obj\Ruci_CmnHalCmd.obj, .\obj\Ruci_CmnSys
>> Cmd.obj TO .\obj\RT569 NOOVERLAY REMOVEUNUSED CLASSES (DATA (0X0000-0X007F), IDATA (0X0080-0X0090), EDATA (0XA000-0XB
>> FFF), CODE (0XFF0000-0XFFFFFF), ECODE (0XFF0000-0XFFFFFF), HCONST (0XFF0000-0XFFFFFF))


CPU MODE:     251 SOURCE MODE
INTR FRAME:   4 BYTES SAVED ON INTERRUPT
MEMORY MODEL: XTINY [HUGE PTR]


INPUT MODULES INCLUDED:
  .\obj\STARTUP251_RT569MP.obj (?C_START)
         COMMENT TYPE 0: A251 V4.69.13.0
  .\obj\main.obj (main)
         COMMENT TYPE 0: C251 V5.60.0
  .\obj\rf_task_ctrl.obj (rf_task_ctrl)
         COMMENT TYPE 0: C251 V5.60.0
  .\obj\intr_rf.obj (intr_rf)
         COMMENT TYPE 0: C251 V5.60.0
  .\obj\sys_init.obj (sys_init)
         COMMENT TYPE 0: C251 V5.60.0
  .\obj\sys_task.obj (sys_task)
         COMMENT TYPE 0: C251 V5.60.0
  .\obj\isr_hdlr.obj (isr_hdlr)
         COMMENT TYPE 0: C251 V5.60.0
  .\obj\sys_ctrl.obj (sys_ctrl)
         COMMENT TYPE 0: C251 V5.60.0
  .\obj\sys_mem.obj (SYS_MEM)
         COMMENT TYPE 0: A251 V4.69.13.0
  .\obj\sys_mem2.obj (SYS_MEM2)
         COMMENT TYPE 0: A251 V4.69.13.0
  .\obj\sys_qctrl.obj (sys_qctrl)
         COMMENT TYPE 0: C251 V5.60.0
  .\obj\sys_rtc.obj (sys_rtc)
         COMMENT TYPE 0: C251 V5.60.0
  .\obj\common_isr.obj (common_isr)
         COMMENT TYPE 0: C251 V5.60.0
  .\obj\common_cmd_hdlr.obj (common_cmd_hdlr)
         COMMENT TYPE 0: C251 V5.60.0
  .\obj\common_event_gen.obj (common_event_gen)
         COMMENT TYPE 0: C251 V5.60.0
  .\obj\common_feature.obj (common_feature)
         COMMENT TYPE 0: C251 V5.60.0
  .\obj\bmu.obj (bmu)
         COMMENT TYPE 0: C251 V5.60.0
  .\obj\bmu_cmd.obj (bmu_cmd)
         COMMENT TYPE 0: C251 V5.60.0
  .\obj\bmu_common.obj (bmu_common)
         COMMENT TYPE 0: C251 V5.60.0
  .\obj\bmu_rx.obj (bmu_rx)
         COMMENT TYPE 0: C251 V5.60.0
L251 LINKER/LOCATER V4.66.93.0                                                        02/16/2024  15:12:23  PAGE 2


  .\obj\bmu_tx.obj (bmu_tx)
         COMMENT TYPE 0: C251 V5.60.0
  .\obj\bmu_ble.obj (bmu_ble)
         COMMENT TYPE 0: C251 V5.60.0
  .\obj\mac.obj (mac)
         COMMENT TYPE 0: C251 V5.60.0
  .\obj\mac_frame_parse.obj (mac_frame_parse)
         COMMENT TYPE 0: C251 V5.60.0
  .\obj\mac_isr.obj (mac_isr)
         COMMENT TYPE 0: C251 V5.60.0
  .\obj\mac_cmd_hdlr.obj (mac_cmd_hdlr)
         COMMENT TYPE 0: C251 V5.60.0
  .\obj\mac_task_ctrl.obj (mac_task_ctrl)
         COMMENT TYPE 0: C251 V5.60.0
  .\obj\ruci_data_parse.obj (ruci_data_parse)
         COMMENT TYPE 0: C251 V5.60.0
  .\obj\mac_event_gen.obj (mac_event_gen)
         COMMENT TYPE 0: C251 V5.60.0
  .\obj\mac_RaaSchedule.obj (mac_RaaSchedule)
         COMMENT TYPE 0: C251 V5.60.0
  .\obj\mac_TarSchedule.obj (mac_TarSchedule)
         COMMENT TYPE 0: C251 V5.60.0
  .\obj\mac_cad.obj (mac_cad)
         COMMENT TYPE 0: C251 V5.60.0
  .\obj\mac_scheduler.obj (mac_scheduler)
         COMMENT TYPE 0: C251 V5.60.0
  .\obj\mac_RfeRx.obj (mac_RfeRx)
         COMMENT TYPE 0: C251 V5.60.0
  .\obj\mac_RfeTx.obj (mac_RfeTx)
         COMMENT TYPE 0: C251 V5.60.0
  .\obj\mac_DtmRx.obj (mac_DtmRx)
         COMMENT TYPE 0: C251 V5.60.0
  .\obj\mac_DtmTx.obj (mac_DtmTx)
         COMMENT TYPE 0: C251 V5.60.0
  .\obj\mac_htrp_control.obj (mac_htrp_control)
         COMMENT TYPE 0: C251 V5.60.0
  .\obj\mac_htrp_rx.obj (mac_htrp_rx)
         COMMENT TYPE 0: C251 V5.60.0
  .\obj\mac_htrp_tx.obj (mac_htrp_tx)
         COMMENT TYPE 0: C251 V5.60.0
  .\obj\mac_srcmatch.obj (mac_srcmatch)
         COMMENT TYPE 0: C251 V5.60.0
  .\obj\mac_rx_scan.obj (mac_rx_scan)
         COMMENT TYPE 0: C251 V5.60.0
  .\obj\msg_ctrl.obj (msg_ctrl)
         COMMENT TYPE 0: C251 V5.60.0
  .\obj\hal.obj (hal)
         COMMENT TYPE 0: C251 V5.60.0
  .\obj\hal_cfg.obj (hal_cfg)
         COMMENT TYPE 0: C251 V5.60.0
  .\obj\hal_mac.obj (hal_mac)
         COMMENT TYPE 0: C251 V5.60.0
  .\obj\hal_para.obj (hal_para)
         COMMENT TYPE 0: C251 V5.60.0
  .\obj\hal_phy.obj (hal_phy)
         COMMENT TYPE 0: C251 V5.60.0
  .\obj\hal_pkt.obj (hal_pkt)
         COMMENT TYPE 0: C251 V5.60.0
  .\obj\hal_rf.obj (hal_rf)
         COMMENT TYPE 0: C251 V5.60.0
  .\obj\hal_rfdb.obj (hal_rfdb)
         COMMENT TYPE 0: C251 V5.60.0
  .\obj\hal_sec.obj (hal_sec)
         COMMENT TYPE 0: C251 V5.60.0
  .\obj\hal_rfk.obj (hal_rfk)
L251 LINKER/LOCATER V4.66.93.0                                                        02/16/2024  15:12:23  PAGE 3


         COMMENT TYPE 0: C251 V5.60.0
  .\obj\hal_io.obj (hal_io)
         COMMENT TYPE 0: C251 V5.60.0
  .\obj\hal_init.obj (hal_init)
         COMMENT TYPE 0: C251 V5.60.0
  .\obj\hal_patch.obj (hal_patch)
         COMMENT TYPE 0: C251 V5.60.0
  .\obj\hal_prtcl.obj (hal_prtcl)
         COMMENT TYPE 0: C251 V5.60.0
  .\obj\hal_rt569mp_init.obj (hal_rt569mp_init)
         COMMENT TYPE 0: C251 V5.60.0
  .\obj\rt569mp_mem.obj (rt569mp_mem)
         COMMENT TYPE 0: C251 V5.60.0
  .\obj\rt569mp_reg.obj (rt569mp_reg)
         COMMENT TYPE 0: C251 V5.60.0
  .\obj\hal_rt569mp_rfk.obj (hal_rt569mp_rfk)
         COMMENT TYPE 0: C251 V5.60.0
  .\obj\hal_rt569mp_rf.obj (hal_rt569mp_rf)
         COMMENT TYPE 0: C251 V5.60.0
  .\obj\hal_rt569mp_tcon.obj (hal_rt569mp_tcon)
         COMMENT TYPE 0: C251 V5.60.0
  .\obj\hal_rt569mp_para.obj (hal_rt569mp_para)
         COMMENT TYPE 0: C251 V5.60.0
  .\obj\hal_rt569mp_pmu.obj (hal_rt569mp_pmu)
         COMMENT TYPE 0: C251 V5.60.0
  .\obj\Ruci.obj (Ruci)
         COMMENT TYPE 0: C251 V5.60.0
  .\obj\Ruci_Pci15p4MacCmd.obj (Ruci_Pci15p4MacCmd)
         COMMENT TYPE 0: C251 V5.60.0
  .\obj\Ruci_PciBleCmd.obj (Ruci_PciBleCmd)
         COMMENT TYPE 0: C251 V5.60.0
  .\obj\Ruci_PciCommonCmd.obj (Ruci_PciCommonCmd)
         COMMENT TYPE 0: C251 V5.60.0
  .\obj\Ruci_PciData.obj (Ruci_PciData)
         COMMENT TYPE 0: C251 V5.60.0
  .\obj\Ruci_PciEvent.obj (Ruci_PciEvent)
         COMMENT TYPE 0: C251 V5.60.0
  .\obj\Ruci_PciFskCmd.obj (Ruci_PciFskCmd)
         COMMENT TYPE 0: C251 V5.60.0
  .\obj\Ruci_PciOqpskCmd.obj (Ruci_PciOqpskCmd)
         COMMENT TYPE 0: C251 V5.60.0
  .\obj\Ruci_PciSlinkCmd.obj (Ruci_PciSlinkCmd)
         COMMENT TYPE 0: C251 V5.60.0
  .\obj\Ruci_CmnEvent.obj (Ruci_CmnEvent)
         COMMENT TYPE 0: C251 V5.60.0
  .\obj\Ruci_CmnHalCmd.obj (Ruci_CmnHalCmd)
         COMMENT TYPE 0: C251 V5.60.0
  .\obj\Ruci_CmnSysCmd.obj (Ruci_CmnSysCmd)
         COMMENT TYPE 0: C251 V5.60.0
  C:\KEIL_V5_C251\C251\LIB\C2SXT.LIB (?C?INITEDATA)
         COMMENT TYPE 0: A251 V4.69.6.0
  C:\KEIL_V5_C251\C251\LIB\C2SXT.LIB (?C?SIDIV)
         COMMENT TYPE 0: A251 V4.69.6.0
  C:\KEIL_V5_C251\C251\LIB\C2SXT.LIB (?C?LMUL)
         COMMENT TYPE 0: A251 V4.69.6.0
  C:\KEIL_V5_C251\C251\LIB\C2SXT.LIB (?C?LIMUL)
         COMMENT TYPE 0: A251 V4.69.6.0
  C:\KEIL_V5_C251\C251\LIB\C2SXT.LIB (?C?ULDIV)
         COMMENT TYPE 0: A251 V4.69.6.0
  C:\KEIL_V5_C251\C251\LIB\C2SXT.LIB (memcpy)
         COMMENT TYPE 0: C251 V5.58.7
  C:\KEIL_V5_C251\C251\LIB\C2SXT.LIB (memset)
         COMMENT TYPE 0: C251 V5.58.7
  C:\KEIL_V5_C251\C251\LIB\C2SXT.LIB (hmemcpy)
         COMMENT TYPE 0: C251 V5.58.7
L251 LINKER/LOCATER V4.66.93.0                                                        02/16/2024  15:12:23  PAGE 4


  C:\KEIL_V5_C251\C251\LIB\C2SXT.LIB (?C?INITEDATA_END)
         COMMENT TYPE 0: A251 V4.69.6.0


ACTIVE MEMORY CLASSES OF MODULE:  .\obj\RT569 (?C_START)

BASE        START       END         USED      MEMORY CLASS
==========================================================
000000H     000000H     00007FH     000010H   DATA
000000H     000080H     000090H               IDATA
000000H     00A000H     00BFFFH     0018EFH   EDATA
FF0000H     FF0000H     FFFFFFH     00BB23H   CODE
000000H     FF0000H     FFFFFFH               ECODE
000000H     FF0000H     FFFFFFH     001189H   HCONST


MEMORY MAP OF MODULE:  .\obj\RT569 (?C_START)


START     STOP      LENGTH    ALIGN  RELOC    MEMORY CLASS   SEGMENT NAME
=========================================================================
000000H   000007H   000008H   ---    AT..     DATA           "REG BANK 0"
000008H   00000FH   000008H   ---    AT..     DATA           "REG BANK 1"
000010H   0000FFH   0000F0H   ---    ---      **GAP**
000100H   0003FFH   000300H   BYTE   AT..     EDATA          ?STACK
000400H   009FFFH   009C00H   ---    ---      **GAP**
00A000H   00A925H   000926H   BYTE   UNIT     EDATA          ?ED?MAC_TARSCHEDULE
00A926H   00AC46H   000321H   BYTE   UNIT     EDATA          ?ED?MAC_SRCMATCH
00AC47H   00AEDCH   000296H   BYTE   UNIT     EDATA          ?ED?SYS_QCTRL
00AEDDH   00B0B3H   0001D7H   BYTE   UNIT     EDATA          ?ED?HAL_INIT
00B0B4H   00B1F0H   00013DH   BYTE   UNIT     EDATA          ?ED?MAC_HTRP_CONTROL
00B1F1H   00B27EH   00008EH   BYTE   UNIT     EDATA          ?ED?COMMON_ISR
00B27FH   00B2B3H   000035H   BYTE   UNIT     EDATA          ?ED?MAC
00B2B4H   00B2E5H   000032H   BYTE   UNIT     EDATA          ?ED?MAC_RAASCHEDULE
00B2E6H   00B30AH   000025H   BYTE   UNIT     EDATA          ?ED?MAC_TAR_CHECK_DATA_REQUST?MAC_TARSCHEDULE
00B30BH   00B32CH   000022H   BYTE   UNIT     EDATA          ?ED?HALRFK_CALIBRATION?HAL_RFK
00B32DH   00B34CH   000020H   BYTE   UNIT     EDATA          ?ED?MAC_HTRP_RX_HANDLER?MAC_HTRP_RX
00B34DH   00B369H   00001DH   BYTE   UNIT     EDATA          ?ED?MAC_CMD_HDLR
00B36AH   00B382H   000019H   BYTE   UNIT     EDATA          ?ED?MAC_RFERX
00B383H   00B399H   000017H   BYTE   UNIT     EDATA          ?ED?T2RTASK_SET?MAC_TASK_CTRL
00B39AH   00B3ACH   000013H   BYTE   UNIT     EDATA          ?ED?HALRF_FREQSUBGCFG?HAL_RT569MP_RF
00B3ADH   00B3BEH   000012H   BYTE   UNIT     EDATA          ?ED?TRTTASK_SET?MAC_TASK_CTRL
00B3BFH   00B3D0H   000012H   BYTE   UNIT     EDATA          ?ED?TXCONTTASK_SET?MAC_TASK_CTRL
00B3D1H   00B3E2H   000012H   BYTE   UNIT     EDATA          ?ED?MAC_HTRP_TX_HANDLER?MAC_HTRP_TX
00B3E3H   00B3F3H   000011H   BYTE   UNIT     EDATA          ?ED?MAC_RFETX
00B3F4H   00B404H   000011H   BYTE   UNIT     EDATA          ?ED?RUCI_ENDIANCONVERT?RUCI
00B405H   00B414H   000010H   BYTE   UNIT     EDATA          ?ED?INTR_RF
00B415H   00B423H   00000FH   BYTE   UNIT     EDATA          ?ED?MAC_HTRP_RX_SET_NEXT_TASK_AND_CHANNEL?MAC_HTRP_RX
00B424H   00B432H   00000FH   BYTE   UNIT     EDATA          ?ED?MAC_HTRP_TX_SLOT_RX_DONE?MAC_HTRP_TX
00B433H   00B441H   00000FH   BYTE   UNIT     EDATA          ?ED?MAC_HTRP_TX_PERIOD_BURST_RX_DONE?MAC_HTRP_TX
00B442H   00B44FH   00000EH   BYTE   UNIT     EDATA          ?ED?RXTASK_ALWAYSON_SET?MAC_TASK_CTRL
00B450H   00B45DH   00000EH   BYTE   UNIT     EDATA          ?ED?R2TTASK_SET?MAC_TASK_CTRL
00B45EH   00B46BH   00000EH   BYTE   UNIT     EDATA          ?ED?RXTASK_TIMEOUT_SET?MAC_TASK_CTRL
00B46CH   00B479H   00000EH   BYTE   UNIT     EDATA          ?ED?TXTASK_SET?MAC_TASK_CTRL
00B47AH   00B487H   00000EH   BYTE   UNIT     EDATA          ?ED?TXRTCTASK_SET?MAC_TASK_CTRL
00B488H   00B495H   00000EH   BYTE   UNIT     EDATA          ?ED?MAC_HTRP_RX_SET_RF_TASK?MAC_HTRP_RX
00B496H   00B4A3H   00000EH   BYTE   UNIT     EDATA          ?ED?MAC_HTRP_TX_SET_RF_TASK?MAC_HTRP_TX
00B4A4H   00B4AFH   00000CH   BYTE   UNIT     EDATA          ?ED?COMMON_ISRBMUCHECKTX?COMMON_ISR
00B4B0H   00B4BBH   00000CH   BYTE   UNIT     EDATA          ?ED?BMU_TRXQUEUEGET?BMU_COMMON
00B4BCH   00B4C7H   00000CH   BYTE   UNIT     EDATA          ?ED?BMU_TRXQUEUESET?BMU_COMMON
00B4C8H   00B4D3H   00000CH   BYTE   UNIT     EDATA          ?ED?MAC_RFETXSCHEDULE?MAC_RFETX
00B4D4H   00B4DFH   00000CH   BYTE   UNIT     EDATA          ?ED?MAC_HTRP_RX_SET_PERIOD_NEXT_TASK?MAC_HTRP_RX
00B4E0H   00B4E9H   00000AH   BYTE   UNIT     EDATA          ?ED?MAC_HTRP_RX_PERIOD_TX_DONE?MAC_HTRP_RX
00B4EAH   00B4F3H   00000AH   BYTE   UNIT     EDATA          ?ED?MAC_HTRP_TX_BURST_TX_DONE?MAC_HTRP_TX
00B4F4H   00B4FDH   00000AH   BYTE   UNIT     EDATA          ?ED?MAC_HTRP_TX_PERIOD_BURST_TX_DONE?MAC_HTRP_TX
L251 LINKER/LOCATER V4.66.93.0                                                        02/16/2024  15:12:23  PAGE 5


00B4FEH   00B507H   00000AH   BYTE   UNIT     EDATA          ?ED?HALRF_FREQ2GCFG?HAL_RT569MP_RF
00B508H   00B510H   000009H   BYTE   UNIT     EDATA          ?ED?HALRFK_TXSBK?HAL_RT569MP_RFK
00B511H   00B518H   000008H   BYTE   UNIT     EDATA          ?ED?Q_QPUSHBACK?SYS_QCTRL
00B519H   00B520H   000008H   BYTE   UNIT     EDATA          ?ED?BMU_RX
00B521H   00B528H   000008H   BYTE   UNIT     EDATA          ?ED?MAC_ISR
00B529H   00B530H   000008H   BYTE   UNIT     EDATA          ?ED?MAC_GETCSLPHASE?MAC_RAASCHEDULE
00B531H   00B538H   000008H   BYTE   UNIT     EDATA          ?ED?MAC_RAA_SCHCONFIGHDLR?MAC_RAASCHEDULE
00B539H   00B540H   000008H   BYTE   UNIT     EDATA          ?ED?MAC_TAR_SCHCONFIGHDLR?MAC_TARSCHEDULE
00B541H   00B548H   000008H   BYTE   UNIT     EDATA          ?ED?MAC_RFERXSCHEDULE?MAC_RFERX
00B549H   00B54FH   000007H   BYTE   UNIT     EDATA          ?ED?HALPHY_RXBWSET?HAL_PHY
00B550H   00B555H   000006H   BYTE   UNIT     EDATA          ?ED?SYS_CTRL
00B556H   00B55BH   000006H   BYTE   UNIT     EDATA          ?ED?SYS_RAND?SYS_CTRL
00B55CH   00B561H   000006H   BYTE   UNIT     EDATA          ?ED?Q_QPUSHFRONT?SYS_QCTRL
00B562H   00B567H   000006H   BYTE   UNIT     EDATA          ?ED?SYS_RTC
00B568H   00B56DH   000006H   BYTE   UNIT     EDATA          ?ED?HALRFK_RXFILTK?HAL_RT569MP_RFK
00B56EH   00B572H   000005H   BYTE   UNIT     EDATA          ?ED?SYS_TASK
00B573H   00B577H   000005H   BYTE   UNIT     EDATA          ?ED?MAC_HTRP_RELAY_DATA_TO_SW_RXQ?MAC_HTRP_CONTROL
00B578H   00B57CH   000005H   BYTE   UNIT     EDATA          ?ED?MSG_CTRL
00B57DH   00B580H   000004H   BYTE   UNIT     EDATA          ?ED?RTC_UDELAY?SYS_RTC
00B581H   00B584H   000004H   BYTE   UNIT     EDATA          ?ED?BMU_MEMALLOCATE?BMU
00B585H   00B588H   000004H   BYTE   UNIT     EDATA          ?ED?BMU_PRIVACYIRKSINGLESEARCH?BMU_BLE
00B589H   00B58CH   000004H   BYTE   UNIT     EDATA          ?ED?PCI_SETRFFREQ?MAC_CMD_HDLR
00B58DH   00B590H   000004H   BYTE   UNIT     EDATA          ?ED?MAC_TASK_CTRL
00B591H   00B594H   000004H   BYTE   UNIT     EDATA          ?ED?MAC_GENENHACK?MAC_RAASCHEDULE
00B595H   00B598H   000004H   BYTE   UNIT     EDATA          ?ED?MAC_SECLBHWSET?MAC_TARSCHEDULE
00B599H   00B59CH   000004H   BYTE   UNIT     EDATA          ?ED?MAC_CCASTART?MAC_TARSCHEDULE
00B59DH   00B5A0H   000004H   BYTE   UNIT     EDATA          ?ED?HALSEC_AESSET?HAL_SEC
00B5A1H   00B5A4H   000004H   BYTE   UNIT     EDATA          ?ED?HAL_HWINIT?HAL_RT569MP_INIT
00B5A5H   00B5A8H   000004H   BYTE   UNIT     EDATA          ?ED?HAL_RT569MP_RFK
00B5A9H   00B5ACH   000004H   BYTE   UNIT     EDATA          ?ED?HALRFK_TXLOK?HAL_RT569MP_RFK
00B5ADH   00B5B0H   000004H   BYTE   UNIT     EDATA          ?ED?HALRF_IFCHECK?HAL_RT569MP_RF
00B5B1H   00B5B3H   000003H   BYTE   UNIT     EDATA          ?ED?Q_QCHAGETYPE?SYS_QCTRL
00B5B4H   00B5B6H   000003H   BYTE   UNIT     EDATA          ?ED?COMMON_ISRBMUTXQPCIGET?COMMON_ISR
00B5B7H   00B5B9H   000003H   BYTE   UNIT     EDATA          ?ED?PANIDPRESENT?MAC_FRAME_PARSE
00B5BAH   00B5BCH   000003H   BYTE   UNIT     EDATA          ?ED?PCI_SETWAKEONRADIO?MAC_CMD_HDLR
00B5BDH   00B5BFH   000003H   BYTE   UNIT     EDATA          ?ED?MAC_TXHWSET?MAC_TARSCHEDULE
00B5C0H   00B5C2H   000003H   BYTE   UNIT     EDATA          ?ED?MAC_HTRP_RX
00B5C3H   00B5C5H   000003H   BYTE   UNIT     EDATA          ?ED?HALRFK_RINGPLLSET?HAL_RT569MP_RFK
00B5C6H   00B5C7H   000002H   BYTE   UNIT     EDATA          ?ED?BMU_HWINIT?BMU
00B5C8H   00B5C9H   000002H   BYTE   UNIT     EDATA          ?ED?BMU_COMMON
00B5CAH   00B5CBH   000002H   BYTE   UNIT     EDATA          ?ED?BMU_LRXSHAREQISFULL?BMU_RX
00B5CCH   00B5CDH   000002H   BYTE   UNIT     EDATA          ?ED?PCI_SETPHR?MAC_CMD_HDLR
00B5CEH   00B5CFH   000002H   BYTE   UNIT     EDATA          ?ED?PCI_PARSET15P4SMENTRYCTRL?MAC_CMD_HDLR
00B5D0H   00B5D1H   000002H   BYTE   UNIT     EDATA          ?ED?MAC_GENACK?MAC_RAASCHEDULE
00B5D2H   00B5D3H   000002H   BYTE   UNIT     EDATA          ?ED?MAC_ACKFRAMECHECK?MAC_TARSCHEDULE
00B5D4H   00B5D5H   000002H   BYTE   UNIT     EDATA          ?ED?MAC_RFEDATAGEN?MAC_RFETX
00B5D6H   00B5D7H   000002H   BYTE   UNIT     EDATA          ?ED?MAC_HTRP_CLEAR_RX_QUEUE?MAC_HTRP_CONTROL
00B5D8H   00B5D9H   000002H   BYTE   UNIT     EDATA          ?ED?MAC_HTRP_SET_TX_QUEUE?MAC_HTRP_CONTROL
00B5DAH   00B5DBH   000002H   BYTE   UNIT     EDATA          ?ED?MAC_HTRP_TX
00B5DCH   00B5DDH   000002H   BYTE   UNIT     EDATA          ?ED?MAC_SRCMATCH_LISTCLEAR?MAC_SRCMATCH
00B5DEH   00B5DFH   000002H   BYTE   UNIT     EDATA          ?ED?MSG_INMSGPROC?MSG_CTRL
00B5E0H   00B5E1H   000002H   BYTE   UNIT     EDATA          ?ED?HAL_RF
00B5E2H   00B5E2H   000001H   BYTE   UNIT     EDATA          ?ED?BMU_H2MCMDGET?BMU_CMD
00B5E3H   00B5E3H   000001H   BYTE   UNIT     EDATA          ?ED?BMU_PRIVACYLOCALRPAGEN?BMU_BLE
00B5E4H   00B5E4H   000001H   BYTE   UNIT     EDATA          ?ED?MAC_TRXPAR_INIT?MAC
00B5E5H   00B5E5H   000001H   BYTE   UNIT     EDATA          ?ED?GET_PAN_NUMBER?MAC_CMD_HDLR
00B5E6H   00B5E6H   000001H   BYTE   UNIT     EDATA          ?ED?PCI_SETCLOCKMODE?MAC_CMD_HDLR
00B5E7H   00B5E7H   000001H   BYTE   UNIT     EDATA          ?ED?MAC_CMDQUEUEPARSE?MAC_CMD_HDLR
00B5E8H   00B5E8H   000001H   BYTE   UNIT     EDATA          ?ED?MAC_BACKOFFTIMECAL?MAC_TARSCHEDULE
00B5E9H   00B5E9H   000001H   BYTE   UNIT     EDATA          ?ED?MAC_TAR_SCHWAITCCADONEHDLR?MAC_TARSCHEDULE
00B5EAH   00B5EAH   000001H   BYTE   UNIT     EDATA          ?ED?MAC_RFERXDATACONFIRM?MAC_RFERX
00B5EBH   00B5EBH   000001H   BYTE   UNIT     EDATA          ?ED?MAC_SRCMATCH_LISTINIT?MAC_SRCMATCH
00B5ECH   00B5ECH   000001H   BYTE   UNIT     EDATA          ?ED?MAC_SRCMATCH_LISTADDSHORT?MAC_SRCMATCH
00B5EDH   00B5EDH   000001H   BYTE   UNIT     EDATA          ?ED?MAC_SRCMATCH_LISTADDEXTENDED?MAC_SRCMATCH
00B5EEH   00B5EEH   000001H   BYTE   UNIT     EDATA          ?ED?HALRFK_RSSIGET?HAL_RT569MP_RFK
L251 LINKER/LOCATER V4.66.93.0                                                        02/16/2024  15:12:23  PAGE 6


00B5EFH   FEFFFFH   FE4A11H   ---    ---      **GAP**
FF0000H   FF0002H   000003H   ---    OFFS..   CODE           ?CO?STARTUP251_RT569MP?4
FF0003H   FF0005H   000003H   ---    OFFS..   CODE           ?PR?IV?0
FF0006H   FF0007H   000002H   BYTE   UNIT     HCONST         ?HC?RT569MP_REG
FF0008H   FF000AH   000003H   BYTE   INSEG    CODE           ?PR?ALLTASK_STOP?MAC_TASK_CTRL
FF000BH   FF000DH   000003H   ---    OFFS..   CODE           ?PR?IV?1
FF000EH   FF00ACH   00009FH   BYTE   UNIT     CODE           ?C?LIB_CODE
FF00ADH   FF010BH   00005FH   BYTE   UNIT     CODE           ?PR?ASM_MEMCPY??SYS_MEM2
FF010CH   FF0122H   000017H   BYTE   UNIT     CODE           ?C_C51STARTUP
FF0123H   FF014BH   000029H   BYTE   UNIT     CODE           ?C_C51STARTUP?2
FF014CH   FF014EH   000003H   BYTE   UNIT     CODE           ?C_C51STARTUP?3
FF014FH   FF018FH   000041H   BYTE   UNIT     CODE           ?PR?ASM_MEMSET??SYS_MEM
FF0190H   FF01AEH   00001FH   BYTE   INSEG    CODE           ?PR?MEMCPY?_?MEMCPY
FF01AFH   FF01CDH   00001FH   BYTE   INSEG    CODE           ?PR?HMEMCPY?_?HMEMCPY
FF01CEH   FF01E1H   000014H   BYTE   INSEG    CODE           ?PR?MEMSET?_?MEMSET
FF01E2H   FF082AH   000649H   BYTE   UNIT     HCONST         ?HC?HAL_RT569MP_PARA
FF082BH   FF0CDDH   0004B3H   BYTE   UNIT     HCONST         ?HC?HAL_PARA
FF0CDEH   FF0F90H   0002B3H   BYTE   UNIT     HCONST         ?C_INITEDATA
FF0F91H   FF1096H   000106H   BYTE   UNIT     HCONST         ?HC?MAC_RFETX
FF1097H   FF1146H   0000B0H   BYTE   UNIT     HCONST         ?HC?HAL_CFG
FF1147H   FF11A2H   00005CH   BYTE   UNIT     HCONST         ?HC?RUCI_PCICOMMONCMD
FF11A3H   FF11F3H   000051H   BYTE   UNIT     HCONST         ?HC?MAC_CMD_HDLR
FF11F4H   FF1237H   000044H   BYTE   UNIT     HCONST         ?HC?HAL_INIT
FF1238H   FF127BH   000044H   BYTE   UNIT     HCONST         ?HC?RUCI_PCI15P4MACCMD
FF127CH   FF12A5H   00002AH   BYTE   UNIT     HCONST         ?HC?RUCI_PCIBLECMD
FF12A6H   FF12CCH   000027H   BYTE   UNIT     HCONST         ?HC?HAL_PRTCL
FF12CDH   FF12F0H   000024H   BYTE   UNIT     HCONST         ?HC?RUCI_CMNEVENT
FF12F1H   FF130AH   00001AH   BYTE   UNIT     HCONST         ?HC?RUCI_CMNHALCMD
FF130BH   FF1322H   000018H   BYTE   UNIT     HCONST         ?HC?HAL_RT569MP_RF
FF1323H   FF1338H   000016H   BYTE   UNIT     HCONST         ?HC?RUCI_PCIDATA
FF1339H   FF134AH   000012H   BYTE   UNIT     HCONST         ?HC?RUCI_PCIEVENT
FF134BH   FF135AH   000010H   BYTE   UNIT     HCONST         ?HC?BMU_COMMON
FF135BH   FF1362H   000008H   BYTE   UNIT     HCONST         ?HC?RUCI_PCIFSKCMD
FF1363H   FF1368H   000006H   BYTE   UNIT     HCONST         ?HC?RT569MP_MEM
FF1369H   FF136FH   000007H   BYTE   INSEG    CODE           ?PR?MAIN?MAIN
FF1370H   FF13A8H   000039H   BYTE   INSEG    CODE           ?PR?SYS_INIT?SYS_INIT
FF13A9H   FF13B5H   00000DH   BYTE   INSEG    CODE           ?PR?SYS_IDLETASKINIT?SYS_CTRL
FF13B6H   FF13C8H   000013H   BYTE   INSEG    CODE           ?PR?MSG_HDLRINIT?MSG_CTRL
FF13C9H   FF13D4H   00000CH   BYTE   INSEG    CODE           ?PR?SYS_IDLETASKINTINIT?SYS_CTRL
FF13D5H   FF1421H   00004DH   BYTE   INSEG    CODE           ?PR?INTR_RF_REGISTER?INTR_RF
FF1422H   FF1430H   00000FH   BYTE   INSEG    CODE           ?PR?COMMON_ISR_INIT?COMMON_ISR
FF1431H   FF1469H   000039H   BYTE   INSEG    CODE           ?PR?MAC_INIT?MAC
FF146AH   FF14ABH   000042H   BYTE   INSEG    CODE           ?PR?RF_TASK_ALLSTOP?RF_TASK_CTRL
FF14ACH   FF16DCH   000231H   BYTE   INSEG    CODE           ?PR?MAC_RFETXSCHEDULE?MAC_RFETX
FF16DDH   FF1723H   000047H   BYTE   INSEG    CODE           ?PR?SYS_TRAP?SYS_CTRL
FF1724H   FF177AH   000057H   BYTE   INSEG    CODE           ?PR?MSG_INMSGPROC?MSG_CTRL
FF177BH   FF1795H   00001BH   BYTE   INSEG    CODE           ?PR?Q_MEMGET?SYS_QCTRL
FF1796H   FF17BCH   000027H   BYTE   INSEG    CODE           ?PR?MAC_HTRP_RX_INIT?MAC_HTRP_RX
FF17BDH   FF17C8H   00000CH   BYTE   INSEG    CODE           ?PR?MAC_ISRINIT?MAC_ISR
FF17C9H   FF17DFH   000017H   BYTE   INSEG    CODE           ?PR?MSG_HDLR?MSG_CTRL
FF17E0H   FF17E4H   000005H   BYTE   INSEG    CODE           ?PR?INTR_ENABLE?INTR_RF
FF17E5H   FF17E9H   000005H   BYTE   INSEG    CODE           ?PR?MAC_HTRP_RX_SET_STATE?MAC_HTRP_RX
FF17EAH   FF17EFH   000006H   BYTE   INSEG    CODE           ?PR?MAC_HTRP_TX_INIT?MAC_HTRP_TX
FF17F0H   FF17FBH   00000CH   BYTE   INSEG    CODE           ?PR?MAC_FUNEVENTQINIT?MAC
FF17FCH   FF181AH   00001FH   BYTE   INSEG    CODE           ?PR?Q_MEMALLOC?SYS_QCTRL
FF181BH   FF185CH   000042H   BYTE   INSEG    CODE           ?PR?RF_TASK_EN?RF_TASK_CTRL
FF185DH   FF1906H   0000AAH   BYTE   INSEG    CODE           ?PR?TRTTASK_SET?MAC_TASK_CTRL
FF1907H   FF19B4H   0000AEH   BYTE   INSEG    CODE           ?PR?RF_TASK_SET?RF_TASK_CTRL
FF19B5H   FF1AD8H   000124H   BYTE   INSEG    CODE           ?PR?T2RTASK_SET?MAC_TASK_CTRL
FF1AD9H   FF1B95H   0000BDH   BYTE   INSEG    CODE           ?PR?MAC_HTRP_RX_SET_RF_TASK?MAC_HTRP_RX
FF1B96H   FF1DACH   000217H   BYTE   INSEG    CODE           ?PR?MAC_HTRP_RX_SET_PERIOD_NEXT_TASK?MAC_HTRP_RX
FF1DADH   FF1DC3H   000017H   BYTE   INSEG    CODE           ?PR?MAC_HTRP_CTRL_CHANNEL_SET?MAC_HTRP_CONTROL
FF1DC4H   FF1DDCH   000019H   BYTE   INSEG    CODE           ?PR?RTC_CLKGET?_?SYS_RTC
FF1DDDH   FF1E63H   000087H   BYTE   INSEG    CODE           ?PR?MAC_HTRP_RX_CAL_DRIFT_TIME?MAC_HTRP_RX
FF1E64H   FF1F20H   0000BDH   BYTE   INSEG    CODE           ?PR?MAC_HTRP_RX_SET_NEXT_TASK_AND_CHANNEL?MAC_HTRP_RX
L251 LINKER/LOCATER V4.66.93.0                                                        02/16/2024  15:12:23  PAGE 7


FF1F21H   FF1F38H   000018H   BYTE   INSEG    CODE           ?PR?RTC_TICKGAPCOUNT?SYS_RTC
FF1F39H   FF1FA4H   00006CH   BYTE   INSEG    CODE           ?PR?TXCONTTASK_SET?MAC_TASK_CTRL
FF1FA5H   FF1FA9H   000005H   BYTE   INSEG    CODE           ?PR?MAC_HTRP_RX_GET_STATE?MAC_HTRP_RX
FF1FAAH   FF1FB5H   00000CH   BYTE   UNIT     CODE           ?L?COM003C
FF1FB6H   FF1FE4H   00002FH   BYTE   INSEG    CODE           ?PR?MAC_HTRP_CTRL_INCREASE_CHANNEL_INDEX?MAC_HTRP_CONTROL
FF1FE5H   FF1FECH   000008H   BYTE   UNIT     CODE           ?L?COM0038
FF1FEDH   FF1FF4H   000008H   BYTE   UNIT     CODE           ?L?COM0046
FF1FF5H   FF1FFCH   000008H   BYTE   INSEG    CODE           ?PR?MAC_HTRP_RX_SLOT_TX_DONE?MAC_HTRP_RX
FF1FFDH   FF2025H   000029H   BYTE   INSEG    CODE           ?PR?INTR_CLEAR?INTR_RF
FF2026H   FF2036H   000011H   BYTE   INSEG    CODE           ?PR?INTR_CLEARRTCGRP?INTR_RF
FF2037H   FF2045H   00000FH   BYTE   INSEG    CODE           ?PR?INTR_RF_HDLR?INTR_RF
FF2046H   FF20CCH   000087H   BYTE   INSEG    CODE           ?PR?ISR_0_HDLR?ISR_HDLR
FF20CDH   FF20CDH   000001H   BYTE   INSEG    CODE           ?PR?INTR_RF_NULLHDLR?INTR_RF
FF20CEH   FF2109H   00003CH   BYTE   INSEG    CODE           ?PR?SYS_INFOREGINIT?SYS_INIT
FF210AH   FF2134H   00002BH   BYTE   INSEG    CODE           ?PR?SYS_TASK_BLOCK?SYS_TASK
FF2135H   FF238CH   000258H   BYTE   INSEG    CODE           ?PR?MAC_HTRP_TX_HANDLER?MAC_HTRP_TX
FF238DH   FF2391H   000005H   BYTE   INSEG    CODE           ?PR?MAC_HTRP_TX_SET_STATE?MAC_HTRP_TX
FF2392H   FF2481H   0000F0H   BYTE   INSEG    CODE           ?PR?MAC_HTRP_SET_TX_QUEUE?MAC_HTRP_CONTROL
FF2482H   FF248AH   000009H   BYTE   INSEG    CODE           ?PR?MAC_HTRP_REG_ISR_CB?MAC_HTRP_CONTROL
FF248BH   FF249DH   000013H   BYTE   INSEG    CODE           ?PR?MAC_HTRP_GET_TX_DATA?MAC_HTRP_CONTROL
FF249EH   FF24CAH   00002DH   BYTE   INSEG    CODE           ?PR?MAC_FUNEVENTQGET?_?MAC
FF24CBH   FF24FCH   000032H   BYTE   INSEG    CODE           ?PR?SYS_TASK_UNBLOCK?SYS_TASK
FF24FDH   FF252BH   00002FH   BYTE   INSEG    CODE           ?PR?HALMAC_PHRSET?HAL_MAC
FF252CH   FF2578H   00004DH   BYTE   INSEG    CODE           ?PR?HALPKT_TXQDONESET?HAL_PKT
FF2579H   FF25A8H   000030H   BYTE   INSEG    CODE           ?PR?MAC_INTEVENTQUEUECLEARTXDATA?MAC
FF25A9H   FF25C0H   000018H   BYTE   INSEG    CODE           ?PR?MACTXFREEBMUDATA?MAC_TARSCHEDULE
FF25C1H   FF25FCH   00003CH   BYTE   INSEG    CODE           ?PR?MAC_INTEVENTQADD?_?MAC
FF25FDH   FF26A5H   0000A9H   BYTE   INSEG    CODE           ?PR?MAC_TXGETBMUDATA?MAC_TARSCHEDULE
FF26A6H   FF2726H   000081H   BYTE   INSEG    CODE           ?PR?MAC_TXDONEEVENTGEN?MAC_TARSCHEDULE
FF2727H   FF275FH   000039H   BYTE   INSEG    CODE           ?PR?MAC_HTRP_ISR_TX_DONE_HANDLER?MAC_HTRP_CONTROL
FF2760H   FF279BH   00003CH   BYTE   INSEG    CODE           ?PR?MAC_FUNEVENTQADD?_?MAC
FF279CH   FF27E9H   00004EH   BYTE   INSEG    CODE           ?PR?MAC_RAA_SCHWAITRXDONEHDLR?MAC_RAASCHEDULE
FF27EAH   FF27EEH   000005H   BYTE   INSEG    CODE           ?PR?MAC_HTRP_TX_GET_STATE?MAC_HTRP_TX
FF27EFH   FF27F4H   000006H   BYTE   INSEG    CODE           ?PR?MAC_ORG_TX_DONE_HANDLER?MAC_TARSCHEDULE
FF27F5H   FF2821H   00002DH   BYTE   INSEG    CODE           ?PR?MAC_INTEVENTQGET?_?MAC
FF2822H   FF2850H   00002FH   BYTE   INSEG    CODE           ?PR?SYS_TASK_REGISTER?SYS_TASK
FF2851H   FF287EH   00002EH   BYTE   INSEG    CODE           ?PR?SYS_TASK_RUN?SYS_TASK
FF287FH   FF287FH   000001H   BYTE   INSEG    CODE           ?PR?SYS_NULL_TASK?SYS_TASK
FF2880H   FF2890H   000011H   BYTE   INSEG    CODE           ?PR?ISR_CLEAR_MAC_STATUS?ISR_HDLR
FF2891H   FF2899H   000009H   BYTE   INSEG    CODE           ?PR?MAC_FATALCLEAR?MAC
FF289AH   FF28F0H   000057H   BYTE   INSEG    CODE           ?PR?HALPKT_RXQDONESET?HAL_PKT
FF28F1H   FF29BCH   0000CCH   BYTE   INSEG    CODE           ?PR?SETRFIDLE?MAC_CMD_HDLR
FF29BDH   FF2AAAH   0000EEH   BYTE   INSEG    CODE           ?PR?MAC_TAR_SCHWAITACKRXDONEHDLR?MAC_TARSCHEDULE
FF2AABH   FF2DAFH   000305H   BYTE   INSEG    CODE           ?PR?MAC_RFERXSCHEDULE?MAC_RFERX
FF2DB0H   FF2DBEH   00000FH   BYTE   INSEG    CODE           ?PR?MAC_FUNEVENTQUEUEEXIST?MAC
FF2DBFH   FF2DCCH   00000EH   BYTE   INSEG    CODE           ?PR?MAC_RFERXAONTASKDISABLE?MAC_RFERX
FF2DCDH   FF2E13H   000047H   BYTE   INSEG    CODE           ?PR?MAC_RFERXDISABLE?MAC_RFERX
FF2E14H   FF2E49H   000036H   BYTE   INSEG    CODE           ?PR?RXTASK_ALWAYSON_SET?MAC_TASK_CTRL
FF2E4AH   FF2E5DH   000014H   BYTE   INSEG    CODE           ?PR?PCI_SETRFETXDISABLECMD?MAC_CMD_HDLR
FF2E5EH   FF2E71H   000014H   BYTE   INSEG    CODE           ?PR?PCI_SETRFIDLE?MAC_CMD_HDLR
FF2E72H   FF2E8AH   000019H   BYTE   INSEG    CODE           ?PR?PCI_SETRFERXDISABLECMD?MAC_CMD_HDLR
FF2E8BH   FF2ED8H   00004EH   BYTE   INSEG    CODE           ?PR?PCICNFEVENTSENDTOMSGQUEUE?MAC_EVENT_GEN
FF2ED9H   FF2EF4H   00001CH   BYTE   INSEG    CODE           ?PR?PCI_SETFSKPREAMBLE?MAC_CMD_HDLR
FF2EF5H   FF2F15H   000021H   BYTE   INSEG    CODE           ?PR?PCI_BLECMDINITBLE?MAC_CMD_HDLR
FF2F16H   FF2F4DH   000038H   BYTE   INSEG    CODE           ?PR?PCI_INITFSK?MAC_CMD_HDLR
FF2F4EH   FF2F7FH   000032H   BYTE   INSEG    CODE           ?PR?PCI_PARARESET?MAC_CMD_HDLR
FF2F80H   FF2FB9H   00003AH   BYTE   INSEG    CODE           ?PR?PCI_OQPSKCMDINITOQPSK?MAC_CMD_HDLR
FF2FBAH   FF2FFAH   000041H   BYTE   INSEG    CODE           ?PR?PCI_BLEPHY_SETHTRP_INITIATE?MAC_CMD_HDLR
FF2FFBH   FF3009H   00000FH   BYTE   INSEG    CODE           ?PR?ISR_GET_MAC_STATUS?ISR_HDLR
FF300AH   FF300AH   000001H   BYTE   INSEG    CODE           ?PR?ISR_1_HDLR?ISR_HDLR
FF300BH   FF301DH   000013H   BYTE   INSEG    CODE           ?PR?SYS_ISCLKAPASSOVERCLKB?SYS_CTRL
FF301EH   FF33F7H   0003DAH   BYTE   INSEG    CODE           ?PR?MAC_HTRP_RX_HANDLER?MAC_HTRP_RX
FF33F8H   FF346AH   000073H   BYTE   INSEG    CODE           ?PR?MAC_RXHWSET?MAC_TARSCHEDULE
FF346BH   FF34F3H   000089H   BYTE   INSEG    CODE           ?PR?BMU_RXCONFIG?BMU_RX
FF34F4H   FF34FCH   000009H   BYTE   INSEG    CODE           ?PR?HALMAC_MAXPAYLOADDFTGET?HAL_MAC
L251 LINKER/LOCATER V4.66.93.0                                                        02/16/2024  15:12:23  PAGE 8


FF34FDH   FF350AH   00000EH   BYTE   INSEG    CODE           ?PR?MAC_HTRP_SET_RX_QUEUE?MAC_HTRP_CONTROL
FF350BH   FF3557H   00004DH   BYTE   INSEG    CODE           ?PR?MAC_HTRP_SET_RX_HW_QUEUE?MAC_HTRP_CONTROL
FF3558H   FF356DH   000016H   BYTE   INSEG    CODE           ?PR?MAC_HTRP_SET_RX_SW_QUEUE?MAC_HTRP_CONTROL
FF356EH   FF358CH   00001FH   BYTE   INSEG    CODE           ?PR?MAC_HTRP_CHECK_RX_CONN_STATUS?MAC_HTRP_CONTROL
FF358DH   FF35CCH   000040H   BYTE   INSEG    CODE           ?PR?MAC_HTRP_SLEEP_CTRL?MAC_HTRP_CONTROL
FF35CDH   FF35D0H   000004H   BYTE   INSEG    CODE           ?PR?MAC_TAR_CCA_SETUP?MAC_TARSCHEDULE
FF35D1H   FF361BH   00004BH   BYTE   INSEG    CODE           ?PR?MAC_CCASTART?MAC_TARSCHEDULE
FF361CH   FF362BH   000010H   BYTE   INSEG    CODE           ?PR?MAC_WAITFORRXTASKREADY?MAC_TARSCHEDULE
FF362CH   FF3644H   000019H   BYTE   INSEG    CODE           ?PR?HALMAC_CRCLENCFGGET?HAL_MAC
FF3645H   FF36A5H   000061H   BYTE   INSEG    CODE           ?PR?MAC_SECLBHWSET?MAC_TARSCHEDULE
FF36A6H   FF36C4H   00001FH   BYTE   INSEG    CODE           ?PR?HALMAC_RXMAXPKTLENSET?HAL_MAC
FF36C5H   FF36E6H   000022H   BYTE   INSEG    CODE           ?PR?HALMAC_PHRLENCFGGET?HAL_MAC
FF36E7H   FF371FH   000039H   BYTE   INSEG    CODE           ?PR?MAC_BACKOFFTIMECAL?MAC_TARSCHEDULE
FF3720H   FF3776H   000057H   BYTE   INSEG    CODE           ?PR?HALMAC_RXPAYLOADLENGET?HAL_MAC
FF3777H   FF37DAH   000064H   BYTE   INSEG    CODE           ?PR?MAC_SLEEPCHECK?MAC
FF37DBH   FF37DFH   000005H   BYTE   INSEG    CODE           ?PR?MAC_HTRP_READY_TO_SLEEP?MAC_HTRP_CONTROL
FF37E0H   FF37E7H   000008H   BYTE   UNIT     CODE           ?L?COM004E
FF37E8H   FF37EFH   000008H   BYTE   INSEG    CODE           ?PR?MAC_HTRP_TX_SLOT_TX_DONE?MAC_HTRP_TX
FF37F0H   FF37FBH   00000CH   BYTE   INSEG    CODE           ?PR?BMU_LRXHWBUFSET?BMU_RX
FF37FCH   FF383CH   000041H   BYTE   INSEG    CODE           ?PR?MAC_HTRP_IS_ALLOW_SLEEP_STATE?MAC_HTRP_CONTROL
FF383DH   FF38D3H   000097H   BYTE   INSEG    CODE           ?PR?SYS_RAND?SYS_CTRL
FF38D4H   FF38E4H   000011H   BYTE   INSEG    CODE           ?PR?SYS_TIMERINIT?SYS_CTRL
FF38E5H   FF3959H   000075H   BYTE   INSEG    CODE           ?PR?SYS_SLEEP?SYS_CTRL
FF395AH   FF398AH   000031H   BYTE   INSEG    CODE           ?PR?SYS_ENTERSLEEPCHECK?SYS_CTRL
FF398BH   FF39B7H   00002DH   BYTE   INSEG    CODE           ?PR?MSG_IDLE?MSG_CTRL
FF39B8H   FF39BCH   000005H   BYTE   INSEG    CODE           ?PR?SYS_SLEEPMINTIMEGET?SYS_CTRL
FF39BDH   FF39CDH   000011H   BYTE   INSEG    CODE           ?PR?Q_QNUMGET?SYS_QCTRL
FF39CEH   FF39F7H   00002AH   BYTE   INSEG    CODE           ?PR?MSG_OUTMSGPROC?MSG_CTRL
FF39F8H   FF3A00H   000009H   BYTE   INSEG    CODE           ?PR?MSG_OUTSTATESET?MSG_CTRL
FF3A01H   FF3A2AH   00002AH   BYTE   INSEG    CODE           ?PR?MSG_OUTMSGTOBMU?MSG_CTRL
FF3A2BH   FF3A47H   00001DH   BYTE   INSEG    CODE           ?PR?Q_QFREE?SYS_QCTRL
FF3A48H   FF3BD4H   00018DH   BYTE   INSEG    CODE           ?PR?MAC_CMDQUEUEPARSE?MAC_CMD_HDLR
FF3BD5H   FF3BE2H   00000EH   BYTE   INSEG    CODE           ?PR?PCI_PARSECMNSYSCMD?MAC_CMD_HDLR
FF3BE3H   FF3BEDH   00000BH   BYTE   INSEG    CODE           ?PR?CMN_CMDSYS_GETRFBFWVER?COMMON_CMD_HDLR
FF3BEEH   FF3C5FH   000072H   BYTE   INSEG    CODE           ?PR?CMN_GETFWVEREVENTSEND?COMMON_EVENT_GEN
FF3C60H   FF3CA5H   000046H   BYTE   INSEG    CODE           ?PR?CMD_CNFEVENTSEND?COMMON_EVENT_GEN
FF3CA6H   FF3CB0H   00000BH   BYTE   INSEG    CODE           ?PR?CMN_CMDHAL_GETTEMPERATURERPT?COMMON_CMD_HDLR
FF3CB1H   FF3D0DH   00005DH   BYTE   INSEG    CODE           ?PR?CMN_GETTEMPERATURERPTEVENTSEND?COMMON_EVENT_GEN
FF3D0EH   FF3D8AH   00007DH   BYTE   INSEG    CODE           ?PR?PCI_PARSECMNHALCMD?MAC_CMD_HDLR
FF3D8BH   FF3D95H   00000BH   BYTE   INSEG    CODE           ?PR?CMN_CMDHAL_GETVOLTAGERPT?COMMON_CMD_HDLR
FF3D96H   FF3DF0H   00005BH   BYTE   INSEG    CODE           ?PR?CMN_GETVOLTAGERPTEVENTSEND?COMMON_EVENT_GEN
FF3DF1H   FF3EC5H   0000D5H   BYTE   INSEG    CODE           ?PR?Q_QPUSHBACK?SYS_QCTRL
FF3EC6H   FF3ED6H   000011H   BYTE   INSEG    CODE           ?PR?CMN_CMDHAL_SETCALIBRATIONENABLE?COMMON_CMD_HDLR
FF3ED7H   FF3F29H   000053H   BYTE   INSEG    CODE           ?PR?CMN_SETCALIBRATIONENABLEEVENTSEND?COMMON_EVENT_GEN
FF3F2AH   FF3F3FH   000016H   BYTE   INSEG    CODE           ?PR?CMN_CMDHAL_SETTXPWRCHCOMP?COMMON_CMD_HDLR
FF3F40H   FF3F55H   000016H   BYTE   INSEG    CODE           ?PR?CMN_CMDHAL_SETTXPWRCHSEGMENT?COMMON_CMD_HDLR
FF3F56H   FF3F73H   00001EH   BYTE   INSEG    CODE           ?PR?CMN_CMDHAL_SETTXPWRCOMP?COMMON_CMD_HDLR
FF3F74H   FF3F7CH   000009H   BYTE   INSEG    CODE           ?PR?CMN_CMDHAL_SETPMUMPKSETTING?COMMON_CMD_HDLR
FF3F7DH   FF3F92H   000016H   BYTE   INSEG    CODE           ?PR?Q_QGET?SYS_QCTRL
FF3F93H   FF3FA8H   000016H   BYTE   INSEG    CODE           ?PR?MAC_INTEVENTQUEUEHANDLER?MAC
FF3FA9H   FF3FB9H   000011H   BYTE   INSEG    CODE           ?PR?PCIQUEUEGETANDMACINTQUEUEADD?MAC
FF3FBAH   FF3FD2H   000019H   BYTE   INSEG    CODE           ?PR?CMN_CMDHAL_SETPMUOPMODE?COMMON_CMD_HDLR
FF3FD3H   FF3FEDH   00001BH   BYTE   INSEG    CODE           ?PR?CMN_CMDHAL_SETRSSIOFFSET?COMMON_CMD_HDLR
FF3FEEH   FF3FFDH   000010H   BYTE   INSEG    CODE           ?PR?MSG_OUTMSGFORCEHANDLE?MSG_CTRL
FF3FFEH   FF40E9H   0000ECH   BYTE   INSEG    CODE           ?PR?RUCI_ENDIANCONVERT?RUCI
FF40EAH   FF4134H   00004BH   BYTE   INSEG    CODE           ?PR?PCI_SETFSKSFD?MAC_CMD_HDLR
FF4135H   FF4148H   000014H   BYTE   INSEG    CODE           ?PR?HALMAC_TXSFDSET?HAL_MAC
FF4149H   FF4150H   000008H   BYTE   UNIT     CODE           ?L?COM001D
FF4151H   FF4497H   000347H   BYTE   INSEG    CODE           ?PR?MAC_GENENHACK?MAC_RAASCHEDULE
FF4498H   FF44F5H   00005EH   BYTE   INSEG    CODE           ?PR?MAC_ENDIANCONVERT?MAC_RAASCHEDULE
FF44F6H   FF4508H   000013H   BYTE   INSEG    CODE           ?PR?MAC_RSSIINFOCALC?MAC_RAASCHEDULE
FF4509H   FF4523H   00001BH   BYTE   INSEG    CODE           ?PR?MAC_SRCMATCH_ENABLESTATUSGET?MAC_SRCMATCH
FF4524H   FF45A5H   000082H   BYTE   INSEG    CODE           ?PR?PCI_BLECMDSETBLEMAC?MAC_CMD_HDLR
FF45A6H   FF465DH   0000B8H   BYTE   INSEG    CODE           ?PR?HALMAC_RXSFDSET?HAL_MAC
FF465EH   FF466CH   00000FH   BYTE   INSEG    CODE           ?PR?HALMAC_TXPREAMBLESET?HAL_MAC
L251 LINKER/LOCATER V4.66.93.0                                                        02/16/2024  15:12:23  PAGE 9


FF466DH   FF4678H   00000CH   BYTE   UNIT     CODE           ?L?COM000D
FF4679H   FF4687H   00000FH   BYTE   INSEG    CODE           ?PR?HALMAC_RXPREAMBLESET?HAL_MAC
FF4688H   FF46ACH   000025H   BYTE   INSEG    CODE           ?PR?MAC_SRCMATCH_LISTFIND?MAC_SRCMATCH
FF46ADH   FF46D8H   00002CH   BYTE   INSEG    CODE           ?PR?PCI_PARSE15P4PENDINGBIT?MAC_CMD_HDLR
FF46D9H   FF4708H   000030H   BYTE   INSEG    CODE           ?PR?PCI_PARSEFSKCMD?MAC_CMD_HDLR
FF4709H   FF471AH   000012H   BYTE   INSEG    CODE           ?PR?PCI_SETFSKTYPE?MAC_CMD_HDLR
FF471BH   FF4725H   00000BH   BYTE   INSEG    CODE           ?PR?HALPHY_GAUSSIANFILTSET?HAL_PHY
FF4726H   FF475CH   000037H   BYTE   INSEG    CODE           ?PR?GET_PAN_NUMBER?MAC_CMD_HDLR
FF475DH   FF47ACH   000050H   BYTE   INSEG    CODE           ?PR?PCI_SETFSKMAC?MAC_CMD_HDLR
FF47ADH   FF47B5H   000009H   BYTE   INSEG    CODE           ?PR?HALMAC_WHITENINITDFTGET?HAL_MAC
FF47B6H   FF47D0H   00001BH   BYTE   INSEG    CODE           ?PR?HALMAC_CRCINITDFTGET?HAL_MAC
FF47D1H   FF47F3H   000023H   BYTE   INSEG    CODE           ?PR?HALMAC_WHITENSET?HAL_MAC
FF47F4H   FF47FBH   000008H   BYTE   UNIT     CODE           ?L?COM0044
FF47FCH   FF483AH   00003FH   BYTE   INSEG    CODE           ?PR?HALMAC_CRCSET?HAL_MAC
FF483BH   FF4850H   000016H   BYTE   INSEG    CODE           ?PR?SYS_ENTERSLEEPGUARD?SYS_CTRL
FF4851H   FF4862H   000012H   BYTE   INSEG    CODE           ?PR?SYS_IDLE_TASK?SYS_CTRL
FF4863H   FF489AH   000038H   BYTE   INSEG    CODE           ?PR?Q_INIT?SYS_QCTRL
FF489BH   FF48B4H   00001AH   BYTE   INSEG    CODE           ?PR?Q_MEMFREECOUNT?SYS_QCTRL
FF48B5H   FF48C1H   00000DH   BYTE   INSEG    CODE           ?PR?Q_MEMFREE?SYS_QCTRL
FF48C2H   FF48D7H   000016H   BYTE   INSEG    CODE           ?PR?Q_QLENGET?SYS_QCTRL
FF48D8H   FF4911H   00003AH   BYTE   INSEG    CODE           ?PR?Q_QCHAGETYPE?SYS_QCTRL
FF4912H   FF49ADH   00009CH   BYTE   INSEG    CODE           ?PR?Q_QREMOVE?SYS_QCTRL
FF49AEH   FF4A6BH   0000BEH   BYTE   INSEG    CODE           ?PR?Q_QPUSHFRONT?SYS_QCTRL
FF4A6CH   FF4AEBH   000080H   BYTE   INSEG    CODE           ?PR?Q_QMOVEBACK?SYS_QCTRL
FF4AECH   FF4B12H   000027H   BYTE   INSEG    CODE           ?PR?RTC_UDELAY?SYS_RTC
FF4B13H   FF4B81H   00006FH   BYTE   INSEG    CODE           ?PR?HALRFK_LBTRXENABLE?HAL_RT569MP_RFK
FF4B82H   FF4C23H   0000A2H   BYTE   INSEG    CODE           ?PR?HALRFK_CALIBRATION?HAL_RFK
FF4C24H   FF4C30H   00000DH   BYTE   INSEG    CODE           ?PR?HALRFK_SINGLETONEDISABLE?HAL_RT569MP_RFK
FF4C31H   FF4C4EH   00001EH   BYTE   INSEG    CODE           ?PR?HALRFK_LBTRXDISABLE?HAL_RT569MP_RFK
FF4C4FH   FF4C6FH   000021H   BYTE   INSEG    CODE           ?PR?HALRFK_SINGLETONEENABLE?HAL_RT569MP_RFK
FF4C70H   FF4CE5H   000076H   BYTE   INSEG    CODE           ?PR?HALRFK_RSSIGET?HAL_RT569MP_RFK
FF4CE6H   FF4D89H   0000A4H   BYTE   INSEG    CODE           ?PR?HALRFK_RXFILTK?HAL_RT569MP_RFK
FF4D8AH   FF4DA8H   00001FH   BYTE   INSEG    CODE           ?PR?HALRFK_PLLFORLOKSET?HAL_RT569MP_RFK
FF4DA9H   FF4DC7H   00001FH   BYTE   INSEG    CODE           ?PR?HALRFK_PLLFORSIDEBANDKSET?HAL_RT569MP_RFK
FF4DC8H   FF4E11H   00004AH   BYTE   INSEG    CODE           ?PR?HALRFK_RFGAINCFG?HAL_RT569MP_RFK
FF4E12H   FF4E24H   000013H   BYTE   UNIT     CODE           ?L?COM0008
FF4E25H   FF4E77H   000053H   BYTE   INSEG    CODE           ?PR?HALRFK_PLLFORFILTKSET?HAL_RT569MP_RFK
FF4E78H   FF4F3AH   0000C3H   BYTE   INSEG    CODE           ?PR?HALRFK_RFTXCFG?HAL_RT569MP_RFK
FF4F3BH   FF4FA5H   00006BH   BYTE   INSEG    CODE           ?PR?HALRFK_RFPLLCFG?HAL_RT569MP_RFK
FF4FA6H   FF4FD3H   00002EH   BYTE   UNIT     CODE           ?L?COM0006
FF4FD4H   FF4FDFH   00000CH   BYTE   UNIT     CODE           ?L?COM0036
FF4FE0H   FF504FH   000070H   BYTE   INSEG    CODE           ?PR?RTC_TIMERCONFIG?SYS_RTC
FF5050H   FF5062H   000013H   BYTE   INSEG    CODE           ?PR?RTC_TIMERWAKEUPDISABLE?SYS_RTC
FF5063H   FF50D1H   00006FH   BYTE   INSEG    CODE           ?PR?PCI_SET15P4CSLRECEIVERCTRL?MAC_CMD_HDLR
FF50D2H   FF514CH   00007BH   BYTE   INSEG    CODE           ?PR?PCI_PARSE15P4SWMACCMD?MAC_CMD_HDLR
FF514DH   FF5158H   00000CH   BYTE   INSEG    CODE           ?PR?PCI_GET15P4CSLACCURACY?MAC_CMD_HDLR
FF5159H   FF5182H   00002AH   BYTE   INSEG    CODE           ?PR?PCICSLACCURACYEVENTSENDTOMSGQUEUE?MAC_EVENT_GEN
FF5183H   FF518EH   00000CH   BYTE   INSEG    CODE           ?PR?PCI_GET15P4CSLUNCERTAINTY?MAC_CMD_HDLR
FF518FH   FF51B8H   00002AH   BYTE   INSEG    CODE           ?PR?PCICSLUNCERTAINTYEVENTSENDTOMSGQUEUE?MAC_EVENT_GEN
FF51B9H   FF51C8H   000010H   BYTE   INSEG    CODE           ?PR?PCI_PARSE15P4SMENABLE?MAC_CMD_HDLR
FF51C9H   FF5267H   00009FH   BYTE   INSEG    CODE           ?PR?PCI_PARSET15P4SMENTRYCTRL?MAC_CMD_HDLR
FF5268H   FF531FH   0000B8H   BYTE   INSEG    CODE           ?PR?PCI_PARSE15P4ADDRESSFILTER?MAC_CMD_HDLR
FF5320H   FF5342H   000023H   BYTE   INSEG    CODE           ?PR?REVERSE_UINT32CPY?MAC_CMD_HDLR
FF5343H   FF55C4H   000282H   BYTE   INSEG    CODE           ?PR?MAC_SRCMATCH_LISTCLEAR?MAC_SRCMATCH
FF55C5H   FF55E5H   000021H   BYTE   INSEG    CODE           ?PR?MAC_SRCMATCH_LISTFINDIDX?MAC_SRCMATCH
FF55E6H   FF55F5H   000010H   BYTE   INSEG    CODE           ?PR?MAC_SRCMATCH_ENABLE?MAC_SRCMATCH
FF55F6H   FF5607H   000012H   BYTE   INSEG    CODE           ?PR?PCI_PARSE15P4AUTOACK?MAC_CMD_HDLR
FF5608H   FF5625H   00001EH   BYTE   INSEG    CODE           ?PR?MAC_SRCMATCH_LISTMODIFY?MAC_SRCMATCH
FF5626H   FF5646H   000021H   BYTE   INSEG    CODE           ?PR?MAC_SRCMATCH_LISTADD?MAC_SRCMATCH
FF5647H   FF567FH   000039H   BYTE   INSEG    CODE           ?PR?PCI_PARSE15P4PHYPIB?MAC_CMD_HDLR
FF5680H   FF56BAH   00003BH   BYTE   INSEG    CODE           ?PR?PCI_UPDATE15P4CSLSAMPLETIME?MAC_CMD_HDLR
FF56BBH   FF5703H   000049H   BYTE   INSEG    CODE           ?PR?PCI_PARSE15P4MACPIB?MAC_CMD_HDLR
FF5704H   FF5776H   000073H   BYTE   INSEG    CODE           ?PR?PCI_INITZIGBEE?MAC_CMD_HDLR
FF5777H   FF5780H   00000AH   BYTE   INSEG    CODE           ?PR?RTC_WAITFORTRIGGERED?SYS_RTC
FF5781H   FF57A6H   000026H   BYTE   INSEG    CODE           ?PR?RTC_TRIGGERWITHINUS?SYS_RTC
L251 LINKER/LOCATER V4.66.93.0                                                        02/16/2024  15:12:23  PAGE 10


FF57A7H   FF57C2H   00001CH   BYTE   INSEG    CODE           ?PR?RTC_ISRHDLRINIT?SYS_RTC
FF57C3H   FF57E2H   000020H   BYTE   INSEG    CODE           ?PR?MAC_HTRP_SLEEP_INIT?MAC_HTRP_CONTROL
FF57E3H   FF5835H   000053H   BYTE   INSEG    CODE           ?PR?RTC_INIT?SYS_RTC
FF5836H   FF5836H   000001H   BYTE   INSEG    CODE           ?PR?RTC_NULLHDLR?SYS_RTC
FF5837H   FF5843H   00000DH   BYTE   INSEG    CODE           ?PR?RTC_ISRHDLR?SYS_RTC
FF5844H   FF58BDH   00007AH   BYTE   INSEG    CODE           ?PR?COMMON_ISRBMUCHECKTX?COMMON_ISR
FF58BEH   FF5919H   00005CH   BYTE   INSEG    CODE           ?PR?BMU_TXQUEUEGET?BMU_TX
FF591AH   FF5927H   00000EH   BYTE   UNIT     CODE           ?L?COM0018
FF5928H   FF59AAH   000083H   BYTE   INSEG    CODE           ?PR?BMU_TXQUEUECLEAR?BMU_TX
FF59ABH   FF5A44H   00009AH   BYTE   INSEG    CODE           ?PR?BMU_TXCONFIG?BMU_TX
FF5A45H   FF5AB4H   000070H   BYTE   INSEG    CODE           ?PR?MAC_TXHWSET?MAC_TARSCHEDULE
FF5AB5H   FF5B02H   00004EH   BYTE   INSEG    CODE           ?PR?MAC_RFETXHWSECSET?MAC_RFETX
FF5B03H   FF5B94H   000092H   BYTE   INSEG    CODE           ?PR?PCI_SETPHR?MAC_CMD_HDLR
FF5B95H   FF5C5EH   0000CAH   BYTE   INSEG    CODE           ?PR?MAC_ACKSET?MAC_RAASCHEDULE
FF5C5FH   FF5C87H   000029H   BYTE   INSEG    CODE           ?PR?HALSEC_AESKEYSET?HAL_SEC
FF5C88H   FF5CF9H   000072H   BYTE   INSEG    CODE           ?PR?MAC_TAR_SCHCONFIGHDLR?MAC_TARSCHEDULE
FF5CFAH   FF5D0AH   000011H   BYTE   INSEG    CODE           ?PR?MAC_TXSTART?MAC_TARSCHEDULE
FF5D0BH   FF5D26H   00001CH   BYTE   INSEG    CODE           ?PR?MAC_TXTASKSET?MAC_TARSCHEDULE
FF5D27H   FF5DFAH   0000D4H   BYTE   INSEG    CODE           ?PR?MAC_TAR_SCHWAITCCADONEHDLR?MAC_TARSCHEDULE
FF5DFBH   FF5E76H   00007CH   BYTE   INSEG    CODE           ?PR?MAC_CCASTATUSGET?MAC_TARSCHEDULE
FF5E77H   FF5E9BH   000025H   BYTE   INSEG    CODE           ?PR?MAC_CHECKRXBUSY?MAC
FF5E9CH   FF5F16H   00007BH   BYTE   INSEG    CODE           ?PR?PCIHTRPHWSTATUSEVENTDONEEVENTSENDTOMSGQUEUE?MAC_EVENT_
                                                             -GEN
FF5F17H   FF5F5FH   000049H   BYTE   INSEG    CODE           ?PR?PCI_BLEPHY_GETHTRP_STATUS?MAC_CMD_HDLR
FF5F60H   FF5F67H   000008H   BYTE   INSEG    CODE           ?PR?HAL_HWMODEGET?HAL
FF5F68H   FF5F71H   00000AH   BYTE   INSEG    CODE           ?PR?MAC_TARPARINIT?MAC_TARSCHEDULE
FF5F72H   FF5F7EH   00000DH   BYTE   INSEG    CODE           ?PR?MAC_ISR_REG_CB?MAC_ISR
FF5F7FH   FF5F90H   000012H   BYTE   INSEG    CODE           ?PR?MAC_CHECKISRRXRECEIVED?MAC
FF5F91H   FF5FA3H   000013H   BYTE   INSEG    CODE           ?PR?HAL_ISBLEHW?HAL
FF5FA4H   FF5FC0H   00001DH   BYTE   UNIT     CODE           ?L?COM001A
FF5FC1H   FF5FD5H   000015H   BYTE   INSEG    CODE           ?PR?HALSEC_AESKEYONLYSET?HAL_SEC
FF5FD6H   FF5FEEH   000019H   BYTE   INSEG    CODE           ?PR?HALSEC_NONCEONLYSET?HAL_SEC
FF5FEFH   FF60ADH   0000BFH   BYTE   INSEG    CODE           ?PR?COMMON_ISRBMUTXQADD?_?COMMON_ISR
FF60AEH   FF6159H   0000ACH   BYTE   INSEG    CODE           ?PR?COMMON_ISRBMUTXQGETBYHANDLE?_?COMMON_ISR
FF615AH   FF61FEH   0000A5H   BYTE   INSEG    CODE           ?PR?COMMON_ISRBMUTXQPCIGET?COMMON_ISR
FF61FFH   FF636DH   00016FH   BYTE   INSEG    CODE           ?PR?COMMON_ISRBMUTXQDELETEALLBYCONDITION?_?COMMON_ISR
FF636EH   FF63F7H   00008AH   BYTE   INSEG    CODE           ?PR?COMMON_ISRBMUTXQDELETEBYPTR?_?COMMON_ISR
FF63F8H   FF6467H   000070H   BYTE   INSEG    CODE           ?PR?COMMON_ISRBMUTXQINIT?COMMON_ISR
FF6468H   FF6471H   00000AH   BYTE   INSEG    CODE           ?PR?COMMON_ISRBMUHANDLER?COMMON_ISR
FF6472H   FF6495H   000024H   BYTE   INSEG    CODE           ?PR?CMN_CMDHAL_SETAGC?COMMON_CMD_HDLR
FF6496H   FF64C9H   000034H   BYTE   INSEG    CODE           ?PR?CMN_CMDHAL_SETCALIBRATIONSETTING?COMMON_CMD_HDLR
FF64CAH   FF64FEH   000035H   BYTE   INSEG    CODE           ?PR?CMN_CMDHAL_SETTXPOWER?COMMON_CMD_HDLR
FF64FFH   FF6535H   000037H   BYTE   INSEG    CODE           ?PR?CMN_CMDHAL_SETTXPOWEROQPSK?COMMON_CMD_HDLR
FF6536H   FF655BH   000026H   BYTE   INSEG    CODE           ?PR?CMN_CMDHAL_SETTXPOWERBY?COMMON_CMD_HDLR
FF655CH   FF6627H   0000CCH   BYTE   INSEG    CODE           ?PR?BMU_MEMALLOCATE?BMU
FF6628H   FF664FH   000028H   BYTE   INSEG    CODE           ?PR?BMU_LRXHWBUFCONFIG?BMU_RX
FF6650H   FF66D2H   000083H   BYTE   INSEG    CODE           ?PR?BMU_LRXSHAREQCONFIG?BMU_RX
FF66D3H   FF675FH   00008DH   BYTE   INSEG    CODE           ?PR?BMU_HWRESET?BMU
FF6760H   FF6803H   0000A4H   BYTE   INSEG    CODE           ?PR?BMU_HWINIT?BMU
FF6804H   FF684DH   00004AH   BYTE   INSEG    CODE           ?PR?BMU_FREQFLOWCTRLSET?BMU
FF684EH   FF68C5H   000078H   BYTE   INSEG    CODE           ?PR?BMU_H2MCMDGET?BMU_CMD
FF68C6H   FF6949H   000084H   BYTE   INSEG    CODE           ?PR?BMU_M2HCMDSET?BMU_CMD
FF694AH   FF6A57H   00010EH   BYTE   INSEG    CODE           ?PR?BMU_TRXQUEUEGET?BMU_COMMON
FF6A58H   FF6AB9H   000062H   BYTE   INSEG    CODE           ?PR?BMU_RXQUEUEGET?BMU_RX
FF6ABAH   FF6AF1H   000038H   BYTE   INSEG    CODE           ?PR?HALPKT_PHYSTATUSGET?HAL_PKT
FF6AF2H   FF6B75H   000084H   BYTE   INSEG    CODE           ?PR?MAC_HTRP_RELAY_DATA_TO_SW_RXQ?MAC_HTRP_CONTROL
FF6B76H   FF6B77H   000002H   BYTE   INSEG    CODE           ?PR?MAC_HTRP_GET_RX_SW_QUEUE_WO_ADDR?MAC_HTRP_CONTROL
FF6B78H   FF6BA5H   00002EH   BYTE   INSEG    CODE           ?PR?BMU_LRXSHAREQWOGET?BMU_RX
FF6BA6H   FF6BC0H   00001BH   BYTE   INSEG    CODE           ?PR?BMU_LRXSHAREQWOUPDATE?BMU_RX
FF6BC1H   FF6C37H   000077H   BYTE   INSEG    CODE           ?PR?MAC_HTRP_CLEAR_RX_QUEUE?MAC_HTRP_CONTROL
FF6C38H   FF6D4EH   000117H   BYTE   INSEG    CODE           ?PR?MAC_RXDONEEVENTGEN?_?MAC_RAASCHEDULE
FF6D4FH   FF6FB6H   000268H   BYTE   INSEG    CODE           ?PR?MAC_RAARXDONEHANDLE?_?MAC_RAASCHEDULE
FF6FB7H   FF6FC3H   00000DH   BYTE   INSEG    CODE           ?PR?MAC_RAACLEARACKQANDGENRXDATA?MAC_RAASCHEDULE
FF6FC4H   FF6FD1H   00000EH   BYTE   UNIT     CODE           ?L?COM001E
FF6FD2H   FF6FECH   00001BH   BYTE   INSEG    CODE           ?PR?HALSEC_AESTXSET?HAL_SEC
L251 LINKER/LOCATER V4.66.93.0                                                        02/16/2024  15:12:23  PAGE 11


FF6FEDH   FF70FAH   00010EH   BYTE   INSEG    CODE           ?PR?BMU_TRXQUEUESET?BMU_COMMON
FF70FBH   FF711CH   000022H   BYTE   INSEG    CODE           ?PR?BMU_LOCALRXQSTARTADDGET?BMU_RX
FF711DH   FF713EH   000022H   BYTE   INSEG    CODE           ?PR?BMU_RXQSTARTADDGET?BMU_RX
FF713FH   FF71B6H   000078H   BYTE   INSEG    CODE           ?PR?BMU_LOCALRXQUEUEGET?BMU_RX
FF71B7H   FF7280H   0000CAH   BYTE   INSEG    CODE           ?PR?MAC_RFERXDATACONFIRM?MAC_RFERX
FF7281H   FF7281H   000001H   BYTE   INSEG    CODE           ?PR?BMU_LRXHWBUFSTATUSUPDATE?BMU_RX
FF7282H   FF7286H   000005H   BYTE   INSEG    CODE           ?PR?MAC_HTRP_UPDATE_LRX_BUF_STATUS?MAC_HTRP_CONTROL
FF7287H   FF7328H   0000A2H   BYTE   INSEG    CODE           ?PR?MAC_HTRP_TX_SLOT_RX_DONE?MAC_HTRP_TX
FF7329H   FF734EH   000026H   BYTE   INSEG    CODE           ?PR?MAC_HTRP_CTRL_INCREASE_SLOT_INDEX?MAC_HTRP_CONTROL
FF734FH   FF740FH   0000C1H   BYTE   INSEG    CODE           ?PR?MAC_HTRP_TX_PERIOD_BURST_RX_DONE?MAC_HTRP_TX
FF7410H   FF745BH   00004CH   BYTE   INSEG    CODE           ?PR?MAC_HTRP_TX_BURST_TX_DONE?MAC_HTRP_TX
FF745CH   FF751CH   0000C1H   BYTE   INSEG    CODE           ?PR?MAC_HTRP_TX_SET_RF_TASK?MAC_HTRP_TX
FF751DH   FF759DH   000081H   BYTE   INSEG    CODE           ?PR?MAC_HTRP_TX_PERIOD_BURST_TX_DONE?MAC_HTRP_TX
FF759EH   FF75BFH   000022H   BYTE   INSEG    CODE           ?PR?MAC_HTRP_CTRL_INCREASE_CUR_BLOCK?MAC_HTRP_CONTROL
FF75C0H   FF75E6H   000027H   BYTE   INSEG    CODE           ?PR?MAC_HTRP_RX_BURST_RX_DONE?MAC_HTRP_RX
FF75E7H   FF761AH   000034H   BYTE   INSEG    CODE           ?PR?MAC_HTRP_RX_SLOT_RX_DONE?MAC_HTRP_RX
FF761BH   FF7674H   00005AH   BYTE   INSEG    CODE           ?PR?MAC_HTRP_RX_PERIOD_RX_DONE?MAC_HTRP_RX
FF7675H   FF76C5H   000051H   BYTE   INSEG    CODE           ?PR?MAC_HTRP_CHECK_RX_VALID?MAC_HTRP_CONTROL
FF76C6H   FF76E4H   00001FH   BYTE   INSEG    CODE           ?PR?BMU_LRXHWRXDONEBUFGET?BMU_RX
FF76E5H   FF7734H   000050H   BYTE   INSEG    CODE           ?PR?BMU_LRXSHAREQISFULL?BMU_RX
FF7735H   FF7782H   00004EH   BYTE   INSEG    CODE           ?PR?BMU_RXQUEUESET?BMU_RX
FF7783H   FF77A4H   000022H   BYTE   INSEG    CODE           ?PR?BMU_LOCALTXQSTARTADDGET?BMU_TX
FF77A5H   FF77C7H   000023H   BYTE   INSEG    CODE           ?PR?BMU_TXQSTARTADDGET?BMU_TX
FF77C8H   FF77DEH   000017H   BYTE   INSEG    CODE           ?PR?BMU_TXQSTATUSUPD?BMU_TX
FF77DFH   FF7802H   000024H   BYTE   INSEG    CODE           ?PR?BMU_TXQSTATUSRECOVERY?BMU_TX
FF7803H   FF783AH   000038H   BYTE   INSEG    CODE           ?PR?BMU_TXQPKTSEARCH?BMU_TX
FF783BH   FF78D3H   000099H   BYTE   INSEG    CODE           ?PR?BMU_TXPKTLENGTHGET?BMU_TX
FF78D4H   FF790DH   00003AH   BYTE   INSEG    CODE           ?PR?BMU_LOCALTXQUEUEGET?BMU_TX
FF790EH   FF7998H   00008BH   BYTE   INSEG    CODE           ?PR?BMU_LOCALTXQUEUESET?BMU_TX
FF7999H   FF7A30H   000098H   BYTE   INSEG    CODE           ?PR?MAC_RFETXPARINIT?MAC_RFETX
FF7A31H   FF7ACFH   00009FH   BYTE   INSEG    CODE           ?PR?PCI_SETRFETXENABLECMD?MAC_CMD_HDLR
FF7AD0H   FF7B89H   0000BAH   BYTE   INSEG    CODE           ?PR?PCI_RFETXPARACHECK?MAC_CMD_HDLR
FF7B8AH   FF7BB4H   00002BH   BYTE   INSEG    CODE           ?PR?HALMAC_MAXPAYLOADLENGET?HAL_MAC
FF7BB5H   FF7C80H   0000CCH   BYTE   INSEG    CODE           ?PR?PCI_PARSECOMMONCMD?MAC_CMD_HDLR
FF7C81H   FF7C8CH   00000CH   BYTE   INSEG    CODE           ?PR?PCI_GETCRCCOUNT?MAC_CMD_HDLR
FF7C8DH   FF7CECH   000060H   BYTE   INSEG    CODE           ?PR?PCIGETCRCEVENTSENDTOMSGQUEUE?MAC_EVENT_GEN
FF7CEDH   FF7CF8H   00000CH   BYTE   INSEG    CODE           ?PR?PCI_GETRSSI?MAC_CMD_HDLR
FF7CF9H   FF7D56H   00005EH   BYTE   INSEG    CODE           ?PR?PCIGETRSSIEVENTSENDTOMSGQUEUE?MAC_EVENT_GEN
FF7D57H   FF7D62H   00000CH   BYTE   INSEG    CODE           ?PR?PCI_GETPHYSTATUS?MAC_CMD_HDLR
FF7D63H   FF7DE9H   000087H   BYTE   INSEG    CODE           ?PR?PCIGETPHYSTATUSEVENTSENDTOMSGQUEUE?MAC_EVENT_GEN
FF7DEAH   FF7E26H   00003DH   BYTE   INSEG    CODE           ?PR?PCI_ENABLESINGLETONE?MAC_CMD_HDLR
FF7E27H   FF7EA3H   00007DH   BYTE   INSEG    CODE           ?PR?HALMAC_TXTYPESET?HAL_MAC
FF7EA4H   FF7F60H   0000BDH   BYTE   INSEG    CODE           ?PR?PCI_SETRFERXENABLECMD?MAC_CMD_HDLR
FF7F61H   FF7FD1H   000071H   BYTE   INSEG    CODE           ?PR?MAC_RFERXPARINIT?MAC_RFERX
FF7FD2H   FF7FDBH   00000AH   BYTE   INSEG    CODE           ?PR?PCI_SETRFEMODE?MAC_CMD_HDLR
FF7FDCH   FF7FE5H   00000AH   BYTE   INSEG    CODE           ?PR?MAC_TIMEOUTHDLR?MAC
FF7FE6H   FF7FF8H   000013H   BYTE   INSEG    CODE           ?PR?PCI_SETGAUSSIANFILTERTYPE?MAC_CMD_HDLR
FF7FF9H   FF8069H   000071H   BYTE   INSEG    CODE           ?PR?BMU_PRIVACYIRKCLR?BMU_BLE
FF806AH   FF80A2H   000039H   BYTE   INSEG    CODE           ?PR?BMU_PRIVACYIRKSET?BMU_BLE
FF80A3H   FF8130H   00008EH   BYTE   INSEG    CODE           ?PR?BMU_PRIVACYLOCALRPAGEN?BMU_BLE
FF8131H   FF8169H   000039H   BYTE   INSEG    CODE           ?PR?BMU_PRIVACYIRKSINGLESEARCH?BMU_BLE
FF816AH   FF819EH   000035H   BYTE   INSEG    CODE           ?PR?BMU_PRIVACYIRKGET?BMU_BLE
FF819FH   FF8220H   000082H   BYTE   INSEG    CODE           ?PR?BMU_PRIVACYIRKFULLSEARCH?BMU_BLE
FF8221H   FF8256H   000036H   BYTE   INSEG    CODE           ?PR?MAC?MAC
FF8257H   FF826AH   000014H   BYTE   INSEG    CODE           ?PR?MAC_RAASCHEDULE?MAC_RAASCHEDULE
FF826BH   FF827EH   000014H   BYTE   INSEG    CODE           ?PR?MAC_TARSCHEDULE?MAC_TARSCHEDULE
FF827FH   FF82B2H   000034H   BYTE   INSEG    CODE           ?PR?MAC_CHECKBMUERR?MAC
FF82B3H   FF82BEH   00000CH   BYTE   INSEG    CODE           ?PR?MAC_INTEVENTQINIT?MAC
FF82BFH   FF84B5H   0001F7H   BYTE   INSEG    CODE           ?PR?MAC_TRXPAR_INIT?MAC
FF84B6H   FF84C4H   00000FH   BYTE   INSEG    CODE           ?PR?MAC_INTEVENTQUEUEEXIST?MAC
FF84C5H   FF856AH   0000A6H   BYTE   INSEG    CODE           ?PR?PANIDPRESENT?MAC_FRAME_PARSE
FF856BH   FF8764H   0001FAH   BYTE   INSEG    CODE           ?PR?MAC_PARSEHDR?MAC_FRAME_PARSE
FF8765H   FF876EH   00000AH   BYTE   INSEG    CODE           ?PR?MAC_MHRPARSE?MAC_RAASCHEDULE
FF876FH   FF8793H   000025H   BYTE   INSEG    CODE           ?PR?MAC_ORG_RX_DONE_HANDLER?MAC_RAASCHEDULE
FF8794H   FF8824H   000091H   BYTE   INSEG    CODE           ?PR?MAC_ISRHANDLER?MAC_ISR
L251 LINKER/LOCATER V4.66.93.0                                                        02/16/2024  15:12:23  PAGE 12


FF8825H   FF8830H   00000CH   BYTE   INSEG    CODE           ?PR?MAC_BMUISRINIT?MAC_ISR
FF8831H   FF891FH   0000EFH   BYTE   INSEG    CODE           ?PR?PCI_SETRFFREQ?MAC_CMD_HDLR
FF8920H   FF8969H   00004AH   BYTE   INSEG    CODE           ?PR?PCI_SETRXTASKPARA?MAC_CMD_HDLR
FF896AH   FF89B1H   000048H   BYTE   INSEG    CODE           ?PR?PCI_SETRFESECURITYCMD?MAC_CMD_HDLR
FF89B2H   FF89D0H   00001FH   BYTE   INSEG    CODE           ?PR?PCI_SETRFSLEEP?MAC_CMD_HDLR
FF89D1H   FF8A1CH   00004CH   BYTE   INSEG    CODE           ?PR?PCI_SETCLOCKMODE?MAC_CMD_HDLR
FF8A1DH   FF8A96H   00007AH   BYTE   INSEG    CODE           ?PR?PCI_SETRFBAUTOSTATE?MAC_CMD_HDLR
FF8A97H   FF8B93H   0000FDH   BYTE   INSEG    CODE           ?PR?PCI_SETWAKEONRADIO?MAC_CMD_HDLR
FF8B94H   FF8BD5H   000042H   BYTE   INSEG    CODE           ?PR?PCI_SETFSKMODEM?MAC_CMD_HDLR
FF8BD6H   FF8C88H   0000B3H   BYTE   INSEG    CODE           ?PR?PCI_BLECMDSETBLEMODEM?MAC_CMD_HDLR
FF8C89H   FF8CEFH   000067H   BYTE   INSEG    CODE           ?PR?PCI_PARSEBLECMD?MAC_CMD_HDLR
FF8CF0H   FF8D0CH   00001DH   BYTE   INSEG    CODE           ?PR?PCI_BLEPHY_SETHTRP_DISABLE?MAC_CMD_HDLR
FF8D0DH   FF8D2AH   00001EH   BYTE   INSEG    CODE           ?PR?PCI_BLEPHY_SETHTRP_RX_ENABLE?MAC_CMD_HDLR
FF8D2BH   FF8D5AH   000030H   BYTE   INSEG    CODE           ?PR?PCI_BLEPHY_SETHTRP_SEC?MAC_CMD_HDLR
FF8D5BH   FF8D91H   000037H   BYTE   INSEG    CODE           ?PR?PCI_BLEPHY_SETHTRP_MAP_CHANNEL?MAC_CMD_HDLR
FF8D92H   FF8D9DH   00000CH   BYTE   UNIT     CODE           ?L?COM0035
FF8D9EH   FF8E31H   000094H   BYTE   INSEG    CODE           ?PR?HALRF_AGCSET2HW?HAL_RT569MP_RF
FF8E32H   FF8E41H   000010H   BYTE   INSEG    CODE           ?PR?MAC_HTRP_RESET_RX_CONN_STATUS?MAC_HTRP_CONTROL
FF8E42H   FF8E52H   000011H   BYTE   UNIT     CODE           ?L?COM002A
FF8E53H   FF8E64H   000012H   BYTE   INSEG    CODE           ?PR?HALRF_AGCSET?HAL_RF
FF8E65H   FF8E78H   000014H   BYTE   INSEG    CODE           ?PR?MAC_HTRP_SET_DISABLE?MAC_HTRP_CONTROL
FF8E79H   FF8E99H   000021H   BYTE   INSEG    CODE           ?PR?MAC_HTRP_SET_SEC_PARA?MAC_HTRP_CONTROL
FF8E9AH   FF8EBEH   000025H   BYTE   INSEG    CODE           ?PR?PCI_BLEPHY_SETHTRP_TX_ENABLE?MAC_CMD_HDLR
FF8EBFH   FF8F0BH   00004DH   BYTE   INSEG    CODE           ?PR?MAC_HTRP_CTRL_SET_CHANNEL_MAP_FROM_BMU?MAC_HTRP_CONTRO
                                                             -L
FF8F0CH   FF8FAEH   0000A3H   BYTE   INSEG    CODE           ?PR?PCI_BLEPHY_SETHTRP_PARA?MAC_CMD_HDLR
FF8FAFH   FF8FECH   00003EH   BYTE   INSEG    CODE           ?PR?PCI_OQPSKCMDSETOQPSKMODEM?MAC_CMD_HDLR
FF8FEDH   FF9042H   000056H   BYTE   INSEG    CODE           ?PR?PCI_OQPSKCMDSETOQPSKMAC?MAC_CMD_HDLR
FF9043H   FF908EH   00004CH   BYTE   INSEG    CODE           ?PR?PCI_RFERXPARACHECK?MAC_CMD_HDLR
FF908FH   FF90ABH   00001DH   BYTE   INSEG    CODE           ?PR?PCI_PARSEOQPSKCMD?MAC_CMD_HDLR
FF90ACH   FF9115H   00006AH   BYTE   INSEG    CODE           ?PR?R2TTASK_SET?MAC_TASK_CTRL
FF9116H   FF91C2H   0000ADH   BYTE   INSEG    CODE           ?PR?MAC_RAA_SCHCONFIGHDLR?MAC_RAASCHEDULE
FF91C3H   FF920FH   00004DH   BYTE   INSEG    CODE           ?PR?RXTASK_TIMEOUT_SET?MAC_TASK_CTRL
FF9210H   FF921DH   00000EH   BYTE   INSEG    CODE           ?PR?RXTASK_RXTIMER_SET?MAC_TASK_CTRL
FF921EH   FF9262H   000045H   BYTE   INSEG    CODE           ?PR?TXTASK_SET?MAC_TASK_CTRL
FF9263H   FF9296H   000034H   BYTE   INSEG    CODE           ?PR?TXRTCTASK_SET?MAC_TASK_CTRL
FF9297H   FF9339H   0000A3H   BYTE   INSEG    CODE           ?PR?PCIDATACONTROLFIELDPARSE?RUCI_DATA_PARSE
FF933AH   FF936AH   000031H   BYTE   INSEG    CODE           ?PR?PCIBURSTTXDONEEVENTSENDTOMSGQUEUE?MAC_EVENT_GEN
FF936BH   FF93A3H   000039H   BYTE   INSEG    CODE           ?PR?PCIHTRPCONNTOEVENTDONEEVENTSENDTOMSGQUEUE?MAC_EVENT_GE
                                                             -N
FF93A4H   FF93E8H   000045H   BYTE   INSEG    CODE           ?PR?PCIHTRPPEREVENTDONEEVENTSENDTOMSGQUEUE?MAC_EVENT_GEN
FF93E9H   FF941AH   000032H   BYTE   INSEG    CODE           ?PR?PCIHTRPGETRSSIEVENTSENDTOMSGQUEUE?MAC_EVENT_GEN
FF941BH   FF94BAH   0000A0H   BYTE   INSEG    CODE           ?PR?PCIHTRPFWSTATUSEVENTDONEEVENTSENDTOMSGQUEUE?MAC_EVENT_
                                                             -GEN
FF94BBH   FF94BBH   000001H   BYTE   INSEG    CODE           ?PR?MAC_RAA_SCHINITHDLR?MAC_RAASCHEDULE
FF94BCH   FF9555H   00009AH   BYTE   INSEG    CODE           ?PR?MAC_RAA_SCHWAITMHRHDLR?MAC_RAASCHEDULE
FF9556H   FF9586H   000031H   BYTE   INSEG    CODE           ?PR?MAC_RAA_SCHWAITTXDONEHDLR?MAC_RAASCHEDULE
FF9587H   FF9587H   000001H   BYTE   INSEG    CODE           ?PR?MAC_RAA_SCHWAITRESUMEHDLR?MAC_RAASCHEDULE
FF9588H   FF95A5H   00001EH   BYTE   INSEG    CODE           ?PR?MAC_RAA_SCHENDHDLR?MAC_RAASCHEDULE
FF95A6H   FF95A6H   000001H   BYTE   INSEG    CODE           ?PR?MAC_RAA_SCHRESERVEDHDLR?MAC_RAASCHEDULE
FF95A7H   FF95C3H   00001DH   BYTE   INSEG    CODE           ?PR?MAC_ORG_MHR_DONE_HANDLER?MAC_RAASCHEDULE
FF95C4H   FF970DH   00014AH   BYTE   INSEG    CODE           ?PR?MAC_RXQ_CPY?_?MAC_RAASCHEDULE
FF970EH   FF9752H   000045H   BYTE   INSEG    CODE           ?PR?MAC_GENACK?MAC_RAASCHEDULE
FF9753H   FF97B9H   000067H   BYTE   INSEG    CODE           ?PR?MAC_GENACKFRMCTRL?MAC_RAASCHEDULE
FF97BAH   FF97C4H   00000BH   BYTE   INSEG    CODE           ?PR?MOD_REPLACE?MAC_RAASCHEDULE
FF97C5H   FF9805H   000041H   BYTE   INSEG    CODE           ?PR?MAC_GETCSLPHASE?MAC_RAASCHEDULE
FF9806H   FF9876H   000071H   BYTE   INSEG    CODE           ?PR?MAC_NONCEGEN?MAC_RAASCHEDULE
FF9877H   FF9A89H   000213H   BYTE   INSEG    CODE           ?PR?MAC_FILTER?_?MAC_RAASCHEDULE
FF9A8AH   FF9A8AH   000001H   BYTE   INSEG    CODE           ?PR?MAC_TAR_SCHINITHDLR?MAC_TARSCHEDULE
FF9A8BH   FF9AFCH   000072H   BYTE   INSEG    CODE           ?PR?MAC_TAR_SCHWAITTXDONEHDLR?MAC_TARSCHEDULE
FF9AFDH   FF9B4FH   000053H   BYTE   INSEG    CODE           ?PR?MAC_TAR_SCHWAITACKRXMHRHDLR?MAC_TARSCHEDULE
FF9B50H   FF9C47H   0000F8H   BYTE   INSEG    CODE           ?PR?MAC_TAR_SCHWAITNORMALRXMSGHDLR?MAC_TARSCHEDULE
FF9C48H   FF9C79H   000032H   BYTE   INSEG    CODE           ?PR?MAC_TAR_SCHWAITNORMALACKDONEHDLR?MAC_TARSCHEDULE
FF9C7AH   FF9CA9H   000030H   BYTE   INSEG    CODE           ?PR?MAC_TAR_SCHENDHDLR?MAC_TARSCHEDULE
FF9CAAH   FF9CAAH   000001H   BYTE   INSEG    CODE           ?PR?MAC_TAR_SCHRESERVEDHDLR?MAC_TARSCHEDULE
L251 LINKER/LOCATER V4.66.93.0                                                        02/16/2024  15:12:23  PAGE 13


FF9CABH   FF9CC3H   000019H   BYTE   INSEG    CODE           ?PR?MAC_ORG_CCA_DONE_HANDLER?MAC_TARSCHEDULE
FF9CC4H   FF9DF1H   00012EH   BYTE   INSEG    CODE           ?PR?MAC_ACKFRAMECHECK?MAC_TARSCHEDULE
FF9DF2H   FF9EADH   0000BCH   BYTE   INSEG    CODE           ?PR?MAC_TAR_CHECK_DATA_REQUST?MAC_TARSCHEDULE
FF9EAEH   FF9EC0H   000013H   BYTE   INSEG    CODE           ?PR?MAC_RFERXRPTGET?MAC_RFERX
FF9EC1H   FF9F24H   000064H   BYTE   INSEG    CODE           ?PR?MAC_RFESECLBHWSET?MAC_RFERX
FF9F25H   FF9F6BH   000047H   BYTE   INSEG    CODE           ?PR?MAC_RFETXTASKSET?MAC_RFETX
FF9F6CH   FF9FDEH   000073H   BYTE   INSEG    CODE           ?PR?MAC_RFETXPKTLENUPDATE?MAC_RFETX
FF9FDFH   FFA077H   000099H   BYTE   INSEG    CODE           ?PR?MAC_RFEDATAGEN?MAC_RFETX
FFA078H   FFA082H   00000BH   BYTE   INSEG    CODE           ?PR?MAC_HTRP_CTRL_GET_CHANNEL?MAC_HTRP_CONTROL
FFA083H   FFA0B4H   000032H   BYTE   INSEG    CODE           ?PR?MAC_HTRP_CTRL_CLEAR_PKT_CNT?MAC_HTRP_CONTROL
FFA0B5H   FFA116H   000062H   BYTE   INSEG    CODE           ?PR?MAC_HTRP_CTRL_INCREASE_PKT_CNT?MAC_HTRP_CONTROL
FFA117H   FFA140H   00002AH   BYTE   INSEG    CODE           ?PR?MAC_HTRP_CTRL_SLOT_SYNC?MAC_HTRP_CONTROL
FFA141H   FFA14CH   00000CH   BYTE   INSEG    CODE           ?PR?MAC_HTRP_SEND_TX_DONE?MAC_HTRP_CONTROL
FFA14DH   FFA160H   000014H   BYTE   INSEG    CODE           ?PR?MAC_HTRP_CLEAR_TX_QUEUE?MAC_HTRP_CONTROL
FFA161H   FFA184H   000024H   BYTE   INSEG    CODE           ?PR?MAC_HTRP_ISR_RX_DONE_HANDLER?MAC_HTRP_CONTROL
FFA185H   FFA1A7H   000023H   BYTE   INSEG    CODE           ?PR?MAC_HTRP_CTRL_INIT?MAC_HTRP_CONTROL
FFA1A8H   FFA1ADH   000006H   BYTE   INSEG    CODE           ?PR?MAC_HTRP_RTC_ISR_HANDLER?MAC_HTRP_CONTROL
FFA1AEH   FFA1FCH   00004FH   BYTE   INSEG    CODE           ?PR?MAC_HTRP_RX_PERIOD_TX_DONE?MAC_HTRP_RX
FFA1FDH   FFA264H   000068H   BYTE   INSEG    CODE           ?PR?MAC_SRCMATCH_LISTINIT?MAC_SRCMATCH
FFA265H   FFA2F9H   000095H   BYTE   INSEG    CODE           ?PR?MAC_SRCMATCH_LISTFINDSHORT?_?MAC_SRCMATCH
FFA2FAH   FFA3B5H   0000BCH   BYTE   INSEG    CODE           ?PR?MAC_SRCMATCH_LISTFINDEXTENDED?_?MAC_SRCMATCH
FFA3B6H   FFA456H   0000A1H   BYTE   INSEG    CODE           ?PR?MAC_SRCMATCH_LISTADDSHORT?MAC_SRCMATCH
FFA457H   FFA4C7H   000071H   BYTE   INSEG    CODE           ?PR?MAC_SRCMATCH_LISTMODIFYSHORT?MAC_SRCMATCH
FFA4C8H   FFA56BH   0000A4H   BYTE   INSEG    CODE           ?PR?MAC_SRCMATCH_LISTADDEXTENDED?MAC_SRCMATCH
FFA56CH   FFA5DCH   000071H   BYTE   INSEG    CODE           ?PR?MAC_SRCMATCH_LISTMODIFYEXTENDED?MAC_SRCMATCH
FFA5DDH   FFA627H   00004BH   BYTE   INSEG    CODE           ?PR?MSG_ISR?_?MSG_CTRL
FFA628H   FFA638H   000011H   BYTE   INSEG    CODE           ?PR?MSG_EVENTCLR?MSG_CTRL
FFA639H   FFA64DH   000015H   BYTE   INSEG    CODE           ?PR?HAL_ISWISUNHW?HAL
FFA64EH   FFA662H   000015H   BYTE   INSEG    CODE           ?PR?HAL_ISZIGBEEHW?HAL
FFA663H   FFA691H   00002FH   BYTE   INSEG    CODE           ?PR?HAL_ISSUBGRF?HAL
FFA692H   FFA6DFH   00004EH   BYTE   INSEG    CODE           ?PR?HALRF_TXPWRCOMPSET2HW?HAL_RT569MP_RF
FFA6E0H   FFA6EBH   00000CH   BYTE   UNIT     CODE           ?L?COM001B
FFA6ECH   FFA6F6H   00000BH   BYTE   INSEG    CODE           ?PR?HALMAC_RXMHRRPTLENSET?HAL_MAC
FFA6F7H   FFA701H   00000BH   BYTE   INSEG    CODE           ?PR?HALPHY_PREAMNUMSET?HAL_PHY
FFA702H   FFA70DH   00000CH   BYTE   UNIT     CODE           ?L?COM0023
FFA70EH   FFA73FH   000032H   BYTE   INSEG    CODE           ?PR?HALRF_ALLPATHDISABLE?HAL_RF
FFA740H   FFA7BDH   00007EH   BYTE   INSEG    CODE           ?PR?HALRFK_RXENABLE?HAL_RT569MP_RFK
FFA7BEH   FFA7F7H   00003AH   BYTE   INSEG    CODE           ?PR?HALPHY_FSKRXPARASET?HAL_PHY
FFA7F8H   FFA806H   00000FH   BYTE   INSEG    CODE           ?PR?HAL_IS2GRF?HAL
FFA807H   FFA84EH   000048H   BYTE   INSEG    CODE           ?PR?HAL_CLKMODESET?HAL
FFA84FH   FFAA07H   0001B9H   BYTE   INSEG    CODE           ?PR?HAL_HWMODEINIT?_?HAL
FFAA08H   FFAC74H   00026DH   BYTE   INSEG    CODE           ?PR?HAL_HWINIT?HAL_RT569MP_INIT
FFAC75H   FFACB6H   000042H   BYTE   INSEG    CODE           ?PR?HALRF_TXPWRSET2HW?HAL_RT569MP_RF
FFACB7H   FFAD20H   00006AH   BYTE   INSEG    CODE           ?PR?HALRF_TXGAINTABLECFG?HAL_RT569MP_RF
FFAD21H   FFAD2CH   00000CH   BYTE   UNIT     CODE           ?L?COM0037
FFAD2DH   FFAD4DH   000021H   BYTE   INSEG    CODE           ?PR?HAL_DFTPARAGET?HAL_INIT
FFAD4EH   FFAD77H   00002AH   BYTE   INSEG    CODE           ?PR?HALMAC_PKTBITENDIANSET?HAL_MAC
FFAD78H   FFADB8H   000041H   BYTE   INSEG    CODE           ?PR?HALRF_TXPWRSET?HAL_RF
FFADB9H   FFADC1H   000009H   BYTE   UNIT     CODE           ?L?COM003E
FFADC2H   FFAE26H   000065H   BYTE   INSEG    CODE           ?PR?HAL_PKTTYPESET?HAL
FFAE27H   FFAE91H   00006BH   BYTE   INSEG    CODE           ?PR?HALRF_TXPWRRPTGET?HAL_RF
FFAE92H   FFAF1EH   00008DH   BYTE   INSEG    CODE           ?PR?HALRFK_KVALUESET2HW?HAL_RFK
FFAF1FH   FFAF76H   000058H   BYTE   INSEG    CODE           ?PR?HALRFK_KVALUESET?_?HAL_RFK
FFAF77H   FFAF77H   000001H   BYTE   INSEG    CODE           ?PR?HAL_WATCHDOG?HAL
FFAF78H   FFAF80H   000009H   BYTE   INSEG    CODE           ?PR?HALMAC_WHITENDFTGET?HAL_MAC
FFAF81H   FFAF97H   000017H   BYTE   INSEG    CODE           ?PR?HALMAC_SFDDFTGET?HAL_MAC
FFAF98H   FFAFFAH   000063H   BYTE   INSEG    CODE           ?PR?HALMAC_IFST2T?HAL_MAC
FFAFFBH   FFB05CH   000062H   BYTE   INSEG    CODE           ?PR?HALMAC_IFST2R?HAL_MAC
FFB05DH   FFB086H   00002AH   BYTE   INSEG    CODE           ?PR?HALTCON_TXTAILDELAYGET?HAL_RT569MP_TCON
FFB087H   FFB0BBH   000035H   BYTE   INSEG    CODE           ?PR?HALMAC_IFSR2R?HAL_MAC
FFB0BCH   FFB108H   00004DH   BYTE   INSEG    CODE           ?PR?HALTCON_RXTAILDELAYGET?HAL_RT569MP_TCON
FFB109H   FFB13DH   000035H   BYTE   INSEG    CODE           ?PR?HALMAC_IFSR2T?HAL_MAC
FFB13EH   FFB1B6H   000079H   BYTE   INSEG    CODE           ?PR?HALPHY_DFESET?HAL_PHY
FFB1B7H   FFB360H   0001AAH   BYTE   INSEG    CODE           ?PR?HALPHY_PARASET?HAL_PHY
FFB361H   FFB37AH   00001AH   BYTE   INSEG    CODE           ?PR?HALPHY_RXDISABLE?HAL_PHY
L251 LINKER/LOCATER V4.66.93.0                                                        02/16/2024  15:12:23  PAGE 14


FFB37BH   FFB3B8H   00003EH   BYTE   INSEG    CODE           ?PR?HALPHY_RXENABLE?HAL_PHY
FFB3B9H   FFB427H   00006FH   BYTE   INSEG    CODE           ?PR?HALRF_PLLCFG?HAL_RT569MP_RF
FFB428H   FFB5FBH   0001D4H   BYTE   INSEG    CODE           ?PR?HALPHY_TXENABLE?HAL_PHY
FFB5FCH   FFB8BAH   0002BFH   BYTE   INSEG    CODE           ?PR?HALPHY_TXBWSET?HAL_PHY
FFB8BBH   FFBC85H   0003CBH   BYTE   INSEG    CODE           ?PR?HALPHY_RXBWSET?HAL_PHY
FFBC86H   FFBCD9H   000054H   BYTE   INSEG    CODE           ?PR?HALPHY_BLERXPARASET?HAL_PHY
FFBCDAH   FFBCFAH   000021H   BYTE   INSEG    CODE           ?PR?HALPHY_MODIDXSET?HAL_PHY
FFBCFBH   FFBD85H   00008BH   BYTE   INSEG    CODE           ?PR?HALPHY_INPUTPWRGET?HAL_PHY
FFBD86H   FFBDD7H   000052H   BYTE   INSEG    CODE           ?PR?HALRF_TXPWRCOMPCHUPDAT?HAL_RF
FFBDD8H   FFBE97H   0000C0H   BYTE   INSEG    CODE           ?PR?HALRF_FREQ2GCFG?HAL_RT569MP_RF
FFBE98H   FFBF01H   00006AH   BYTE   INSEG    CODE           ?PR?HALRF_FREQ2GCAL?HAL_RT569MP_RF
FFBF02H   FFBFA0H   00009FH   BYTE   INSEG    CODE           ?PR?HALRF_IFCHECK?HAL_RT569MP_RF
FFBFA1H   FFBFC3H   000023H   BYTE   INSEG    CODE           ?PR?HALRF_TXPWRCOMPSET?HAL_RF
FFBFC4H   FFC00EH   00004BH   BYTE   INSEG    CODE           ?PR?HALRF_TXPWRCOMPUPDATE?HAL_RF
FFC00FH   FFC038H   00002AH   BYTE   INSEG    CODE           ?PR?HALRF_TXPWRCHCOMPSET?HAL_RF
FFC039H   FFC058H   000020H   BYTE   INSEG    CODE           ?PR?HALRF_TXPWRCHSEGSET?HAL_RF
FFC059H   FFC06FH   000017H   BYTE   INSEG    CODE           ?PR?HALRF_TEMPERATURERPTGET?HAL_RF
FFC070H   FFC086H   000017H   BYTE   INSEG    CODE           ?PR?HALRF_VOLTAGERPTGET?HAL_RF
FFC087H   FFC09DH   000017H   BYTE   INSEG    CODE           ?PR?HALRF_RSSIOFFSETSET?HAL_RF
FFC09EH   FFC0C7H   00002AH   BYTE   INSEG    CODE           ?PR?HALSEC_AESLEVELONLYSET?HAL_SEC
FFC0C8H   FFC13FH   000078H   BYTE   INSEG    CODE           ?PR?HALSEC_AESSET?HAL_SEC
FFC140H   FFC193H   000054H   BYTE   INSEG    CODE           ?PR?HALRFK_KVALUEGET?_?HAL_RFK
FFC194H   FFC1C0H   00002DH   BYTE   INSEG    CODE           ?PR?HALIO_DIOSET?HAL_IO
FFC1C1H   FFC2A9H   0000E9H   BYTE   INSEG    CODE           ?PR?HAL_PARAINIT?HAL_INIT
FFC2AAH   FFC2CAH   000021H   BYTE   INSEG    CODE           ?PR?HAL_COLDINIT?HAL_INIT
FFC2CBH   FFC3C6H   0000FCH   BYTE   INSEG    CODE           ?PR?HALRFK_PARABACKUP?HAL_RT569MP_RFK
FFC3C7H   FFC43BH   000075H   BYTE   INSEG    CODE           ?PR?HALRFK_RXBWCFG?HAL_RT569MP_RFK
FFC43CH   FFC4CFH   000094H   BYTE   INSEG    CODE           ?PR?HALRFK_PARARECOVER?HAL_RT569MP_RFK
FFC4D0H   FFC4E7H   000018H   BYTE   UNIT     CODE           ?L?COM0014
FFC4E8H   FFC59DH   0000B6H   BYTE   INSEG    CODE           ?PR?HALRFK_LBPATHENABLE?HAL_RT569MP_RFK
FFC59EH   FFC68DH   0000F0H   BYTE   INSEG    CODE           ?PR?HALRFK_RINGPLLSET?HAL_RT569MP_RFK
FFC68EH   FFC711H   000084H   BYTE   INSEG    CODE           ?PR?HALRFK_TXLOK?HAL_RT569MP_RFK
FFC712H   FFC7DFH   0000CEH   BYTE   INSEG    CODE           ?PR?HALRFK_TXSBK?HAL_RT569MP_RFK
FFC7E0H   FFC806H   000027H   BYTE   INSEG    CODE           ?PR?HALRFK_LBPATHDISABLE?HAL_RT569MP_RFK
FFC807H   FFC876H   000070H   BYTE   INSEG    CODE           ?PR?HALRFK_RXPATHENABLE?HAL_RT569MP_RFK
FFC877H   FFC8A1H   00002BH   BYTE   INSEG    CODE           ?PR?HALRFK_RXPATHDISABLE?HAL_RT569MP_RFK
FFC8A2H   FFC8BFH   00001EH   BYTE   INSEG    CODE           ?PR?HALRFK_RXDISABLE?HAL_RT569MP_RFK
FFC8C0H   FFCA74H   0001B5H   BYTE   INSEG    CODE           ?PR?HALRF_FREQSUBGCFG?HAL_RT569MP_RF
FFCA75H   FFCADFH   00006BH   BYTE   INSEG    CODE           ?PR?HALRF_AGCINIT?HAL_RT569MP_RF
FFCAE0H   FFCAE0H   000001H   BYTE   INSEG    CODE           ?PR?HALRF_TEMPERATUREMEASURE?HAL_RT569MP_RF
FFCAE1H   FFCAE1H   000001H   BYTE   INSEG    CODE           ?PR?HALRF_VOLTAGEMEASURE?HAL_RT569MP_RF
FFCAE2H   FFCAE2H   000001H   BYTE   INSEG    CODE           ?PR?HALRF_EXTFEMINIT?HAL_RT569MP_RF
FFCAE3H   FFCC0CH   00012AH   BYTE   INSEG    CODE           ?PR?HALTCON_INIT?HAL_RT569MP_TCON
FFCC0DH   FFCC61H   000055H   BYTE   INSEG    CODE           ?PR?HALTCON_PRETXTIMESET?HAL_RT569MP_TCON
FFCC62H   FFCC8EH   00002DH   BYTE   INSEG    CODE           ?PR?HALPMU_PWRMODESET?HAL_RT569MP_PMU
FFCC8FH   FFCCABH   00001DH   BYTE   INSEG    CODE           ?PR?HALPMU_PWRMODEGET?HAL_RT569MP_PMU



PUBLIC SYMBOLS OF MODULE:  .\obj\RT569 (?C_START)


      VALUE       CLASS    TYPE      PUBLIC SYMBOL NAME
      =================================================
      000000FFH   NUMBER   ---       ?C?CODESEG
      00FF0123H   CODE     ---       ?C?INITEDATA
      00FF0F8FH   HCONST   WORD      ?C?INITEDATA_END
      00FF0051H   CODE     ---       ?C?LIMUL
      00FF0040H   CODE     ---       ?C?LMUL
      00FF000EH   CODE     ---       ?C?SIDIV
      00FF0000H   CODE     ---       ?C?STARTUP
      00FF005CH   CODE     NEAR LAB  ?C?ULDIV
      00FF005AH   CODE     NEAR LAB  ?C?ULIDIV
      00000001H   NUMBER   ---       ?C?XDATASEG
      00FF0000H   CODE     ---       ?C_STARTUP
L251 LINKER/LOCATER V4.66.93.0                                                        02/16/2024  15:12:23  PAGE 15


      0000B5A5H   EDATA    BYTE      ?HALRF_IfCheck?BYTE
      0000B5BAH   EDATA    BYTE      ?HALRFK_RingPllSet?BYTE
      0000B594H   EDATA    BYTE      ?HALSEC_AesSet?BYTE
      0000B3EDH   EDATA    BYTE      ?RUCI_endianConvert?BYTE
      0000B380H   EDATA    BYTE      ?T2RTask_Set?BYTE
*SFR* 000000D0H.6 DATA     BIT       AC
*SFR* 000000E0H   DATA     BYTE      ACC
*SFR* 0000009DH   DATA     BYTE      ACON
      00FF0008H   CODE     ---       AllTask_Stop
      00FF00ADH   CODE     ---       ASM_MEMCPY
      00FF014FH   CODE     ---       ASM_MEMSET
*SFR* 000000F0H   DATA     BYTE      B
      00FF6804H   CODE     ---       BMU_FreqFlowCtrlSet
      00FF684EH   CODE     ---       BMU_H2MCmdGet
      00FF6760H   CODE     ---       BMU_HwInit
      00FF66D3H   CODE     ---       BMU_HwReset
      00FF70FBH   CODE     ---       BMU_LocalRxqStartAddGet
      00FF713FH   CODE     ---       BMU_LocalRxQueueGet
      00FF7783H   CODE     ---       BMU_LocalTxqStartAddGet
      00FF78D4H   CODE     ---       BMU_LocalTxQueueGet
      00FF790EH   CODE     ---       BMU_LocalTxQueueSet
      00FF6628H   CODE     ---       BMU_LrxHwBufConfig
      00FF37F0H   CODE     ---       BMU_LrxHwBufSet
      00FF7281H   CODE     ---       BMU_LrxHwBufStatusUpdate
      00FF76C6H   CODE     ---       BMU_LrxHwRxDoneBufGet
      00FF6650H   CODE     ---       BMU_LrxShareQConfig
      00FF76E5H   CODE     ---       BMU_LrxShareQIsFull
      00FF6B78H   CODE     ---       BMU_LrxShareQWoGet
      00FF6BA6H   CODE     ---       BMU_LrxShareQWoUpdate
      00FF68C6H   CODE     ---       BMU_M2HCmdSet
      00FF655CH   CODE     ---       BMU_MemAllocate
      00FF7FF9H   CODE     ---       BMU_PrivacyIrkClr
      00FF819FH   CODE     ---       BMU_PrivacyIrkFullSearch
      00FF816AH   CODE     ---       BMU_PrivacyIrkGet
      00FF806AH   CODE     ---       BMU_PrivacyIrkSet
      00FF8131H   CODE     ---       BMU_PrivacyIrkSingleSearch
      00FF80A3H   CODE     ---       BMU_PrivacyLocalRpaGen
      00FF346BH   CODE     ---       BMU_RxConfig
      00FF711DH   CODE     ---       BMU_RxqStartAddGet
      00FF6A58H   CODE     ---       BMU_RxQueueGet
      00FF7735H   CODE     ---       BMU_RxQueueSet
      00FF694AH   CODE     ---       BMU_TrxQueueGet
      00FF6FEDH   CODE     ---       BMU_TrxQueueSet
      00FF59B2H   CODE     ---       BMU_TxConfig
      00FF783BH   CODE     ---       BMU_TxPktLengthGet
      00FF7803H   CODE     ---       BMU_TxqPktSearch
      00FF77A5H   CODE     ---       BMU_TxqStartAddGet
      00FF77DFH   CODE     ---       BMU_TxqStatusRecovery
      00FF77C8H   CODE     ---       BMU_TxqStatusUpd
      00FF5928H   CODE     ---       BMU_TxQueueClear
      00FF58BEH   CODE     ---       BMU_TxQueueGet
      0000B51EH   EDATA    BYTE      bmuLrxManualCfg
      0000B519H   EDATA    ---       bmuLrxSwqCtrl
      00FF134BH   HCONST   ---       bmuMemSizeHwRxq
      00FF1353H   HCONST   ---       bmuMemSizeHwSwRxq
*SFR* 000000C8H.1 DATA     BIT       C_T2
*SFR* 000000CEH   DATA     BYTE      CCEN
*SFR* 000000D8H.0 DATA     BIT       CCF0
*SFR* 000000D8H.1 DATA     BIT       CCF1
*SFR* 000000D8H.2 DATA     BIT       CCF2
*SFR* 000000D8H.3 DATA     BIT       CCF3
*SFR* 000000D8H.4 DATA     BIT       CCF4
*SFR* 000000C3H   DATA     BYTE      CCH1
*SFR* 000000C5H   DATA     BYTE      CCH2
*SFR* 000000C7H   DATA     BYTE      CCH3
L251 LINKER/LOCATER V4.66.93.0                                                        02/16/2024  15:12:23  PAGE 16


*SFR* 000000C2H   DATA     BYTE      CCL1
*SFR* 000000C4H   DATA     BYTE      CCL2
*SFR* 000000C6H   DATA     BYTE      CCL3
*SFR* 00000090H.3 DATA     BIT       CEX0
*SFR* 00000090H.4 DATA     BIT       CEX1
*SFR* 00000090H.5 DATA     BIT       CEX2
*SFR* 00000090H.6 DATA     BIT       CEX3
*SFR* 00000090H.7 DATA     BIT       CEX4
*SFR* 000000D8H.7 DATA     BIT       CF
*SFR* 0000008EH   DATA     BYTE      CKCON
      00FF3C60H   CODE     ---       CMD_CnfEventSend
      00FF3CA6H   CODE     ---       CMN_CmdHal_GetTemperatureRpt
      00FF3D8BH   CODE     ---       CMN_CmdHal_GetVoltageRpt
      00FF6472H   CODE     ---       CMN_CmdHal_SetAgc
      00FF3EC6H   CODE     ---       CMN_CmdHal_SetCalibrationEnable
      00FF6496H   CODE     ---       CMN_CmdHal_SetCalibrationSetting
      00FF3F74H   CODE     ---       CMN_CmdHal_SetPmuMpkSetting
      00FF3FBAH   CODE     ---       CMN_CmdHal_SetPmuOpMode
      00FF3FD3H   CODE     ---       CMN_CmdHal_SetRssiOffset
      00FF64CAH   CODE     ---       CMN_CmdHal_SetTxPower
      00FF6536H   CODE     ---       CMN_CmdHal_SetTxPowerBy
      00FF64FFH   CODE     ---       CMN_CmdHal_SetTxPowerOqpsk
      00FF3F2AH   CODE     ---       CMN_CmdHal_SetTxPwrChComp
      00FF3F40H   CODE     ---       CMN_CmdHal_SetTxPwrChSegment
      00FF3F56H   CODE     ---       CMN_CmdHal_SetTxPwrComp
      00FF3BE3H   CODE     ---       CMN_CmdSys_GetRfbFwVer
      00FF3BEEH   CODE     ---       CMN_GetFwVerEventSend
      00FF3CB1H   CODE     ---       CMN_GetTemperatureRptEventSend
      00FF3D96H   CODE     ---       CMN_GetVoltageRptEventSend
      00FF3ED7H   CODE     ---       CMN_SetCalibrationEnableEventSend
      00FF1422H   CODE     ---       common_isr_init
      00FF5844H   CODE     ---       common_isrBmuCheckTx
      00FF6468H   CODE     ---       common_isrBmuHandler
      00FF5FEFH   CODE     ---       Common_IsrBmuTxQAdd?_
      00FF61FFH   CODE     ---       Common_IsrBmuTxQDeleteAllByCondition?_
      00FF636EH   CODE     ---       Common_IsrBmuTxQDeleteByPtr?_
      00FF60AEH   CODE     ---       Common_IsrBmuTxQGetByHandle?_
      00FF63F8H   CODE     ---       Common_IsrBmuTxQInit
      00FF6166H   CODE     ---       Common_IsrBmuTxQPciGet
*SFR* 000000C8H.0 DATA     BIT       CP_RL2
*SFR* 000000D8H.7 DATA     BIT       CPUSRF
*SFR* 000000D8H.6 DATA     BIT       CR
*SFR* 000000CBH   DATA     BYTE      CRCH
*SFR* 000000CAH   DATA     BYTE      CRCL
*SFR* 000000D0H.7 DATA     BIT       CY
*SFR* 000000CFH   DATA     BYTE      DEVICR
*SFR* 0000008FH   DATA     BYTE      DMAIR
*SFR* 00000083H   DATA     BYTE      DPH
*SFR* 00000083H   DATA     BYTE      DPH1
*SFR* 00000082H   DATA     BYTE      DPL
*SFR* 00000082H   DATA     BYTE      DPL1
*SFR* 00000086H   DATA     BYTE      DPS
*SFR* 00000084H   DATA     BYTE      DPX1
*SFR* 00000084H   DATA     BYTE      DPXL
*SFR* 000000A8H.7 DATA     BIT       EA
*SFR* 000000A8H.6 DATA     BIT       EC
*SFR* 00000090H.2 DATA     BIT       ECI
*SFR* 000000E8H   DATA     BYTE      EIE
*SFR* 00000091H   DATA     BYTE      EIF
*SFR* 000000F8H   DATA     BYTE      EIP
*SFR* 000000B6H   DATA     BYTE      EIPH
*SFR* 000000B6H   DATA     BYTE      EIPH0
*SFR* 000000F8H   DATA     BYTE      EIPL
*SFR* 000000A8H.4 DATA     BIT       ES
*SFR* 000000A8H.4 DATA     BIT       ES0
L251 LINKER/LOCATER V4.66.93.0                                                        02/16/2024  15:12:23  PAGE 17


*SFR* 000000A8H.6 DATA     BIT       ES1
*SFR* 000000A8H.1 DATA     BIT       ET0
*SFR* 000000A8H.3 DATA     BIT       ET1
*SFR* 000000A8H.5 DATA     BIT       ET2
*SFR* 000000D8H.1 DATA     BIT       EWT
*SFR* 000000A8H.0 DATA     BIT       EX0
*SFR* 000000A8H.2 DATA     BIT       EX1
*SFR* 000000C8H.3 DATA     BIT       EXEN2
*SFR* 000000C8H.6 DATA     BIT       EXF2
*SFR* 000000D0H.5 DATA     BIT       F0
*SFR* 00000098H.7 DATA     BIT       FE
      0000B34EH   EDATA    ---       g15p4Mac
      0000B361H   EDATA    ---       g15p4Phy
      0000B0B4H   EDATA    ---       g_mac_htrp_ctrl
      0000B1E6H   EDATA    BYTE      g_mac_htrp_rx_commit_type
      0000B5C1H   EDATA    BYTE      g_mac_htrp_rx_set_ch_time
      0000B5C0H   EDATA    BYTE      g_mac_htrp_rx_state
      0000B5C2H   EDATA    BYTE      g_mac_htrp_rx_sync_time
      0000B1E7H   EDATA    ---       g_mac_htrp_tx_local_data
      0000B5DBH   EDATA    BYTE      g_mac_htrp_tx_set_ch_time
      0000B5DAH   EDATA    BYTE      g_mac_htrp_tx_state
      0000B521H   EDATA    ---       g_mac_isr_cb_handle
      0000A911H   EDATA    BYTE      gBackoffExpIdx
      0000B207H   EDATA    ---       gBmuDataList
      0000B203H   EDATA    ---       gBmuDataListHead
      0000B205H   EDATA    ---       gBmuDataListTail
      0000B1F8H   EDATA    ---       gBmuDataTxCtrlField
      0000B1F1H   EDATA    ---       gBmuDataTxQList
      00FF11E6H   HCONST   ---       gCmnHalCmdLen
      00FF11E4H   HCONST   ---       gCmnSysCmdLen
      0000A910H   EDATA    BYTE      gCsmacaRetry
      00FF4726H   CODE     ---       get_pan_number
      0000B405H   EDATA    ---       gIntrRegMask
      0000B40DH   EDATA    ---       gIntrRfHdlrTable
      0000B550H   EDATA    DWORD     gLastWakeTick
      0000B58DH   EDATA    DWORD     gMac_Frame_Pending_Rx_Time
      0000B1EFH   EDATA    ---       gMac_htrp_rx_done_hdl
      0000B1EDH   EDATA    ---       gMac_htrp_tx_done_hdl
      0000A0D2H   EDATA    ---       gMacBuf
      0000B27FH   EDATA    ---       gMacFunCtrl
      0000B280H   EDATA    ---       gMacFunEventQ
      0000A08FH   EDATA    ---       gMacHdr
      0000B29AH   EDATA    ---       gMacIntEventQ
      0000B2B6H   EDATA    ---       gMacPib
      0000B2B4H   EDATA    INT       gMacRaaState
      0000B37BH   EDATA    ---       gMacRfeRpt
      0000B36CH   EDATA    ---       gMacRfeRxCtrl
      0000B36AH   EDATA    INT       gMacRfeRxState
      0000B3E5H   EDATA    ---       gMacRfeTxCtrl
      0000B3E3H   EDATA    INT       gMacRfeTxState
      0000A024H   EDATA    ---       gMacRxPar
      0000A926H   EDATA    ---       gMacSrcCtrl
      0000A000H   EDATA    INT       gMacTarState
      0000A002H   EDATA    ---       gMacTxPar
      00FF11D3H   HCONST   ---       gPci15p4MacCmdLen
      00FF11C8H   HCONST   ---       gPciBleCmdLen
      00FF11A3H   HCONST   ---       gPciCommonCmdLen
      00FF11C2H   HCONST   ---       gPciFskCmdLen
      00FF11E0H   HCONST   ---       gPciOqpskCmdLen
      0000A90AH   EDATA    ---       gPhyStatus
      0000B2D6H   EDATA    ---       gRaa_Sch_Handler_Entry
      0000A90FH   EDATA    BYTE      gRetransmissionCount
      0000B34DH   EDATA    BYTE      gSleepEnable
      0000B554H   EDATA    ---       gSysEntry_Sleep
      0000B562H   EDATA    ---       gSysRtcHdlrTable
L251 LINKER/LOCATER V4.66.93.0                                                        02/16/2024  15:12:23  PAGE 18


      0000A912H   EDATA    ---       gTar_ScheHandler_Entry
      0000B56EH   EDATA    BYTE      gTaskMask
      0000B56FH   EDATA    ---       gTaskTable
      00FFA807H   CODE     ---       HAL_ClkModeSet
      00FFC2AAH   CODE     ---       HAL_ColdInit
      00FFAD2DH   CODE     ---       HAL_DftParaGet
      00FFAA08H   CODE     ---       HAL_HwInit
      00FF5F60H   CODE     ---       HAL_HwModeGet
      00FFA84FH   CODE     ---       HAL_HwModeInit?_
      00FFA7F8H   CODE     ---       HAL_Is2gRf
      00FF5F91H   CODE     ---       HAL_IsBleHw
      00FFA684H   CODE     ---       HAL_IsSubgRf
      00FFA639H   CODE     ---       HAL_IsWisunHw
      00FFA64EH   CODE     ---       HAL_IsZigbeeHw
      00FFC1C1H   CODE     ---       HAL_ParaInit
      00FFADC2H   CODE     ---       HAL_PktTypeSet
      00FFAF77H   CODE     ---       HAL_Watchdog
      00FFC194H   CODE     ---       HALIO_dioSet
      00FF47BAH   CODE     ---       HALMAC_CrcInitDftGet
      00FF362CH   CODE     ---       HALMAC_CrcLenCfgGet
      00FF47FCH   CODE     ---       HALMAC_CrcSet
      00FFB087H   CODE     ---       HALMAC_IfsR2R
      00FFB109H   CODE     ---       HALMAC_IfsR2T
      00FFAFFBH   CODE     ---       HALMAC_IfsT2R
      00FFAF98H   CODE     ---       HALMAC_IfsT2T
      00FF34F4H   CODE     ---       HALMAC_MaxPayloadDftGet
      00FF7B8AH   CODE     ---       HALMAC_MaxPayloadLenGet
      00FF36C5H   CODE     ---       HALMAC_PhrLenCfgGet
      00FF250BH   CODE     ---       HALMAC_PhrSet
      00FFAD4EH   CODE     ---       HALMAC_PktBitEndianSet
      00FF36A6H   CODE     ---       HALMAC_RxMaxPktLenSet
      00FFA6ECH   CODE     ---       HALMAC_RxMhrRptLenSet
      00FF3720H   CODE     ---       HALMAC_RxPayloadLenGet
      00FF4679H   CODE     ---       HALMAC_RxPreambleSet
      00FF45A6H   CODE     ---       HALMAC_RxSfdSet
      00FFAF81H   CODE     ---       HALMAC_SfdDftGet
      00FF465EH   CODE     ---       HALMAC_TxPreambleSet
      00FF4135H   CODE     ---       HALMAC_TxSfdSet
      00FF7E2BH   CODE     ---       HALMAC_TxTypeSet
      00FFAF78H   CODE     ---       HALMAC_WhitenDftGet
      00FF47ADH   CODE     ---       HALMAC_WhitenInitDftGet
      00FF47D1H   CODE     ---       HALMAC_WhitenSet
      00FFBC86H   CODE     ---       HALPHY_BleRxParaSet
      00FFB13EH   CODE     ---       HALPHY_DfeSet
      00FFA7BEH   CODE     ---       HALPHY_FskRxParaSet
      00FF471BH   CODE     ---       HALPHY_GaussianFiltSet
      00FFBCFBH   CODE     ---       HALPHY_InputPwrGet
      00FFBCDAH   CODE     ---       HALPHY_ModIdxSet
      00FFB1B7H   CODE     ---       HALPHY_ParaSet
      00FFA6F7H   CODE     ---       HALPHY_PreamNumSet
      00FFB8BBH   CODE     ---       HALPHY_RxBwSet
      00FFB361H   CODE     ---       HALPHY_RxDisable
      00FFB37BH   CODE     ---       HALPHY_RxEnable
      00FFB5FCH   CODE     ---       HALPHY_TxBwSet
      00FFB428H   CODE     ---       HALPHY_TxEnable
      00FF6ABFH   CODE     ---       HALPKT_PhyStatusGet
      00FF28A0H   CODE     ---       HALPKT_RxqDoneSet
      00FF2535H   CODE     ---       HALPKT_TxqDoneSet
      00FFCC8FH   CODE     ---       HALPMU_PwrModeGet
      00FFCC62H   CODE     ---       HALPMU_PwrModeSet
      00FFCA75H   CODE     ---       HALRF_AgcInit
      00FF8E53H   CODE     ---       HALRF_AgcSet
      00FF8D9EH   CODE     ---       HALRF_AgcSet2Hw
      00FFA70EH   CODE     ---       HALRF_AllPathDisable
      00FFCAE2H   CODE     ---       HALRF_ExtFemInit
L251 LINKER/LOCATER V4.66.93.0                                                        02/16/2024  15:12:23  PAGE 19


      00FFBE98H   CODE     ---       HALRF_Freq2gCal
      00FFBDD8H   CODE     ---       HALRF_Freq2gCfg
      00FFC8C0H   CODE     ---       HALRF_FreqSubgCfg
      00FFBF02H   CODE     ---       HALRF_IfCheck
      00FFB3B9H   CODE     ---       HALRF_PllCfg
      00FFC087H   CODE     ---       HALRF_RssiOffsetSet
      00FFCAE0H   CODE     ---       HALRF_TemperatureMeasure
      00FFC059H   CODE     ---       HALRF_TemperatureRptGet
      00FFACB7H   CODE     ---       HALRF_TxGainTableCfg
      00FFC00FH   CODE     ---       HALRF_TxPwrChCompSet
      00FFC039H   CODE     ---       HALRF_TxPwrChSegSet
      00FFBD86H   CODE     ---       HALRF_TxPwrCompChUpdat
      00FFBFA1H   CODE     ---       HALRF_TxPwrCompSet
      00FFA692H   CODE     ---       HALRF_TxPwrCompSet2Hw
      00FFBFC4H   CODE     ---       HALRF_TxPwrCompUpdate
      00FFAE27H   CODE     ---       HALRF_TxPwrRptGet
      00FFAD78H   CODE     ---       HALRF_TxPwrSet
      00FFAC75H   CODE     ---       HALRF_TxPwrSet2Hw
      00FFCAE1H   CODE     ---       HALRF_VoltageMeasure
      00FFC070H   CODE     ---       HALRF_VoltageRptGet
      00FF4B82H   CODE     ---       HALRFK_Calibration
      00FFC140H   CODE     ---       HALRFK_kValueGet?_
      00FFAE92H   CODE     ---       HALRFK_kValueSet2Hw
      00FFAF1FH   CODE     ---       HALRFK_kValueSet?_
      00FFC7E0H   CODE     ---       HALRFK_LbPathDisable
      00FFC4E8H   CODE     ---       HALRFK_LbPathEnable
      00FF4C31H   CODE     ---       HALRFK_LbTrxDisable
      00FF4B13H   CODE     ---       HALRFK_LbTrxEnable
      00FFC2CBH   CODE     ---       HALRFK_ParaBackUp
      00FFC43CH   CODE     ---       HALRFK_ParaRecover
      00FF4E25H   CODE     ---       HALRFK_PllForFiltKSet
      00FF4D8AH   CODE     ---       HALRFK_PllForLokSet
      00FF4DA9H   CODE     ---       HALRFK_PllForSideBandKSet
      00FF4DCFH   CODE     ---       HALRFK_RfGainCfg
      00FF4F3BH   CODE     ---       HALRFK_RfPllCfg
      00FF4E8CH   CODE     ---       HALRFK_RfTxCfg
      00FFC59EH   CODE     ---       HALRFK_RingPllSet
      00FF4C7CH   CODE     ---       HALRFK_RssiGet
      00FFC3C7H   CODE     ---       HALRFK_RxBwCfg
      00FFC8A2H   CODE     ---       HALRFK_RxDisable
      00FFA740H   CODE     ---       HALRFK_RxEnable
      00FF4CE6H   CODE     ---       HALRFK_RxFiltK
      00FFC877H   CODE     ---       HALRFK_RxPathDisable
      00FFC807H   CODE     ---       HALRFK_RxPathEnable
      00FF4C24H   CODE     ---       HALRFK_SingleToneDisable
      00FF4C53H   CODE     ---       HALRFK_SingleToneEnable
      00FFC68EH   CODE     ---       HALRFK_TxLok
      00FFC712H   CODE     ---       HALRFK_TxSbk
      00FF5FC1H   CODE     ---       HALSEC_AesKeyOnlySet
      00FF5C5FH   CODE     ---       HALSEC_AesKeySet
      00FFC09EH   CODE     ---       HALSEC_AesLevelOnlySet
      00FFC0C8H   CODE     ---       HALSEC_AesSet
      00FF6FD2H   CODE     ---       HALSEC_AesTxSet
      00FF5FE2H   CODE     ---       HALSEC_NonceOnlySet
      00FFCAE3H   CODE     ---       HALTCON_Init
      00FFCC0DH   CODE     ---       HALTCON_PreTxTimeSet
      00FFB0C0H   CODE     ---       HALTCON_RxTailDelayGet
      00FFB05DH   CODE     ---       HALTCON_TxTailDelayGet
      00FF01AFH   CODE     ---       hmemcpy?_
*SFR* 000000F6H   DATA     BYTE      I2CM_BUF
*SFR* 000000F5H   DATA     BYTE      I2CM_CR
*SFR* 000000F4H   DATA     BYTE      I2CM_SA
*SFR* 000000F7H   DATA     BYTE      I2CM_TP
*SFR* 000000F1H   DATA     BYTE      I2CS_ADDR
*SFR* 000000F3H   DATA     BYTE      I2CS_BUF
L251 LINKER/LOCATER V4.66.93.0                                                        02/16/2024  15:12:23  PAGE 20


*SFR* 000000F2H   DATA     BYTE      I2CS_CR
*SFR* 000000C8H.5 DATA     BIT       I2FR
*SFR* 000000C8H.6 DATA     BIT       I3FR
*SFR* 000000A8H   DATA     BYTE      IE
*SFR* 00000088H.1 DATA     BIT       IE0
*SFR* 00000088H.1 DATA     BIT       IE0_
*SFR* 00000088H.3 DATA     BIT       IE1
*SFR* 00000088H.3 DATA     BIT       IE1_
*SFR* 000000B1H   DATA     BYTE      IEH
*SFR* 000000A8H   DATA     BYTE      IEL
*SFR* 000000B0H.2 DATA     BIT       INT0
*SFR* 000000B0H.3 DATA     BIT       INT1
      00FF1FFDH   CODE     ---       INTR_Clear
      00FF2026H   CODE     ---       INTR_ClearRtcGrp
      00FF17E0H   CODE     ---       INTR_Enable
      00FF2037H   CODE     ---       INTR_Rf_Hdlr
      00FF13D5H   CODE     ---       INTR_Rf_Register
*SFR* 000000B8H   DATA     BYTE      IP
*SFR* 000000B7H   DATA     BYTE      IPH
*SFR* 000000B7H   DATA     BYTE      IPH0
*SFR* 000000B8H   DATA     BYTE      IPL
*SFR* 000000B8H   DATA     BYTE      IPL0
      00FF2046H   CODE     ---       ISR_0_Hdlr
      00FF300AH   CODE     ---       ISR_1_Hdlr
      00FF2880H   CODE     ---       ISR_CLEAR_MAC_STATUS
      00FF2FFBH   CODE     ---       ISR_GET_MAC_STATUS
*SFR* 00000088H.0 DATA     BIT       IT0
*SFR* 00000088H.2 DATA     BIT       IT1
      00FF8221H   CODE     ---       mac
      00FF9CC4H   CODE     ---       MAC_AckFrameCheck
      00FF5B95H   CODE     ---       MAC_AckSet
      00FF36E7H   CODE     ---       MAC_BackoffTimeCal
      00FF8825H   CODE     ---       mac_BmuIsrInit
      00FF35D1H   CODE     ---       MAC_CcaStart
      00FF5DFBH   CODE     ---       MAC_CcaStatusGet
      00FF827FH   CODE     ---       mac_CheckBmuErr
      00FF5F7FH   CODE     ---       mac_CheckIsrRxReceived
      00FF5E77H   CODE     ---       mac_CheckRxBusy
      00FF3A48H   CODE     ---       MAC_CmdQueueParse
      00FF44A3H   CODE     ---       Mac_endianConvert
      00FF2891H   CODE     ---       mac_FatalClear
      00FF9877H   CODE     ---       mac_Filter?_
      00FF2764H   CODE     ---       mac_FunEventQAdd?_
      00FF249EH   CODE     ---       mac_FunEventQGet?_
      00FF17F0H   CODE     ---       mac_FunEventQInit
      00FF2DB0H   CODE     ---       mac_FunEventQueueExist
      00FF970EH   CODE     ---       mac_genAck
      00FF9753H   CODE     ---       mac_genAckFrmCtrl
      00FF4151H   CODE     ---       mac_genEnhAck
      00FF97C5H   CODE     ---       mac_getCslPhase
      00FF356EH   CODE     ---       mac_htrp_check_rx_conn_status
      00FF7675H   CODE     ---       mac_htrp_check_rx_valid
      00FF6BC5H   CODE     ---       mac_htrp_clear_rx_queue
      00FFA14DH   CODE     ---       mac_htrp_clear_tx_queue
      00FF1DADH   CODE     ---       mac_htrp_ctrl_channel_set
      00FFA090H   CODE     ---       mac_htrp_ctrl_clear_pkt_cnt
      00FFA078H   CODE     ---       mac_htrp_ctrl_get_channel
      00FF1FC3H   CODE     ---       mac_htrp_ctrl_increase_channel_index
      00FF759EH   CODE     ---       mac_htrp_ctrl_increase_cur_block
      00FFA0B5H   CODE     ---       mac_htrp_ctrl_increase_pkt_cnt
      00FF732EH   CODE     ---       mac_htrp_ctrl_increase_slot_index
      00FFA185H   CODE     ---       mac_htrp_ctrl_init
      00FF8EBFH   CODE     ---       mac_htrp_ctrl_set_channel_map_from_bmu
      00FFA117H   CODE     ---       mac_htrp_ctrl_slot_sync
      00FF6B76H   CODE     ---       mac_htrp_get_rx_sw_queue_wo_addr
L251 LINKER/LOCATER V4.66.93.0                                                        02/16/2024  15:12:23  PAGE 21


      00FF248BH   CODE     ---       mac_htrp_get_tx_data
      00FF37FCH   CODE     ---       mac_htrp_is_allow_sleep_state
      00FFA161H   CODE     ---       mac_htrp_isr_rx_done_handler
      00FF2727H   CODE     ---       mac_htrp_isr_tx_done_handler
      00FF37DBH   CODE     ---       mac_htrp_ready_to_sleep
      00FF2482H   CODE     ---       mac_htrp_reg_isr_cb
      00FF6AF2H   CODE     ---       mac_htrp_relay_data_to_sw_rxq
      00FF8E32H   CODE     ---       mac_htrp_reset_rx_conn_status
      00FFA1A8H   CODE     ---       mac_htrp_rtc_isr_handler
      00FF75C0H   CODE     ---       mac_htrp_rx_burst_rx_done
      00FF1DF7H   CODE     ---       mac_htrp_rx_cal_drift_time
      00FF1FA5H   CODE     ---       mac_htrp_rx_get_state
      00FF301EH   CODE     ---       mac_htrp_rx_handler
      00FF1796H   CODE     ---       mac_htrp_rx_init
      00FF761BH   CODE     ---       mac_htrp_rx_period_rx_done
      00FFA1AEH   CODE     ---       mac_htrp_rx_period_tx_done
      00FF1E64H   CODE     ---       mac_htrp_rx_set_next_task_and_channel
      00FF1B96H   CODE     ---       mac_htrp_rx_set_period_next_task
      00FF1ADDH   CODE     ---       mac_htrp_rx_set_rf_task
      00FF17E5H   CODE     ---       mac_htrp_rx_set_state
      00FF75E7H   CODE     ---       mac_htrp_rx_slot_rx_done
      00FF1FF5H   CODE     ---       mac_htrp_rx_slot_tx_done
      00FFA141H   CODE     ---       mac_htrp_send_tx_done
      00FF8E70H   CODE     ---       mac_htrp_set_disable
      00FF350BH   CODE     ---       mac_htrp_set_rx_hw_queue
      00FF3501H   CODE     ---       mac_htrp_set_rx_queue
      00FF3558H   CODE     ---       mac_htrp_set_rx_sw_queue
      00FF8E79H   CODE     ---       mac_htrp_set_sec_para
      00FF2394H   CODE     ---       mac_htrp_set_tx_queue
      00FF358DH   CODE     ---       mac_htrp_sleep_ctrl
      00FF57C3H   CODE     ---       mac_htrp_sleep_init
      00FF7410H   CODE     ---       mac_htrp_tx_burst_tx_done
      00FF27EAH   CODE     ---       mac_htrp_tx_get_state
      00FF2135H   CODE     ---       mac_htrp_tx_handler
      00FF17EAH   CODE     ---       mac_htrp_tx_init
      00FF734FH   CODE     ---       mac_htrp_tx_period_burst_rx_done
      00FF751DH   CODE     ---       mac_htrp_tx_period_burst_tx_done
      00FF745CH   CODE     ---       mac_htrp_tx_set_rf_task
      00FF238DH   CODE     ---       mac_htrp_tx_set_state
      00FF7287H   CODE     ---       mac_htrp_tx_slot_rx_done
      00FF37E8H   CODE     ---       mac_htrp_tx_slot_tx_done
      00FF7282H   CODE     ---       mac_htrp_update_lrx_buf_status
      00FF1431H   CODE     ---       mac_Init
      00FF25C5H   CODE     ---       mac_IntEventQAdd?_
      00FF27F5H   CODE     ---       mac_IntEventQGet?_
      00FF82B3H   CODE     ---       mac_IntEventQInit
      00FF2579H   CODE     ---       mac_IntEventQueueClearTxData
      00FF84B6H   CODE     ---       mac_IntEventQueueExist
      00FF3F93H   CODE     ---       mac_IntEventQueueHandler
      00FF5F72H   CODE     ---       mac_isr_reg_cb
      00FF8794H   CODE     ---       mac_IsrHandler
      00FF17BDH   CODE     ---       mac_IsrInit
      00FF8765H   CODE     ---       MAC_MhrParse
      00FF9806H   CODE     ---       MAC_NonceGen
      00FF9CABH   CODE     ---       mac_org_cca_done_handler
      00FF95A7H   CODE     ---       mac_org_mhr_done_handler
      00FF876FH   CODE     ---       mac_org_rx_done_handler
      00FF27EFH   CODE     ---       mac_org_tx_done_handler
      00FF856BH   CODE     ---       mac_parseHdr
      00FF9116H   CODE     ---       mac_Raa_SchConfigHdlr
      00FF9588H   CODE     ---       mac_Raa_SchEndHdlr
      00FF94BBH   CODE     ---       mac_Raa_SchInitHdlr
      00FF95A6H   CODE     ---       mac_Raa_SchReservedHdlr
      00FF94BCH   CODE     ---       mac_Raa_SchWaitMHRHdlr
      00FF9587H   CODE     ---       mac_Raa_SchWaitResumeHdlr
L251 LINKER/LOCATER V4.66.93.0                                                        02/16/2024  15:12:23  PAGE 22


      00FF279CH   CODE     ---       mac_Raa_SchWaitRxDoneHdlr
      00FF9556H   CODE     ---       mac_Raa_SchWaitTxDoneHdlr
      00FF6FB7H   CODE     ---       Mac_RaaClearAckQandGenRxData
      00FF6D4FH   CODE     ---       Mac_RaaRxDoneHandle?_
      00FF8257H   CODE     ---       MAC_RaaSchedule
      00FF9FDFH   CODE     ---       MAC_RfeDataGen
      00FF2DBFH   CODE     ---       MAC_RfeRxAonTaskDisable
      00FF71B7H   CODE     ---       MAC_RfeRxDataConfirm
      00FF2DCDH   CODE     ---       MAC_RfeRxDisable
      00FF7F61H   CODE     ---       MAC_RfeRxParInit
      00FF9EAEH   CODE     ---       MAC_RfeRxRptGet
      00FF2AABH   CODE     ---       MAC_RfeRxSchedule
      00FF9EC1H   CODE     ---       MAC_RfeSecLbHwSet
      00FF5AB5H   CODE     ---       MAC_RfeTxHwSecSet
      00FF7999H   CODE     ---       MAC_RfeTxParInit
      00FF9F6CH   CODE     ---       MAC_RfeTxPktLenUpdate
      00FF14ACH   CODE     ---       MAC_RfeTxSchedule
      00FF9F25H   CODE     ---       MAC_RfeTxTaskSet
      00FF44F6H   CODE     ---       mac_RssiInfoCalc
      00FF6C38H   CODE     ---       MAC_RxDoneEventGen?_
      00FF33FBH   CODE     ---       MAC_RxHwSet
      00FF95C4H   CODE     ---       MAC_RXQ_CPY?_
      00FF3645H   CODE     ---       MAC_SecLbHwSet
      00FF3777H   CODE     ---       MAC_SleepCheck
      00FF55E6H   CODE     ---       MAC_SrcMatch_Enable
      00FF4509H   CODE     ---       MAC_SrcMatch_EnableStatusGet
      00FF5626H   CODE     ---       MAC_SrcMatch_ListAdd
      00FFA4C8H   CODE     ---       MAC_SrcMatch_ListAddExtended
      00FFA3B6H   CODE     ---       MAC_SrcMatch_ListAddShort
      00FF5343H   CODE     ---       MAC_SrcMatch_ListClear
      00FF4688H   CODE     ---       MAC_SrcMatch_ListFind
      00FFA2FAH   CODE     ---       MAC_SrcMatch_ListFindExtended?_
      00FF55C5H   CODE     ---       MAC_SrcMatch_ListFindIdx
      00FFA265H   CODE     ---       MAC_SrcMatch_ListFindShort?_
      00FFA1FDH   CODE     ---       MAC_SrcMatch_ListInit
      00FF5608H   CODE     ---       MAC_SrcMatch_ListModify
      00FFA56CH   CODE     ---       MAC_SrcMatch_ListModifyExtended
      00FFA457H   CODE     ---       MAC_SrcMatch_ListModifyShort
      00FF35CDH   CODE     ---       mac_tar_cca_setup
      00FF9DF2H   CODE     ---       mac_tar_check_data_requst
      00FF5C88H   CODE     ---       mac_Tar_SchConfigHdlr
      00FF9C7AH   CODE     ---       mac_Tar_SchEndHdlr
      00FF9A8AH   CODE     ---       mac_Tar_SchInitHdlr
      00FF9CAAH   CODE     ---       mac_Tar_SchReservedHdlr
      00FF29BDH   CODE     ---       mac_Tar_SchWaitAckRxDoneHdlr
      00FF9AFDH   CODE     ---       mac_Tar_SchWaitAckRxMHRHdlr
      00FF5D27H   CODE     ---       mac_Tar_SchWaitCCADoneHdlr
      00FF9C48H   CODE     ---       mac_Tar_SchWaitNormalAckDoneHdlr
      00FF9B50H   CODE     ---       mac_Tar_SchWaitNormalRxMsgHdlr
      00FF9A8BH   CODE     ---       mac_Tar_SchWaitTxDoneHdlr
      00FF5F68H   CODE     ---       MAC_TarParInit
      00FF826BH   CODE     ---       MAC_TarSchedule
      00FF7FDCH   CODE     ---       Mac_TimeoutHdlr
      00FF82BFH   CODE     ---       mac_TrxPar_Init
      00FF26AEH   CODE     ---       MAC_TxDoneEventGen
      00FF25FDH   CODE     ---       Mac_TxGetBmuData
      00FF5A59H   CODE     ---       MAC_TxHwSet
      00FF5CFAH   CODE     ---       MAC_TxStart
      00FF5D0BH   CODE     ---       MAC_TxTaskSet
      00FF361CH   CODE     ---       MAC_WaitforRxTaskReady
      00FF0F91H   HCONST   ---       MACRfeDataType
      00FF0F97H   HCONST   ---       MACRfePrbs9
      0000AC3FH   EDATA    ---       MacSrcAddEntry
      0000AC3BH   EDATA    ---       MacSrcFindEntry
      0000AC43H   EDATA    ---       MacSrcModifyEntry
L251 LINKER/LOCATER V4.66.93.0                                                        02/16/2024  15:12:23  PAGE 23


      00FF25A9H   CODE     ---       MacTxFreeBmuData
      00FF1369H   CODE     ---       MAIN
      00FF0190H   CODE     ---       memcpy?_
      00FF01CEH   CODE     ---       memset?_
      00FF97BAH   CODE     ---       mod_replace
      00FFA628H   CODE     ---       MSG_EventClr
      00FF17C9H   CODE     ---       MSG_Hdlr
      00FF13B6H   CODE     ---       MSG_HdlrInit
      00FF398BH   CODE     ---       MSG_Idle
      00FF1724H   CODE     ---       MSG_InMsgProc
      00FFA5DDH   CODE     ---       MSG_Isr?_
      00FF3FEEH   CODE     ---       MSG_OutMsgForceHandle
      00FF39CEH   CODE     ---       MSG_OutMsgProc
      00FF3A01H   CODE     ---       MSG_OutMsgToBmu
      00FF39F8H   CODE     ---       MSG_OutStateSet
*SFR* 000000EAH   DATA     BYTE      MXAX
*SFR* 000000D1H.5 DATA     BIT       N_B
*SFR* 000000D0H.2 DATA     BIT       OV
*SFR* 000000D0H.0 DATA     BIT       P
*SFR* 00000080H   DATA     BYTE      P0
*SFR* 00000090H   DATA     BYTE      P1
*SFR* 000000A0H   DATA     BYTE      P2
*SFR* 000000B0H   DATA     BYTE      P3
      00FF84C5H   CODE     ---       panIdPresent
      0000B51FH   EDATA    ---       pBmuLrxShareQCtrl
      00FF0006H   HCONST   ---       pBmuMacIntrSts
      00FF2EF5H   CODE     ---       Pci_BleCmdInitBle
      00FF4524H   CODE     ---       Pci_BleCmdSetBleMac
      00FF8BD6H   CODE     ---       Pci_BleCmdSetBleModem
      00FF5F17H   CODE     ---       Pci_BlePhy_GetHtrp_Status
      00FF8CF0H   CODE     ---       Pci_BlePhy_SetHtrp_Disable
      00FF2FBAH   CODE     ---       Pci_BlePhy_SetHtrp_Initiate
      00FF8D5BH   CODE     ---       Pci_BlePhy_SetHtrp_Map_Channel
      00FF8F0CH   CODE     ---       Pci_BlePhy_SetHtrp_Para
      00FF8D0DH   CODE     ---       Pci_BlePhy_SetHtrp_Rx_Enable
      00FF8D2BH   CODE     ---       Pci_BlePhy_SetHtrp_Sec
      00FF8E9AH   CODE     ---       Pci_BlePhy_SetHtrp_Tx_Enable
      00FF7DEAH   CODE     ---       Pci_EnableSingleTone
      00FF514DH   CODE     ---       Pci_Get15p4CslAccuracy
      00FF5183H   CODE     ---       Pci_Get15p4CslUncertainty
      00FF7C81H   CODE     ---       Pci_GetCrcCount
      00FF7D57H   CODE     ---       Pci_GetPhyStatus
      00FF7CEDH   CODE     ---       Pci_GetRssi
      00FF2F16H   CODE     ---       Pci_InitFsk
      00FF5704H   CODE     ---       Pci_InitZigbee
      00FF2F80H   CODE     ---       Pci_OqpskCmdInitOqpsk
      00FF8FEDH   CODE     ---       Pci_OqpskCmdSetOqpskMac
      00FF8FAFH   CODE     ---       Pci_OqpskCmdSetOqpskModem
      00FF2F52H   CODE     ---       Pci_ParaReset
      00FF5268H   CODE     ---       Pci_Parse15p4AddressFilter
      00FF55F6H   CODE     ---       Pci_Parse15p4AutoAck
      00FF56BBH   CODE     ---       Pci_Parse15p4MacPib
      00FF46ADH   CODE     ---       Pci_Parse15p4PendingBit
      00FF5647H   CODE     ---       Pci_Parse15p4PhyPib
      00FF51B9H   CODE     ---       Pci_Parse15p4SmEnable
      00FF50D2H   CODE     ---       Pci_Parse15p4SwMacCmd
      00FF8C89H   CODE     ---       Pci_ParseBleCmd
      00FF3D0EH   CODE     ---       Pci_ParseCmnHalCmd
      00FF3BD5H   CODE     ---       Pci_ParseCmnSysCmd
      00FF7BB5H   CODE     ---       Pci_ParseCommonCmd
      00FF46D9H   CODE     ---       Pci_ParseFskCmd
      00FF908FH   CODE     ---       Pci_ParseOqpskCmd
      00FF51C9H   CODE     ---       Pci_Parset15p4SmEntryCtrl
      00FF9043H   CODE     ---       Pci_RfeRxParaCheck
      00FF7AD0H   CODE     ---       Pci_RfeTxParaCheck
L251 LINKER/LOCATER V4.66.93.0                                                        02/16/2024  15:12:23  PAGE 24


      00FF5063H   CODE     ---       Pci_Set15p4CslReceiverCtrl
      00FF89D1H   CODE     ---       Pci_SetClockMode
      00FF475DH   CODE     ---       Pci_SetFskMac
      00FF8B94H   CODE     ---       Pci_SetFskModem
      00FF2ED9H   CODE     ---       Pci_SetFskPreamble
      00FF40EAH   CODE     ---       Pci_SetFskSfd
      00FF4709H   CODE     ---       Pci_SetFskType
      00FF7FE6H   CODE     ---       Pci_SetGaussianFilterType
      00FF5B08H   CODE     ---       Pci_SetPhr
      00FF8A1DH   CODE     ---       Pci_SetRfbAutoState
      00FF7FD2H   CODE     ---       Pci_SetRfeMode
      00FF2E72H   CODE     ---       Pci_SetRfeRxDisableCmd
      00FF7EA4H   CODE     ---       Pci_SetRfeRxEnableCmd
      00FF896AH   CODE     ---       Pci_SetRfeSecurityCmd
      00FF2E4AH   CODE     ---       Pci_SetRfeTxDisableCmd
      00FF7A31H   CODE     ---       Pci_SetRfeTxEnableCmd
      00FF8831H   CODE     ---       Pci_SetRfFreq
      00FF2E5EH   CODE     ---       Pci_SetRfIdle
      00FF89B2H   CODE     ---       Pci_SetRfSleep
      00FF8920H   CODE     ---       Pci_SetRxTaskPara
      00FF8A97H   CODE     ---       Pci_SetWakeOnRadio
      00FF5680H   CODE     ---       Pci_Update15p4CslSampleTime
      00FF933AH   CODE     ---       PciBurstTxdoneEventSendtoMsgQueue
      00FF2E90H   CODE     ---       PciCnfEventSendtoMsgQueue
      00FF5159H   CODE     ---       PciCslAccuracyEventSendtoMsgQueue
      00FF518FH   CODE     ---       PciCslUncertaintyEventSendtoMsgQueue
      00FF9297H   CODE     ---       PciDataControlFieldParse
      00FF7C8DH   CODE     ---       PciGetCrcEventSendtoMsgQueue
      00FF7D63H   CODE     ---       PciGetPhyStatusEventSendtoMsgQueue
      00FF7CF9H   CODE     ---       PciGetRssiEventSendtoMsgQueue
      00FF936BH   CODE     ---       PciHtrpConnToEventdoneEventSendtoMsgQueue
      00FF941BH   CODE     ---       PciHtrpFwStatusEventdoneEventSendtoMsgQueue
      00FF93E9H   CODE     ---       PciHtrpGetRssiEventSendtoMsgQueue
      00FF5E9CH   CODE     ---       PciHtrpHwStatusEventdoneEventSendtoMsgQueue
      00FF93A4H   CODE     ---       PciHtrpPerEventdoneEventSendtoMsgQueue
      00FF3FA9H   CODE     ---       pciQueueGetandMacIntQueueAdd
*SFR* 00000087H   DATA     BYTE      PCON
      0000AEFDH   EDATA    ---       pHalBmuMemSizeHwRxq
      0000AF01H   EDATA    ---       pHalBmuMemSizeHwSwRxq
      0000AEDDH   EDATA    ---       pHalFwCfg
      0000AEE5H   EDATA    ---       pHalHwCfg
      0000AF05H   EDATA    ---       pHalHwPara
      0000AF09H   EDATA    ---       pHalHwTab
      0000AEE9H   EDATA    ---       pHalMdmDefaultCfg
      0000B06AH   EDATA    ---       pHalPktCfg
      0000AEF5H   EDATA    ---       pHalPmuDefaultCfg2G
      0000AEF9H   EDATA    ---       pHalPmuDefaultCfgSubG
      0000B0B0H   EDATA    ---       pHalPrtclCfg
      0000AEE1H   EDATA    ---       pHalRegPatch
      0000AEEDH   EDATA    ---       pHalRfDefaultCfg2G
      0000AEF1H   EDATA    ---       pHalRfDefaultCfgSubG
      00FF074BH   HCONST   ---       phyConfig
      00FF082BH   HCONST   ---       phyTabBpFir15Tap
      00FF0833H   HCONST   ---       phyTabBpFir31Tap
      00FF0843H   HCONST   ---       phyTabIfMap
      00FF084BH   HCONST   ---       phyTabIfMapDclk
      00FF130BH   HCONST   ---       pllFreqBandTab
      00FF1367H   HCONST   ---       pMemMapBmuLinkTable
      00FF1365H   HCONST   ---       pMemMapExtData
      00FF1363H   HCONST   ---       pMemMapSharedBuffer
      00FF02B2H   HCONST   ---       pmuConfig
*SFR* 000000D8H.6 DATA     BIT       PORF
*SFR* 000000B8H.6 DATA     BIT       PPC
*SFR* 000000B8H.4 DATA     BIT       PS
*SFR* 000000B8H.4 DATA     BIT       PS0
L251 LINKER/LOCATER V4.66.93.0                                                        02/16/2024  15:12:23  PAGE 25


*SFR* 000000B8H.6 DATA     BIT       PS1
*SFR* 000000D0H   DATA     BYTE      PSW
*SFR* 000000D1H   DATA     BYTE      PSW1
*SFR* 000000B8H.1 DATA     BIT       PT0
*SFR* 000000B8H.3 DATA     BIT       PT1
*SFR* 000000B8H.5 DATA     BIT       PT2
*SFR* 000000B8H.0 DATA     BIT       PX0
*SFR* 000000B8H.2 DATA     BIT       PX1
      00FF4863H   CODE     ---       Q_Init
      00FF17FCH   CODE     ---       Q_MemAlloc
      00FF48B5H   CODE     ---       Q_MemFree
      00FF489BH   CODE     ---       Q_MemFreeCount
      00FF177FH   CODE     ---       Q_MemGet
      00FF48D8H   CODE     ---       Q_QChageType
      00FF3A2BH   CODE     ---       Q_QFree
      00FF3F7DH   CODE     ---       Q_QGet
      00FF48C2H   CODE     ---       Q_QLenGet
      00FF4A6CH   CODE     ---       Q_QMoveBack
      00FF39C1H   CODE     ---       Q_QNumGet
      00FF3DFFH   CODE     ---       Q_QPushBack
      00FF49AEH   CODE     ---       Q_QPushFront
      00FF4912H   CODE     ---       Q_QRemove
      00FF90ACH   CODE     ---       R2tTask_Set
*SFR* 00000098H.2 DATA     BIT       RB8
*SFR* 000000C0H.2 DATA     BIT       RB81
*SFR* 000000CBH   DATA     BYTE      RCAP2H
*SFR* 000000CAH   DATA     BYTE      RCAP2L
*SFR* 000000C8H.5 DATA     BIT       RCLK
*SFR* 000000B0H.7 DATA     BIT       RD
*SFR* 00000098H.4 DATA     BIT       REN
*SFR* 000000C0H.4 DATA     BIT       REN1
      00FF5320H   CODE     ---       Reverse_Uint32cpy
      00FF146AH   CODE     ---       RF_Task_AllStop
      00FF1822H   CODE     ---       RF_Task_En
      00FF1907H   CODE     ---       RF_Task_Set
      00FF01E2H   HCONST   ---       rfConfig
      00FF039AH   HCONST   ---       rfTabSideBnadK
*SFR* 00000098H.0 DATA     BIT       RI
*SFR* 000000C0H.0 DATA     BIT       RI1
*SFR* 000000CBH   DATA     BYTE      RLDH
*SFR* 000000CAH   DATA     BYTE      RLDL
*SFR* 000000D0H.3 DATA     BIT       RS0
*SFR* 000000D0H.4 DATA     BIT       RS1
      00FF1DC4H   CODE     ---       RTC_ClkGet?_
      00FF57E3H   CODE     ---       RTC_Init
      00FF5837H   CODE     ---       RTC_IsrHdlr
      00FF57A7H   CODE     ---       RTC_IsrHdlrInit
      0000B2D5H   EDATA    BYTE      rtc_q_cnt
      00FF1F32H   CODE     ---       RTC_TickGapCount
      00FF4FE0H   CODE     ---       RTC_TimerConfig
      00FF5050H   CODE     ---       RTC_TimerWakeUpDisable
      00FF5781H   CODE     ---       RTC_TriggerWithinUs
      00FF4AF4H   CODE     ---       RTC_uDelay
      00FF5777H   CODE     ---       RTC_WaitForTriggered
*SFR* 000000D4H   DATA     BYTE      RTCCON
*SFR* 000000D7H   DATA     BYTE      RTCICR
*SFR* 000000D6H   DATA     BYTE      RTCREG
*SFR* 000000D5H   DATA     BYTE      RTCSEC
      00FF1346H   HCONST   ---       Ruci_ElmtNum_GetCrcReportEvent
      00FF12D5H   HCONST   ---       Ruci_ElmtNum_GetFwVerEvent
      00FF133DH   HCONST   ---       Ruci_ElmtNum_GetRegEvent
      00FF12E2H   HCONST   ---       Ruci_ElmtNum_GetTemperatureRptEvent
      00FF12ECH   HCONST   ---       Ruci_ElmtNum_GetVoltageRptEvent
      00FF1333H   HCONST   ---       Ruci_ElmtNum_RxControlField
      00FF1240H   HCONST   ---       Ruci_ElmtNum_Set15p4AddressFilter
L251 LINKER/LOCATER V4.66.93.0                                                        02/16/2024  15:12:23  PAGE 26


      00FF1252H   HCONST   ---       Ruci_ElmtNum_Set15p4MacPib
      00FF1263H   HCONST   ---       Ruci_ElmtNum_Set15p4PhyPib
      00FF1283H   HCONST   ---       Ruci_ElmtNum_SetBleMac
      00FF126FH   HCONST   ---       Ruci_ElmtNum_SetCslReceiverCtrl
      00FF1168H   HCONST   ---       Ruci_ElmtNum_SetDutyCycle
      00FF135FH   HCONST   ---       Ruci_ElmtNum_SetFskSfd
      00FF1298H   HCONST   ---       Ruci_ElmtNum_SetHtrpPara
      00FF12FEH   HCONST   ---       Ruci_ElmtNum_SetPmuMpkSetting
      00FF1196H   HCONST   ---       Ruci_ElmtNum_SetRfeRxEnable
      00FF117BH   HCONST   ---       Ruci_ElmtNum_SetRfeTxEnable
      00FF114BH   HCONST   ---       Ruci_ElmtNum_SetRfFrequency
      00FF115FH   HCONST   ---       Ruci_ElmtNum_SetRxEnable
      00FF1328H   HCONST   ---       Ruci_ElmtNum_SetTxControlField
      00FF1155H   HCONST   ---       Ruci_ElmtNum_SetWakeOnRadio
      00FF1278H   HCONST   ---       Ruci_ElmtNum_UpdateCslSampleTime
      00FF1341H   HCONST   ---       Ruci_ElmtType_GetCrcReportEvent
      00FF12CDH   HCONST   ---       Ruci_ElmtType_GetFwVerEvent
      00FF1339H   HCONST   ---       Ruci_ElmtType_GetRegEvent
      00FF12DDH   HCONST   ---       Ruci_ElmtType_GetTemperatureRptEvent
      00FF12E7H   HCONST   ---       Ruci_ElmtType_GetVoltageRptEvent
      00FF132DH   HCONST   ---       Ruci_ElmtType_RxControlField
      00FF1238H   HCONST   ---       Ruci_ElmtType_Set15p4AddressFilter
      00FF1248H   HCONST   ---       Ruci_ElmtType_Set15p4MacPib
      00FF125CH   HCONST   ---       Ruci_ElmtType_Set15p4PhyPib
      00FF127CH   HCONST   ---       Ruci_ElmtType_SetBleMac
      00FF126AH   HCONST   ---       Ruci_ElmtType_SetCslReceiverCtrl
      00FF1163H   HCONST   ---       Ruci_ElmtType_SetDutyCycle
      00FF135BH   HCONST   ---       Ruci_ElmtType_SetFskSfd
      00FF128AH   HCONST   ---       Ruci_ElmtType_SetHtrpPara
      00FF12F1H   HCONST   ---       Ruci_ElmtType_SetPmuMpkSetting
      00FF1189H   HCONST   ---       Ruci_ElmtType_SetRfeRxEnable
      00FF116DH   HCONST   ---       Ruci_ElmtType_SetRfeTxEnable
      00FF1147H   HCONST   ---       Ruci_ElmtType_SetRfFrequency
      00FF115BH   HCONST   ---       Ruci_ElmtType_SetRxEnable
      00FF1323H   HCONST   ---       Ruci_ElmtType_SetTxControlField
      00FF114FH   HCONST   ---       Ruci_ElmtType_SetWakeOnRadio
      00FF1274H   HCONST   ---       Ruci_ElmtType_UpdateCslSampleTime
      00FF4008H   CODE     ---       RUCI_endianConvert
*SFR* 000000D8H.0 DATA     BIT       RWT
*SFR* 000000B0H.0 DATA     BIT       RXD
      00FF2E14H   CODE     ---       RxTask_AlwaysOn_Set
      00FF9210H   CODE     ---       RxTask_RxTimer_Set
      00FF91C3H   CODE     ---       RxTask_Timeout_Set
*SFR* 000000A9H   DATA     BYTE      SADDR
*SFR* 000000B9H   DATA     BYTE      SADEN
      0000B5C8H   EDATA    ---       sBmuCtrlPara
*SFR* 00000099H   DATA     BYTE      SBUF
*SFR* 000000C1H   DATA     BYTE      SBUF1
*SFR* 00000098H   DATA     BYTE      SCON
*SFR* 000000C0H   DATA     BYTE      SCON1
      00FF28F5H   CODE     ---       SetRfIdle
      0000AF0DH   EDATA    ---       sHalCtrl
      0000B06CH   EDATA    ---       sHalFuncHdlr
      00FF1097H   HCONST   ---       sHalFwCfg
      00FF10A5H   HCONST   ---       sHalHwCfgBLE
      00FF10DBH   HCONST   ---       sHalHwCfgWisun
      00FF1111H   HCONST   ---       sHalHwCfgZigbee
      00FF0851H   HCONST   ---       sHalHwPara
      00FF08CAH   HCONST   ---       sHalHwTab
      00FF11F4H   HCONST   ---       sHalParaIndDefault
      0000B03BH   EDATA    ---       sHalPktCfg
      00FF12A6H   HCONST   ---       sHalPrtclCfg
      0000B5A5H   EDATA    ---       sHalRfkCtrl
*SFR* 00000098H.7 DATA     BIT       SM0
*SFR* 000000C0H.7 DATA     BIT       SM01
L251 LINKER/LOCATER V4.66.93.0                                                        02/16/2024  15:12:23  PAGE 27


*SFR* 00000098H.6 DATA     BIT       SM1
*SFR* 000000C0H.6 DATA     BIT       SM11
*SFR* 00000098H.5 DATA     BIT       SM2
*SFR* 000000C0H.5 DATA     BIT       SM21
      0000B578H   EDATA    ---       sMsgCtrl
*SFR* 00000081H   DATA     BYTE      SP
*SFR* 000000ECH   DATA     BYTE      SPCR
*SFR* 000000EEH   DATA     BYTE      SPDR
*SFR* 000000BEH   DATA     BYTE      SPH
*SFR* 000000EDH   DATA     BYTE      SPSR
      0000AC47H   EDATA    ---       sQCtrl
      0000AC53H   EDATA    ---       sQHeader
      0000ACCBH   EDATA    ---       sQPayload
*SFR* 000000EFH   DATA     BYTE      SSCR
      00FF395AH   CODE     ---       SYS_EnterSleepCheck
      00FF483BH   CODE     ---       SYS_EnterSleepGuard
      00FF4851H   CODE     ---       SYS_Idle_Task
      00FF13A9H   CODE     ---       SYS_IdleTaskInit
      00FF13C9H   CODE     ---       SYS_IdleTaskIntInit
      00FF20CEH   CODE     ---       SYS_InfoRegInit
      00FF1370H   CODE     ---       SYS_Init
      00FF300FH   CODE     ---       SYS_isClkAPassOverClkB
      00FF383DH   CODE     ---       SYS_Rand
      00FF38E5H   CODE     ---       SYS_Sleep
      00FF39B8H   CODE     ---       SYS_SleepMinTimeGet
      00FF210AH   CODE     ---       SYS_Task_Block
      00FF2822H   CODE     ---       SYS_Task_Register
      00FF2851H   CODE     ---       SYS_Task_Run
      00FF24D5H   CODE     ---       SYS_Task_UnBlock
      00FF38D4H   CODE     ---       SYS_TimerInit
      00FF16E2H   CODE     ---       SYS_TRAP
*SFR* 000000B0H.4 DATA     BIT       T0
*SFR* 000000B0H.5 DATA     BIT       T1
*SFR* 00000090H.0 DATA     BIT       T2
*SFR* 000000C8H.2 DATA     BIT       T2CM
*SFR* 000000C8H   DATA     BYTE      T2CON
*SFR* 00000090H.1 DATA     BIT       T2EX
*SFR* 000000C8H.0 DATA     BIT       T2I0
*SFR* 000000C8H.1 DATA     BIT       T2I1
*SFR* 000000C9H   DATA     BYTE      T2IF
*SFR* 000000C9H   DATA     BYTE      T2MOD
*SFR* 000000C8H.7 DATA     BIT       T2PS
*SFR* 000000C8H.3 DATA     BIT       T2R0
*SFR* 000000C8H.4 DATA     BIT       T2R1
      00FF19B5H   CODE     ---       T2RTask_Set
*SFR* 000000EBH   DATA     BYTE      TA
*SFR* 00000098H.3 DATA     BIT       TB8
*SFR* 000000C0H.3 DATA     BIT       TB81
*SFR* 0000009FH   DATA     BYTE      TB_SFR_REG
*SFR* 000000C8H.4 DATA     BIT       TCLK
*SFR* 00000088H   DATA     BYTE      TCON
*SFR* 00000088H.5 DATA     BIT       TF0
*SFR* 00000088H.7 DATA     BIT       TF1
*SFR* 000000C8H.7 DATA     BIT       TF2
*SFR* 0000008CH   DATA     BYTE      TH0
*SFR* 0000008DH   DATA     BYTE      TH1
*SFR* 000000CDH   DATA     BYTE      TH2
*SFR* 00000098H.1 DATA     BIT       TI
*SFR* 000000C0H.1 DATA     BIT       TI1
*SFR* 0000008AH   DATA     BYTE      TL0
*SFR* 0000008BH   DATA     BYTE      TL1
*SFR* 000000CCH   DATA     BYTE      TL2
*SFR* 00000089H   DATA     BYTE      TMOD
*SFR* 00000088H.4 DATA     BIT       TR0
*SFR* 00000088H.6 DATA     BIT       TR1
L251 LINKER/LOCATER V4.66.93.0                                                        02/16/2024  15:12:23  PAGE 28


*SFR* 000000C8H.2 DATA     BIT       TR2
      00FF185DH   CODE     ---       TrtTask_Set
      00FF1F39H   CODE     ---       TxContTask_Set
*SFR* 000000B0H.1 DATA     BIT       TXD
      0000B5E0H   EDATA    ---       txPwrCtrlArray
      00FF9263H   CODE     ---       TxRtcTask_Set
      00FF921EH   CODE     ---       TxTask_Set
*SFR* 000000D0H.1 DATA     BIT       UD
*SFR* 00000096H   DATA     BYTE      USBADDR
*SFR* 00000097H   DATA     BYTE      USBDATA
*SFR* 000000D8H   DATA     BYTE      WDCON
*SFR* 000000D8H.3 DATA     BIT       WDIF
*SFR* 000000A6H   DATA     BYTE      WDTRST
*SFR* 000000B0H.6 DATA     BIT       WR
*SFR* 000000D8H.2 DATA     BIT       WTRF
*SFR* 00000092H   DATA     BYTE      WTST
*SFR* 000000D1H.1 DATA     BIT       Z_B



LINKER CODE PACKING SYMBOLS OF MODULE:  .\obj\RT569 (?C_START)


      VALUE       CLASS    TYPE      SYMBOL NAME
      ==========================================
      00FF177BH   CODE     BEGIN     ?L?COM0001
      00FF252CH   CODE     BEGIN     ?L?COM0002
      00FF252CH   CODE     END       ?L?COM0003
      00FF26A6H   CODE     BEGIN     ?L?COM0004
      00FF26A6H   CODE     END       ?L?COM0005
      00FF4FA6H   CODE     PART      ?L?COM0006
      00FF4FA6H   CODE     END       ?L?COM0007
      00FF4E12H   CODE     PART      ?L?COM0008
      00FF4E12H   CODE     END       ?L?COM0009
      00FF1DDDH   CODE     BEGIN     ?L?COM000A
      00FF24CBH   CODE     BEGIN     ?L?COM000B
      00FF24CBH   CODE     END       ?L?COM000C
      00FF466DH   CODE     PART      ?L?COM000D
      00FF4E78H   CODE     BEGIN     ?L?COM000E
      00FF3DF1H   CODE     BEGIN     ?L?COM000F
      00FF3DF1H   CODE     END       ?L?COM0010
      00FF3DF1H   CODE     END       ?L?COM0011
      00FFA663H   CODE     BEGIN     ?L?COM0012
      00FF289AH   CODE     BEGIN     ?L?COM0013
      00FFC4D0H   CODE     PART      ?L?COM0014
      00FFC4D0H   CODE     END       ?L?COM0015
      00FF5A45H   CODE     BEGIN     ?L?COM0016
      00FF5A45H   CODE     END       ?L?COM0017
      00FF591AH   CODE     PART      ?L?COM0018
      00FF591AH   CODE     END       ?L?COM0019
      00FF5FA4H   CODE     PART      ?L?COM001A
      00FFA6E0H   CODE     PART      ?L?COM001B
      00FF4AECH   CODE     BEGIN     ?L?COM001C
      00FF4149H   CODE     PART      ?L?COM001D
      00FF6FC4H   CODE     PART      ?L?COM001E
      00FF6FC4H   CODE     END       ?L?COM001F
      00FF1F21H   CODE     BEGIN     ?L?COM0020
      00FF4C70H   CODE     BEGIN     ?L?COM0021
      00FF4C70H   CODE     END       ?L?COM0022
      00FFA702H   CODE     PART      ?L?COM0023
      00FF4498H   CODE     BEGIN     ?L?COM0024
      00FF4498H   CODE     END       ?L?COM0025
      00FF7329H   CODE     BEGIN     ?L?COM0026
      00FF2E8BH   CODE     BEGIN     ?L?COM0027
      00FF59ABH   CODE     BEGIN     ?L?COM0028
L251 LINKER/LOCATER V4.66.93.0                                                        02/16/2024  15:12:23  PAGE 29


      00FF24FDH   CODE     BEGIN     ?L?COM0029
      00FF8E42H   CODE     PART      ?L?COM002A
      00FF1FB6H   CODE     BEGIN     ?L?COM002B
      00FF5FD6H   CODE     BEGIN     ?L?COM002C
      00FFA083H   CODE     BEGIN     ?L?COM002D
      00FF615AH   CODE     BEGIN     ?L?COM002E
      00FF8E65H   CODE     BEGIN     ?L?COM002F
      00FF3FFEH   CODE     BEGIN     ?L?COM0030
      00FF2392H   CODE     BEGIN     ?L?COM0031
      00FF33F8H   CODE     BEGIN     ?L?COM0032
      00FF6ABAH   CODE     BEGIN     ?L?COM0033
      00FF6ABAH   CODE     END       ?L?COM0034
      00FF8D92H   CODE     PART      ?L?COM0035
      00FF4FD4H   CODE     PART      ?L?COM0036
      00FFAD21H   CODE     PART      ?L?COM0037
      00FF1FE5H   CODE     PART      ?L?COM0038
      00FF34FDH   CODE     BEGIN     ?L?COM0039
      00FF1AD9H   CODE     BEGIN     ?L?COM003A
      00FF181BH   CODE     BEGIN     ?L?COM003B
      00FF1FAAH   CODE     PART      ?L?COM003C
      00FF4DC8H   CODE     BEGIN     ?L?COM003D
      00FFADB9H   CODE     PART      ?L?COM003E
      00FF5B03H   CODE     BEGIN     ?L?COM003F
      00FF16DDH   CODE     BEGIN     ?L?COM0040
      00FF2F4EH   CODE     BEGIN     ?L?COM0041
      00FF4C4FH   CODE     BEGIN     ?L?COM0042
      00FFB0BCH   CODE     BEGIN     ?L?COM0043
      00FF47F4H   CODE     PART      ?L?COM0044
      00FF6BC1H   CODE     BEGIN     ?L?COM0045
      00FF1FEDH   CODE     PART      ?L?COM0046
      00FF7E27H   CODE     BEGIN     ?L?COM0047
      00FF25C1H   CODE     BEGIN     ?L?COM0048
      00FF2760H   CODE     BEGIN     ?L?COM0049
      00FF300BH   CODE     BEGIN     ?L?COM004A
      00FF39BDH   CODE     BEGIN     ?L?COM004B
      00FF47B6H   CODE     BEGIN     ?L?COM004C
      00FF28F1H   CODE     BEGIN     ?L?COM004D
      00FF37E0H   CODE     PART      ?L?COM004E



SYMBOL TABLE OF MODULE:  .\obj\RT569 (?C_START)

      VALUE       REP       CLASS    TYPE      SYMBOL NAME
      ====================================================
      ---         MODULE    ---      ---       ?C_START
      00FF0000H   PUBLIC    CODE     ---       ?C?STARTUP
      00FF0000H   PUBLIC    CODE     ---       ?C_STARTUP
      000000D0H.6 SFRSYM    DATA     BIT       AC
      000000E0H   SFRSYM    DATA     BYTE      ACC
      0000009DH   SFRSYM    DATA     BYTE      ACON
      000000F0H   SFRSYM    DATA     BYTE      B
      000000CEH   SFRSYM    DATA     BYTE      CCEN
      000000C3H   SFRSYM    DATA     BYTE      CCH1
      000000C5H   SFRSYM    DATA     BYTE      CCH2
      000000C7H   SFRSYM    DATA     BYTE      CCH3
      000000C2H   SFRSYM    DATA     BYTE      CCL1
      000000C4H   SFRSYM    DATA     BYTE      CCL2
      000000C6H   SFRSYM    DATA     BYTE      CCL3
      00000090H.3 SFRSYM    DATA     BIT       CEX0
      00000090H.4 SFRSYM    DATA     BIT       CEX1
      00000090H.5 SFRSYM    DATA     BIT       CEX2
      00000090H.6 SFRSYM    DATA     BIT       CEX3
      00000090H.7 SFRSYM    DATA     BIT       CEX4
      0000008EH   SFRSYM    DATA     BYTE      CKCON
L251 LINKER/LOCATER V4.66.93.0                                                        02/16/2024  15:12:23  PAGE 30


      000000D8H.7 SFRSYM    DATA     BIT       CPUSRF
      000000C8H.0 SFRSYM    DATA     BIT       CP_RL2
      000000CBH   SFRSYM    DATA     BYTE      CRCH
      000000CAH   SFRSYM    DATA     BYTE      CRCL
      000000D0H.7 SFRSYM    DATA     BIT       CY
      000000C8H.1 SFRSYM    DATA     BIT       C_T2
      000000CFH   SFRSYM    DATA     BYTE      DEVICR
      0000008FH   SFRSYM    DATA     BYTE      DMAIR
      00000083H   SFRSYM    DATA     BYTE      DPH
      00000083H   SFRSYM    DATA     BYTE      DPH1
      00000082H   SFRSYM    DATA     BYTE      DPL
      00000082H   SFRSYM    DATA     BYTE      DPL1
      00000086H   SFRSYM    DATA     BYTE      DPS
      00000084H   SFRSYM    DATA     BYTE      DPX1
      00000084H   SFRSYM    DATA     BYTE      DPXL
      000000A8H.7 SFRSYM    DATA     BIT       EA
      00000090H.2 SFRSYM    DATA     BIT       ECI
      000000E8H   SFRSYM    DATA     BYTE      EIE
      00000091H   SFRSYM    DATA     BYTE      EIF
      000000F8H   SFRSYM    DATA     BYTE      EIP
      000000B6H   SFRSYM    DATA     BYTE      EIPH
      000000B6H   SFRSYM    DATA     BYTE      EIPH0
      000000F8H   SFRSYM    DATA     BYTE      EIPL
      000000A8H.4 SFRSYM    DATA     BIT       ES
      000000A8H.4 SFRSYM    DATA     BIT       ES0
      000000A8H.6 SFRSYM    DATA     BIT       ES1
      000000A8H.1 SFRSYM    DATA     BIT       ET0
      000000A8H.3 SFRSYM    DATA     BIT       ET1
      000000A8H.5 SFRSYM    DATA     BIT       ET2
      000000D8H.1 SFRSYM    DATA     BIT       EWT
      000000A8H.0 SFRSYM    DATA     BIT       EX0
      000000A8H.2 SFRSYM    DATA     BIT       EX1
      000000C8H.3 SFRSYM    DATA     BIT       EXEN2
      000000C8H.6 SFRSYM    DATA     BIT       EXF2
      000000D0H.5 SFRSYM    DATA     BIT       F0
      00000098H.7 SFRSYM    DATA     BIT       FE
      000000F6H   SFRSYM    DATA     BYTE      I2CM_BUF
      000000F5H   SFRSYM    DATA     BYTE      I2CM_CR
      000000F4H   SFRSYM    DATA     BYTE      I2CM_SA
      000000F7H   SFRSYM    DATA     BYTE      I2CM_TP
      000000F1H   SFRSYM    DATA     BYTE      I2CS_ADDR
      000000F3H   SFRSYM    DATA     BYTE      I2CS_BUF
      000000F2H   SFRSYM    DATA     BYTE      I2CS_CR
      000000C8H.5 SFRSYM    DATA     BIT       I2FR
      000000C8H.6 SFRSYM    DATA     BIT       I3FR
      000000A8H   SFRSYM    DATA     BYTE      IE
      00000088H.1 SFRSYM    DATA     BIT       IE0
      00000088H.3 SFRSYM    DATA     BIT       IE1
      000000B1H   SFRSYM    DATA     BYTE      IEH
      000000A8H   SFRSYM    DATA     BYTE      IEL
      000000B0H.2 SFRSYM    DATA     BIT       INT0
      000000B0H.3 SFRSYM    DATA     BIT       INT1
      000000B8H   SFRSYM    DATA     BYTE      IP
      000000B7H   SFRSYM    DATA     BYTE      IPH
      000000B7H   SFRSYM    DATA     BYTE      IPH0
      000000B8H   SFRSYM    DATA     BYTE      IPL
      000000B8H   SFRSYM    DATA     BYTE      IPL0
      00000088H.0 SFRSYM    DATA     BIT       IT0
      00000088H.2 SFRSYM    DATA     BIT       IT1
      000000EAH   SFRSYM    DATA     BYTE      MXAX
      000000D1H.5 SFRSYM    DATA     BIT       N_B
      000000D0H.2 SFRSYM    DATA     BIT       OV
      000000D0H.0 SFRSYM    DATA     BIT       P
      00000080H   SFRSYM    DATA     BYTE      P0
      00000090H   SFRSYM    DATA     BYTE      P1
L251 LINKER/LOCATER V4.66.93.0                                                        02/16/2024  15:12:23  PAGE 31


      000000A0H   SFRSYM    DATA     BYTE      P2
      000000B0H   SFRSYM    DATA     BYTE      P3
      00000087H   SFRSYM    DATA     BYTE      PCON
      000000D8H.6 SFRSYM    DATA     BIT       PORF
      000000B8H.4 SFRSYM    DATA     BIT       PS
      000000B8H.4 SFRSYM    DATA     BIT       PS0
      000000B8H.6 SFRSYM    DATA     BIT       PS1
      000000D0H   SFRSYM    DATA     BYTE      PSW
      000000D1H   SFRSYM    DATA     BYTE      PSW1
      000000B8H.1 SFRSYM    DATA     BIT       PT0
      000000B8H.3 SFRSYM    DATA     BIT       PT1
      000000B8H.5 SFRSYM    DATA     BIT       PT2
      000000B8H.0 SFRSYM    DATA     BIT       PX0
      000000B8H.2 SFRSYM    DATA     BIT       PX1
      00000098H.2 SFRSYM    DATA     BIT       RB8
      000000C0H.2 SFRSYM    DATA     BIT       RB81
      000000CBH   SFRSYM    DATA     BYTE      RCAP2H
      000000CAH   SFRSYM    DATA     BYTE      RCAP2L
      000000C8H.5 SFRSYM    DATA     BIT       RCLK
      000000B0H.7 SFRSYM    DATA     BIT       RD
      00000098H.4 SFRSYM    DATA     BIT       REN
      000000C0H.4 SFRSYM    DATA     BIT       REN1
      00000098H.0 SFRSYM    DATA     BIT       RI
      000000C0H.0 SFRSYM    DATA     BIT       RI1
      000000CBH   SFRSYM    DATA     BYTE      RLDH
      000000CAH   SFRSYM    DATA     BYTE      RLDL
      000000D0H.3 SFRSYM    DATA     BIT       RS0
      000000D0H.4 SFRSYM    DATA     BIT       RS1
      000000D4H   SFRSYM    DATA     BYTE      RTCCON
      000000D7H   SFRSYM    DATA     BYTE      RTCICR
      000000D6H   SFRSYM    DATA     BYTE      RTCREG
      000000D5H   SFRSYM    DATA     BYTE      RTCSEC
      000000D8H.0 SFRSYM    DATA     BIT       RWT
      000000B0H.0 SFRSYM    DATA     BIT       RXD
      000000A9H   SFRSYM    DATA     BYTE      SADDR
      000000B9H   SFRSYM    DATA     BYTE      SADEN
      00000099H   SFRSYM    DATA     BYTE      SBUF
      000000C1H   SFRSYM    DATA     BYTE      SBUF1
      00000098H   SFRSYM    DATA     BYTE      SCON
      000000C0H   SFRSYM    DATA     BYTE      SCON1
      00000098H.7 SFRSYM    DATA     BIT       SM0
      000000C0H.7 SFRSYM    DATA     BIT       SM01
      00000098H.6 SFRSYM    DATA     BIT       SM1
      000000C0H.6 SFRSYM    DATA     BIT       SM11
      00000098H.5 SFRSYM    DATA     BIT       SM2
      000000C0H.5 SFRSYM    DATA     BIT       SM21
      00000081H   SFRSYM    DATA     BYTE      SP
      000000ECH   SFRSYM    DATA     BYTE      SPCR
      000000EEH   SFRSYM    DATA     BYTE      SPDR
      000000BEH   SFRSYM    DATA     BYTE      SPH
      000000EDH   SFRSYM    DATA     BYTE      SPSR
      000000EFH   SFRSYM    DATA     BYTE      SSCR
      000000B0H.4 SFRSYM    DATA     BIT       T0
      000000B0H.5 SFRSYM    DATA     BIT       T1
      00000090H.0 SFRSYM    DATA     BIT       T2
      000000C8H.2 SFRSYM    DATA     BIT       T2CM
      000000C8H   SFRSYM    DATA     BYTE      T2CON
      00000090H.1 SFRSYM    DATA     BIT       T2EX
      000000C8H.0 SFRSYM    DATA     BIT       T2I0
      000000C8H.1 SFRSYM    DATA     BIT       T2I1
      000000C9H   SFRSYM    DATA     BYTE      T2IF
      000000C9H   SFRSYM    DATA     BYTE      T2MOD
      000000C8H.7 SFRSYM    DATA     BIT       T2PS
      000000C8H.3 SFRSYM    DATA     BIT       T2R0
      000000C8H.4 SFRSYM    DATA     BIT       T2R1
L251 LINKER/LOCATER V4.66.93.0                                                        02/16/2024  15:12:23  PAGE 32


      000000EBH   SFRSYM    DATA     BYTE      TA
      00000098H.3 SFRSYM    DATA     BIT       TB8
      000000C0H.3 SFRSYM    DATA     BIT       TB81
      0000009FH   SFRSYM    DATA     BYTE      TB_SFR_REG
      000000C8H.4 SFRSYM    DATA     BIT       TCLK
      00000088H   SFRSYM    DATA     BYTE      TCON
      00000088H.5 SFRSYM    DATA     BIT       TF0
      00000088H.7 SFRSYM    DATA     BIT       TF1
      000000C8H.7 SFRSYM    DATA     BIT       TF2
      0000008CH   SFRSYM    DATA     BYTE      TH0
      0000008DH   SFRSYM    DATA     BYTE      TH1
      000000CDH   SFRSYM    DATA     BYTE      TH2
      00000098H.1 SFRSYM    DATA     BIT       TI
      000000C0H.1 SFRSYM    DATA     BIT       TI1
      0000008AH   SFRSYM    DATA     BYTE      TL0
      0000008BH   SFRSYM    DATA     BYTE      TL1
      000000CCH   SFRSYM    DATA     BYTE      TL2
      00000089H   SFRSYM    DATA     BYTE      TMOD
      00000088H.4 SFRSYM    DATA     BIT       TR0
      00000088H.6 SFRSYM    DATA     BIT       TR1
      000000C8H.2 SFRSYM    DATA     BIT       TR2
      000000B0H.1 SFRSYM    DATA     BIT       TXD
      00000096H   SFRSYM    DATA     BYTE      USBADDR
      00000097H   SFRSYM    DATA     BYTE      USBDATA
      000000D8H   SFRSYM    DATA     BYTE      WDCON
      000000D8H.3 SFRSYM    DATA     BIT       WDIF
      000000A6H   SFRSYM    DATA     BYTE      WDTRST
      000000B0H.6 SFRSYM    DATA     BIT       WR
      000000D8H.2 SFRSYM    DATA     BIT       WTRF
      00000092H   SFRSYM    DATA     BYTE      WTST
      000000D1H.1 SFRSYM    DATA     BIT       Z_B
      00FF1FF8H   SYMBOL    NUMBER   ---       CFGADDR
      00FF1FFFH   SYMBOL    NUMBER   ---       CODEHIGH
      00002000H   SYMBOL    NUMBER   ---       EDATALEN
      00FF0117H   SYMBOL    CODE     ---       EDATALOOP
      0000A000H   SYMBOL    NUMBER   ---       EDATASTART
      00000001H   SYMBOL    NUMBER   ---       INTR
      00000010H   SYMBOL    NUMBER   ---       RTCACAP_B
      00000040H   SYMBOL    NUMBER   ---       RTCBSY_B
      00000040H   SYMBOL    NUMBER   ---       RTCCAP_B
      00000080H   SYMBOL    NUMBER   ---       RTCEN_B
      00000008H   SYMBOL    NUMBER   ---       RTCRLD_B
      00000020H   SYMBOL    NUMBER   ---       RTCRST_B
      00000008H   SYMBOL    NUMBER   ---       RTCSET_B
      00000001H   SYMBOL    NUMBER   ---       SRCM
      00000300H   SYMBOL    NUMBER   ---       STACKSIZE
      00FF010CH   SYMBOL    CODE     ---       STARTUP1
      00000000H   SYMBOL    NUMBER   ---       XDATALEN

      00FF0000H   BLOCK     CODE     NEAR LAB  LVL=0
      00FF0000H   LINE      CODE     ---       #86
      ---         BLOCKEND  ---      ---       LVL=0

      00FF010CH   BLOCK     CODE     NEAR LAB  LVL=0
      00FF010CH   LINE      CODE     ---       #92
      00FF010FH   LINE      CODE     ---       #95
      00FF0112H   LINE      CODE     ---       #96
      00FF0116H   LINE      CODE     ---       #97
      00FF0117H   LINE      CODE     ---       #99
      00FF0118H   LINE      CODE     ---       #100
      00FF0119H   LINE      CODE     ---       #101
      00FF011BH   LINE      CODE     ---       #102
      00FF011DH   LINE      CODE     ---       #115
      00FF011FH   LINE      CODE     ---       #116
      ---         BLOCKEND  ---      ---       LVL=0
L251 LINKER/LOCATER V4.66.93.0                                                        02/16/2024  15:12:23  PAGE 33



      00FF014CH   BLOCK     CODE     NEAR LAB  LVL=0
      00FF014CH   LINE      CODE     ---       #121
      ---         BLOCKEND  ---      ---       LVL=0

      ---         MODULE    ---      ---       main
      00FF1369H   PUBLIC    CODE     ---       main

      00FF1369H   BLOCK     CODE     ---       LVL=0
      00FF1369H   LINE      ---      ---       #24
      00FF1369H   LINE      ---      ---       #26
      00FF136BH   LINE      ---      ---       #27
      00FF136BH   LINE      ---      ---       #29
      00FF136EH   LINE      ---      ---       #30
      ---         BLOCKEND  ---      ---       LVL=0

      ---         MODULE    ---      ---       rf_task_ctrl
      00FF1822H   PUBLIC    CODE     ---       RF_Task_En
      00FF146AH   PUBLIC    CODE     ---       RF_Task_AllStop
      00FF1907H   PUBLIC    CODE     ---       RF_Task_Set

      00FF181BH   BLOCK     CODE     ---       LVL=0
      00FF1822H   LINE      ---      ---       #36
      00FF181BH   SYMBOL    CODE     NEAR LAB  ?L?COM003B
      R11         REGSYM    ---      BYTE      enTask
      R10         REGSYM    ---      BYTE      mode
      00FF1824H   BLOCK     CODE     NEAR LAB  LVL=1
      00FF1824H   LINE      ---      ---       #44
      00FF1838H   LINE      ---      ---       #50
      00FF1841H   LINE      ---      ---       #51
      00FF184BH   LINE      ---      ---       #56
      00FF1850H   LINE      ---      ---       #61
      00FF185CH   LINE      ---      ---       #62
      REG=4       REGSYM    ---      ---       pRegTaskCtrlByte
      ---         BLOCKEND  CODE     ---       LVL=1
      ---         BLOCKEND  CODE     ---       LVL=0

      00FF146AH   BLOCK     CODE     ---       LVL=0
      00FF146AH   LINE      ---      ---       #73
      00FF146AH   LINE      ---      ---       #75
      00FF1476H   LINE      ---      ---       #76
      00FF147BH   LINE      ---      ---       #83
      00FF1487H   LINE      ---      ---       #84
      00FF1493H   LINE      ---      ---       #86
      00FF149FH   LINE      ---      ---       #87
      00FF14ABH   LINE      ---      ---       #89
      ---         BLOCKEND  ---      ---       LVL=0

      00FF1907H   BLOCK     CODE     ---       LVL=0
      00FF1907H   LINE      ---      ---       #151
      REG=1       REGSYM    ---      ---       pTaskCtrl
      R5          REGSYM    ---      BYTE      taskNum
      00FF190BH   BLOCK     CODE     NEAR LAB  LVL=1
      00FF190BH   LINE      ---      ---       #159
      00FF1915H   LINE      ---      ---       #160
      00FF1918H   LINE      ---      ---       #161
      00FF1918H   LINE      ---      ---       #195
      00FF1921H   LINE      ---      ---       #211
      00FF1930H   LINE      ---      ---       #212
      00FF1941H   LINE      ---      ---       #213
      00FF1949H   LINE      ---      ---       #214
      00FF1953H   LINE      ---      ---       #216
      00FF195FH   LINE      ---      ---       #217
      00FF196BH   LINE      ---      ---       #218
      00FF1977H   LINE      ---      ---       #219
L251 LINKER/LOCATER V4.66.93.0                                                        02/16/2024  15:12:23  PAGE 34


      00FF1983H   LINE      ---      ---       #221
      00FF198FH   LINE      ---      ---       #222
      00FF199BH   LINE      ---      ---       #223
      00FF19A7H   LINE      ---      ---       #224
      00FF19B3H   LINE      ---      ---       #227
      REG=0       REGSYM    ---      ---       pRegTaskCtrlByte
      ---         BLOCKEND  CODE     ---       LVL=1
      00FF19B4H   LINE      ---      ---       #229
      00FF19B4H   LINE      CODE     ---       #229

      ---         MODULE    ---      ---       intr_rf
      00FF1FFDH   PUBLIC    CODE     ---       INTR_Clear
      00FF2026H   PUBLIC    CODE     ---       INTR_ClearRtcGrp
      00FF17E0H   PUBLIC    CODE     ---       INTR_Enable
      00FF2037H   PUBLIC    CODE     ---       INTR_Rf_Hdlr
      00FF13D5H   PUBLIC    CODE     ---       INTR_Rf_Register
      0000B405H   PUBLIC    EDATA    ---       gIntrRegMask
      0000B40DH   PUBLIC    EDATA    ---       gIntrRfHdlrTable
      000000A8H.0 SFRSYM    DATA     BIT       EX0
      000000A8H.7 SFRSYM    DATA     BIT       EA
      00FF20CDH   SYMBOL    CODE     ---       INTR_Rf_NullHdlr

      00FF20CDH   BLOCK     CODE     ---       LVL=0
      00FF20CDH   LINE      ---      ---       #40
      00FF20CDH   LINE      ---      ---       #41
      00FF20CDH   LINE      ---      ---       #42
      00FF20CDH   LINE      ---      ---       #43
      ---         BLOCKEND  ---      ---       LVL=0

      00FF1FFDH   BLOCK     CODE     ---       LVL=0
      00FF1FFDH   LINE      ---      ---       #49
      00FF1FFDH   LINE      ---      ---       #51
      00FF1FFFH   LINE      ---      ---       #52
      00FF2008H   LINE      ---      ---       #54
      00FF2017H   LINE      ---      ---       #55
      00FF2025H   LINE      ---      ---       #56
      ---         BLOCKEND  ---      ---       LVL=0

      00FF2026H   BLOCK     CODE     ---       LVL=0
      00FF2026H   LINE      ---      ---       #59
      00FF2026H   LINE      ---      ---       #62
      00FF2036H   LINE      ---      ---       #63
      ---         BLOCKEND  ---      ---       LVL=0

      00FF17E0H   BLOCK     CODE     ---       LVL=0
      00FF17E0H   LINE      ---      ---       #66
      00FF17E0H   LINE      ---      ---       #68
      00FF17E2H   LINE      ---      ---       #70
      00FF17E4H   LINE      ---      ---       #71
      ---         BLOCKEND  ---      ---       LVL=0

      00FF2037H   BLOCK     CODE     ---       LVL=0
      00FF2037H   LINE      ---      ---       #82
      00FF2039H   LINE      ---      ---       #83
      R6          REGSYM    ---      BYTE      intId
      R10         REGSYM    ---      BYTE      intSts
      ---         BLOCKEND  ---      ---       LVL=0

      00FF13D5H   BLOCK     CODE     ---       LVL=0
      00FF13D5H   LINE      ---      ---       #98
      00FF13D9H   LINE      ---      ---       #101
      00FF13E2H   LINE      ---      ---       #106
      00FF13E5H   LINE      ---      ---       #107
      00FF13E5H   LINE      ---      ---       #109
      00FF13EDH   LINE      ---      ---       #110
L251 LINKER/LOCATER V4.66.93.0                                                        02/16/2024  15:12:23  PAGE 35


      00FF1420H   LINE      ---      ---       #112
      00FF1421H   LINE      ---      ---       #113
      R1          REGSYM    ---      BYTE      intId
      WR30        REGSYM    ---      WORD      enMask
      REG=2       REGSYM    ---      ---       intHdlr
      ---         BLOCKEND  ---      ---       LVL=0

      ---         MODULE    ---      ---       sys_init
      00FF1370H   PUBLIC    CODE     ---       SYS_Init
      00FF20CEH   PUBLIC    CODE     ---       SYS_InfoRegInit

      00FF20CEH   BLOCK     CODE     ---       LVL=0
      00FF20CEH   LINE      ---      ---       #101
      00FF20CEH   LINE      ---      ---       #104
      00FF20DAH   LINE      ---      ---       #107
      00FF20E5H   LINE      ---      ---       #108
      00FF20EEH   LINE      ---      ---       #111
      00FF20F7H   LINE      ---      ---       #114
      00FF2100H   LINE      ---      ---       #118
      00FF2109H   LINE      ---      ---       #122
      ---         BLOCKEND  ---      ---       LVL=0

      00FF1370H   BLOCK     CODE     ---       LVL=0
      00FF1370H   LINE      ---      ---       #132
      00FF1370H   LINE      ---      ---       #135
      00FF1373H   LINE      ---      ---       #154
      00FF1376H   LINE      ---      ---       #158
      00FF1379H   LINE      ---      ---       #165
      00FF138FH   LINE      ---      ---       #169
      00FF1394H   LINE      ---      ---       #173
      00FF1396H   LINE      ---      ---       #174
      00FF1399H   LINE      ---      ---       #193
      00FF139BH   LINE      ---      ---       #197
      00FF139DH   LINE      ---      ---       #200
      00FF139FH   LINE      ---      ---       #204
      00FF13A8H   LINE      ---      ---       #211
      ---         BLOCKEND  ---      ---       LVL=0

      ---         MODULE    ---      ---       sys_task
      00FF210AH   PUBLIC    CODE     ---       SYS_Task_Block
      00FF24D5H   PUBLIC    CODE     ---       SYS_Task_UnBlock
      00FF2822H   PUBLIC    CODE     ---       SYS_Task_Register
      00FF2851H   PUBLIC    CODE     ---       SYS_Task_Run
      0000B56EH   PUBLIC    EDATA    BYTE      gTaskMask
      0000B56FH   PUBLIC    EDATA    ---       gTaskTable
      00FF287FH   SYMBOL    CODE     ---       SYS_Null_Task

      00FF287FH   BLOCK     CODE     ---       LVL=0
      00FF287FH   LINE      ---      ---       #36
      00FF287FH   LINE      ---      ---       #37
      00FF287FH   LINE      ---      ---       #38
      ---         BLOCKEND  ---      ---       LVL=0

      00FF210AH   BLOCK     CODE     ---       LVL=0
      00FF210AH   LINE      ---      ---       #52
      00FF210EH   LINE      ---      ---       #55
      00FF2117H   LINE      ---      ---       #56
      00FF211AH   LINE      ---      ---       #57
      00FF211AH   LINE      ---      ---       #59
      00FF2132H   LINE      ---      ---       #61
      R11         REGSYM    ---      BYTE      hdlTask
      R15         REGSYM    ---      BYTE      blkTask
      ---         BLOCKEND  ---      ---       LVL=0

      00FF24CBH   BLOCK     CODE     ---       LVL=0
L251 LINKER/LOCATER V4.66.93.0                                                        02/16/2024  15:12:23  PAGE 36


      00FF24D5H   LINE      ---      ---       #71
      00FF24D9H   LINE      ---      ---       #74
      00FF24E2H   LINE      ---      ---       #75
      00FF24E5H   LINE      ---      ---       #76
      00FF24E5H   LINE      ---      ---       #78
      00FF24FAH   LINE      ---      ---       #80
      00FF24CBH   SYMBOL    CODE     NEAR LAB  ?L?COM000B
      R11         REGSYM    ---      BYTE      hdlTask
      R15         REGSYM    ---      BYTE      blkTask
      ---         BLOCKEND  ---      ---       LVL=0

      00FF2822H   BLOCK     CODE     ---       LVL=0
      00FF2822H   LINE      ---      ---       #91
      00FF2826H   LINE      ---      ---       #92
      00FF282FH   LINE      ---      ---       #93
      00FF2832H   LINE      ---      ---       #94
      00FF2832H   LINE      ---      ---       #95
      00FF283AH   LINE      ---      ---       #96
      00FF284FH   LINE      ---      ---       #97
      00FF2850H   LINE      ---      ---       #98
      R5          REGSYM    ---      BYTE      taskId
      REG=4       REGSYM    ---      ---       taskFunc
      ---         BLOCKEND  ---      ---       LVL=0

      00FF2851H   BLOCK     CODE     ---       LVL=0
      00FF2851H   LINE      ---      ---       #107
      00FF2851H   BLOCK     CODE     NEAR LAB  LVL=1
      00FF2851H   LINE      ---      ---       #112
      00FF2851H   LINE      ---      ---       #113
      00FF2853H   LINE      ---      ---       #114
      00FF2853H   LINE      ---      ---       #115
      00FF286CH   LINE      ---      ---       #116
      00FF2876H   LINE      ---      ---       #117
      00FF2876H   LINE      ---      ---       #118
      00FF2878H   LINE      ---      ---       #119
      00FF287DH   LINE      ---      ---       #120
      R15         REGSYM    ---      BYTE      taskId
      ---         BLOCKEND  CODE     ---       LVL=1
      ---         BLOCKEND  CODE     ---       LVL=0

      ---         MODULE    ---      ---       isr_hdlr
      00FF2046H   PUBLIC    CODE     ---       ISR_0_Hdlr
      00FF2880H   PUBLIC    CODE     ---       ISR_CLEAR_MAC_STATUS
      00FF2FFBH   PUBLIC    CODE     ---       ISR_GET_MAC_STATUS
      00FF300AH   PUBLIC    CODE     ---       ISR_1_Hdlr
      000000A8H.7 SFRSYM    DATA     BIT       EA

      00FF2046H   BLOCK     CODE     ---       LVL=0
      00FF2046H   LINE      ---      ---       #18
      00FF205BH   BLOCK     CODE     NEAR LAB  LVL=1
      00FF205BH   LINE      ---      ---       #27
      00FF205DH   LINE      ---      ---       #30
      00FF206AH   LINE      ---      ---       #31
      00FF2071H   LINE      ---      ---       #34
      00FF2077H   LINE      ---      ---       #35
      00FF207DH   LINE      ---      ---       #36
      00FF207DH   LINE      ---      ---       #39
      00FF2082H   LINE      ---      ---       #41
      00FF2088H   LINE      ---      ---       #42
      00FF2088H   LINE      ---      ---       #46
      00FF208FH   LINE      ---      ---       #47
      00FF2092H   LINE      ---      ---       #48
      00FF2092H   LINE      ---      ---       #51
      00FF2099H   LINE      ---      ---       #52
      00FF209DH   LINE      ---      ---       #53
L251 LINKER/LOCATER V4.66.93.0                                                        02/16/2024  15:12:23  PAGE 37


      00FF209DH   LINE      ---      ---       #61
      00FF20AAH   LINE      ---      ---       #62
      00FF20B8H   LINE      ---      ---       #65
      R14         REGSYM    ---      BYTE      bmuStatus
      R15         REGSYM    ---      BYTE      macStatus
      ---         BLOCKEND  CODE     ---       LVL=1
      00FF20BAH   LINE      ---      ---       #67
      00FF20BAH   LINE      CODE     ---       #67

      00FF2880H   BLOCK     CODE     ---       LVL=0
      00FF2880H   LINE      ---      ---       #69
      00FF2882H   LINE      ---      ---       #71
      00FF2890H   LINE      ---      ---       #72
      R0          REGSYM    ---      BYTE      status
      ---         BLOCKEND  ---      ---       LVL=0

      00FF2FFBH   BLOCK     CODE     ---       LVL=0
      00FF2FFBH   LINE      ---      ---       #74
      00FF2FFBH   LINE      ---      ---       #76
      00FF3009H   LINE      ---      ---       #77
      ---         BLOCKEND  ---      ---       LVL=0

      00FF300AH   BLOCK     CODE     ---       LVL=0
      00FF300AH   LINE      ---      ---       #81
      00FF300AH   LINE      ---      ---       #96
      ---         BLOCKEND  ---      ---       LVL=0

      ---         MODULE    ---      ---       sys_ctrl
      00FF16E2H   PUBLIC    CODE     ---       SYS_TRAP
      00FF300FH   PUBLIC    CODE     ---       SYS_isClkAPassOverClkB
      00FF383DH   PUBLIC    CODE     ---       SYS_Rand
      00FF13A9H   PUBLIC    CODE     ---       SYS_IdleTaskInit
      00FF38D4H   PUBLIC    CODE     ---       SYS_TimerInit
      00FF38E5H   PUBLIC    CODE     ---       SYS_Sleep
      00FF483BH   PUBLIC    CODE     ---       SYS_EnterSleepGuard
      00FF395AH   PUBLIC    CODE     ---       SYS_EnterSleepCheck
      00FF39B8H   PUBLIC    CODE     ---       SYS_SleepMinTimeGet
      00FF4851H   PUBLIC    CODE     ---       SYS_Idle_Task
      00FF13C9H   PUBLIC    CODE     ---       SYS_IdleTaskIntInit
      0000B550H   PUBLIC    EDATA    DWORD     gLastWakeTick
      0000B554H   PUBLIC    EDATA    ---       gSysEntry_Sleep
      000000A8H.1 SFRSYM    DATA     BIT       ET0
      000000A8H.7 SFRSYM    DATA     BIT       EA
      00000088H.4 SFRSYM    DATA     BIT       TR0
      0000008EH   SFRSYM    DATA     BYTE      CKCON
      0000008CH   SFRSYM    DATA     BYTE      TH0
      0000008AH   SFRSYM    DATA     BYTE      TL0
      00000089H   SFRSYM    DATA     BYTE      TMOD
      00000087H   SFRSYM    DATA     BYTE      PCON
      000000BEH   SFRSYM    DATA     BYTE      SPH
      00000081H   SFRSYM    DATA     BYTE      SP
      00000080H   SFRSYM    DATA     BYTE      P0

      00FF483BH   BLOCK     CODE     ---       LVL=0
      00FF483BH   LINE      ---      ---       #66
      00FF483BH   LINE      ---      ---       #67
      ---         BLOCKEND  ---      ---       LVL=0

      00FF395AH   BLOCK     CODE     ---       LVL=0
      00FF395AH   LINE      ---      ---       #70
      00FF395CH   BLOCK     CODE     NEAR LAB  LVL=1
      00FF395CH   LINE      ---      ---       #72
      00FF395EH   LINE      ---      ---       #75
      00FF396CH   LINE      ---      ---       #76
      00FF396FH   LINE      ---      ---       #77
L251 LINKER/LOCATER V4.66.93.0                                                        02/16/2024  15:12:23  PAGE 38


      00FF396FH   LINE      ---      ---       #85
      00FF3974H   LINE      ---      ---       #86
      00FF3977H   LINE      ---      ---       #87
      00FF3977H   LINE      ---      ---       #90
      00FF397CH   LINE      ---      ---       #91
      00FF397FH   LINE      ---      ---       #92
      00FF397FH   LINE      ---      ---       #94
      R15         REGSYM    ---      BYTE      check
      ---         BLOCKEND  CODE     ---       LVL=1
      00FF3988H   LINE      ---      ---       #95
      00FF3988H   LINE      CODE     ---       #95

      00FF39B8H   BLOCK     CODE     ---       LVL=0
      00FF39B8H   LINE      ---      ---       #105
      00FF39B8H   LINE      ---      ---       #117
      00FF39BCH   LINE      ---      ---       #119
      ---         BLOCKEND  ---      ---       LVL=0

      00FF38E5H   BLOCK     CODE     ---       LVL=0
      00FF38E5H   LINE      ---      ---       #129
      00FF38E5H   LINE      ---      ---       #131
      00FF38F2H   LINE      ---      ---       #136
      00FF38F4H   LINE      ---      ---       #137
      00FF38F8H   LINE      ---      ---       #139
      00FF38FBH   LINE      ---      ---       #141
      00FF3906H   LINE      ---      ---       #142
      00FF3906H   LINE      ---      ---       #143
      00FF3908H   LINE      ---      ---       #144
      00FF390BH   LINE      ---      ---       #146
      00FF3912H   LINE      ---      ---       #148
      00FF3915H   LINE      ---      ---       #149
      00FF3924H   LINE      ---      ---       #150
      00FF3926H   LINE      ---      ---       #154
      00FF394FH   LINE      ---      ---       #155
      00FF394FH   LINE      ---      ---       #156
      00FF394FH   LINE      ---      ---       #158
      00FF3956H   LINE      ---      ---       #159
      00FF3957H   LINE      ---      ---       #161
      00FF3959H   LINE      ---      ---       #162
      ---         BLOCKEND  ---      ---       LVL=0

      00FF4851H   BLOCK     CODE     ---       LVL=0
      00FF4851H   LINE      ---      ---       #173
      00FF4851H   LINE      ---      ---       #176
      00FF4854H   LINE      ---      ---       #188
      00FF4857H   LINE      ---      ---       #192
      00FF485DH   LINE      ---      ---       #195
      ---         BLOCKEND  ---      ---       LVL=0

      00FF13C9H   BLOCK     CODE     ---       LVL=0
      00FF13C9H   LINE      ---      ---       #213
      00FF13C9H   LINE      ---      ---       #217
      ---         BLOCKEND  ---      ---       LVL=0

      00FF13A9H   BLOCK     CODE     ---       LVL=0
      00FF13A9H   LINE      ---      ---       #229
      00FF13A9H   LINE      ---      ---       #231
      00FF13B2H   LINE      ---      ---       #232
      00FF13B4H   LINE      ---      ---       #236
      ---         BLOCKEND  ---      ---       LVL=0

      00FF38D4H   BLOCK     CODE     ---       LVL=0
      00FF38D4H   LINE      ---      ---       #250
      00FF38D4H   LINE      ---      ---       #265
      00FF38D7H   LINE      ---      ---       #266
L251 LINKER/LOCATER V4.66.93.0                                                        02/16/2024  15:12:23  PAGE 39


      00FF38DAH   LINE      ---      ---       #267
      00FF38DDH   LINE      ---      ---       #268
      00FF38E0H   LINE      ---      ---       #269
      00FF38E2H   LINE      ---      ---       #270
      00FF38E4H   LINE      ---      ---       #275
      ---         BLOCKEND  ---      ---       LVL=0

      00FF300BH   BLOCK     CODE     ---       LVL=0
      00FF300FH   LINE      ---      ---       #285
      00FF3011H   LINE      ---      ---       #287
      00FF301DH   LINE      ---      ---       #288
      00FF300BH   SYMBOL    CODE     NEAR LAB  ?L?COM004A
      DR4         REGSYM    ---      DWORD     clkA
      DR8         REGSYM    ---      DWORD     clkB
      ---         BLOCKEND  ---      ---       LVL=0

      00FF16DDH   BLOCK     CODE     ---       LVL=0
      00FF16E2H   LINE      ---      ---       #323
      00FF16E2H   LINE      ---      ---       #324
      00FF16DDH   SYMBOL    CODE     NEAR LAB  ?L?COM0040
      00FF16E2H   BLOCK     CODE     NEAR LAB  LVL=1
      00FF16E2H   LINE      ---      ---       #328
      00FF16F0H   LINE      ---      ---       #329
      00FF16F4H   LINE      ---      ---       #331
      00FF1702H   LINE      ---      ---       #333
      00FF170BH   LINE      ---      ---       #335
      00FF170BH   LINE      ---      ---       #337
      00FF170EH   LINE      ---      ---       #338
      00FF1711H   LINE      ---      ---       #339
      00FF1716H   LINE      ---      ---       #340
      00FF1719H   LINE      ---      ---       #341
      00FF171FH   LINE      ---      ---       #342
      00FF1722H   LINE      ---      ---       #343
      REG=3       REGSYM    ---      ---       stackPtr
      REG=1       REGSYM    ---      ---       assertReportPtr
      ---         BLOCKEND  CODE     ---       LVL=1
      ---         BLOCKEND  CODE     ---       LVL=0

      00FF383DH   BLOCK     CODE     ---       LVL=0
      00FF383DH   LINE      ---      ---       #348
      00FF3845H   LINE      ---      ---       #349
      REG=1       REGSYM    ---      ---       seed
      REG=7       REGSYM    ---      ---       output
      R13         REGSYM    ---      BYTE      outputLen
      00FF3845H   BLOCK     CODE     NEAR LAB  LVL=1
      00FF3845H   LINE      ---      ---       #354
      00FF384AH   LINE      ---      ---       #355
      00FF384DH   LINE      ---      ---       #361
      00FF3860H   LINE      ---      ---       #362
      00FF386FH   LINE      ---      ---       #365
      00FF3877H   LINE      ---      ---       #367
      00FF387BH   LINE      ---      ---       #378
      00FF3896H   LINE      ---      ---       #381
      00FF38A0H   LINE      ---      ---       #382
      00FF38B4H   LINE      ---      ---       #383
      00FF38B6H   LINE      ---      ---       #385
      00FF38CBH   LINE      ---      ---       #386
      00FF38CBH   LINE      ---      ---       #387
      0000B556H   SYMBOL    EDATA    DWORD     seed2
      R12         REGSYM    ---      BYTE      i
      0000B55AH   SYMBOL    EDATA    ---       pSeed
      ---         BLOCKEND  CODE     ---       LVL=1
      00FF38D1H   LINE      ---      ---       #388
      00FF38D1H   LINE      CODE     ---       #388

L251 LINKER/LOCATER V4.66.93.0                                                        02/16/2024  15:12:23  PAGE 40


      ---         MODULE    ---      ---       SYS_MEM
      00FF014FH   PUBLIC    CODE     ---       ASM_MEMSET
      000000D0H.6 SFRSYM    DATA     BIT       AC
      000000D8H.0 SFRSYM    DATA     BIT       CCF0
      000000D8H.1 SFRSYM    DATA     BIT       CCF1
      000000D8H.2 SFRSYM    DATA     BIT       CCF2
      000000D8H.3 SFRSYM    DATA     BIT       CCF3
      000000D8H.4 SFRSYM    DATA     BIT       CCF4
      00000090H.3 SFRSYM    DATA     BIT       CEX0
      00000090H.4 SFRSYM    DATA     BIT       CEX1
      00000090H.5 SFRSYM    DATA     BIT       CEX2
      00000090H.6 SFRSYM    DATA     BIT       CEX3
      00000090H.7 SFRSYM    DATA     BIT       CEX4
      000000D8H.7 SFRSYM    DATA     BIT       CF
      000000C8H.0 SFRSYM    DATA     BIT       CP_RL2
      000000D8H.6 SFRSYM    DATA     BIT       CR
      000000D0H.7 SFRSYM    DATA     BIT       CY
      000000C8H.1 SFRSYM    DATA     BIT       C_T2
      000000A8H.7 SFRSYM    DATA     BIT       EA
      000000A8H.6 SFRSYM    DATA     BIT       EC
      00000090H.2 SFRSYM    DATA     BIT       ECI
      000000A8H.4 SFRSYM    DATA     BIT       ES
      000000A8H.1 SFRSYM    DATA     BIT       ET0
      000000A8H.3 SFRSYM    DATA     BIT       ET1
      000000A8H.5 SFRSYM    DATA     BIT       ET2
      000000A8H.0 SFRSYM    DATA     BIT       EX0
      000000A8H.2 SFRSYM    DATA     BIT       EX1
      000000C8H.3 SFRSYM    DATA     BIT       EXEN2
      000000C8H.6 SFRSYM    DATA     BIT       EXF2
      000000D0H.5 SFRSYM    DATA     BIT       F0
      00000098H.7 SFRSYM    DATA     BIT       FE
      00000088H.1 SFRSYM    DATA     BIT       IE0_
      00000088H.3 SFRSYM    DATA     BIT       IE1_
      000000B0H.2 SFRSYM    DATA     BIT       INT0
      000000B0H.3 SFRSYM    DATA     BIT       INT1
      00000088H.0 SFRSYM    DATA     BIT       IT0
      00000088H.2 SFRSYM    DATA     BIT       IT1
      000000D0H.2 SFRSYM    DATA     BIT       OV
      000000D0H.0 SFRSYM    DATA     BIT       P
      000000B8H.6 SFRSYM    DATA     BIT       PPC
      000000B8H.4 SFRSYM    DATA     BIT       PS
      000000B8H.1 SFRSYM    DATA     BIT       PT0
      000000B8H.3 SFRSYM    DATA     BIT       PT1
      000000B8H.5 SFRSYM    DATA     BIT       PT2
      000000B8H.0 SFRSYM    DATA     BIT       PX0
      000000B8H.2 SFRSYM    DATA     BIT       PX1
      00000098H.2 SFRSYM    DATA     BIT       RB8
      000000C8H.5 SFRSYM    DATA     BIT       RCLK
      000000B0H.7 SFRSYM    DATA     BIT       RD
      00000098H.4 SFRSYM    DATA     BIT       REN
      00000098H.0 SFRSYM    DATA     BIT       RI
      000000D0H.3 SFRSYM    DATA     BIT       RS0
      000000D0H.4 SFRSYM    DATA     BIT       RS1
      000000B0H.0 SFRSYM    DATA     BIT       RXD
      00000098H.7 SFRSYM    DATA     BIT       SM0
      00000098H.6 SFRSYM    DATA     BIT       SM1
      00000098H.5 SFRSYM    DATA     BIT       SM2
      000000B0H.4 SFRSYM    DATA     BIT       T0
      000000B0H.5 SFRSYM    DATA     BIT       T1
      00000090H.0 SFRSYM    DATA     BIT       T2
      00000090H.1 SFRSYM    DATA     BIT       T2EX
      00000098H.3 SFRSYM    DATA     BIT       TB8
      000000C8H.4 SFRSYM    DATA     BIT       TCLK
      00000088H.5 SFRSYM    DATA     BIT       TF0
      00000088H.7 SFRSYM    DATA     BIT       TF1
L251 LINKER/LOCATER V4.66.93.0                                                        02/16/2024  15:12:23  PAGE 41


      000000C8H.7 SFRSYM    DATA     BIT       TF2
      00000098H.1 SFRSYM    DATA     BIT       TI
      00000088H.4 SFRSYM    DATA     BIT       TR0
      00000088H.6 SFRSYM    DATA     BIT       TR1
      000000C8H.2 SFRSYM    DATA     BIT       TR2
      000000B0H.1 SFRSYM    DATA     BIT       TXD
      000000D0H.1 SFRSYM    DATA     BIT       UD
      000000B0H.6 SFRSYM    DATA     BIT       WR
      000000E0H   SYMBOL    NUMBER   ---       ACC
      00FF0163H   SYMBOL    CODE     ---       ASM_MEMSET?0
      00FF016CH   SYMBOL    CODE     ---       ASM_MEMSET?1
      00FF0172H   SYMBOL    CODE     ---       ASM_MEMSET?2
      00FF018CH   SYMBOL    CODE     ---       ASM_MEMSET?DEAD?0
      00FF018BH   SYMBOL    CODE     ---       ASM_MEMSET?DONE?
      000000F0H   SYMBOL    NUMBER   ---       B
      000000FAH   SYMBOL    NUMBER   ---       CCAP0H
      000000EAH   SYMBOL    NUMBER   ---       CCAP0L
      000000FBH   SYMBOL    NUMBER   ---       CCAP1H
      000000EBH   SYMBOL    NUMBER   ---       CCAP1L
      000000FCH   SYMBOL    NUMBER   ---       CCAP2H
      000000ECH   SYMBOL    NUMBER   ---       CCAP2L
      000000FDH   SYMBOL    NUMBER   ---       CCAP3H
      000000EDH   SYMBOL    NUMBER   ---       CCAP3L
      000000FEH   SYMBOL    NUMBER   ---       CCAP4H
      000000EEH   SYMBOL    NUMBER   ---       CCAP4L
      000000DAH   SYMBOL    NUMBER   ---       CCAPM0
      000000DBH   SYMBOL    NUMBER   ---       CCAPM1
      000000DCH   SYMBOL    NUMBER   ---       CCAPM2
      000000DDH   SYMBOL    NUMBER   ---       CCAPM3
      000000DEH   SYMBOL    NUMBER   ---       CCAPM4
      000000D8H   SYMBOL    NUMBER   ---       CCON
      000000F9H   SYMBOL    NUMBER   ---       CH
      000000E9H   SYMBOL    NUMBER   ---       CL
      000000D9H   SYMBOL    NUMBER   ---       CMOD
      00000083H   SYMBOL    NUMBER   ---       DPH
      00000082H   SYMBOL    NUMBER   ---       DPL
      00000084H   SYMBOL    NUMBER   ---       DPXL
      000000A8H   SYMBOL    NUMBER   ---       IE0
      000000B7H   SYMBOL    NUMBER   ---       IPH0
      000000B8H   SYMBOL    NUMBER   ---       IPL0
      00000080H   SYMBOL    NUMBER   ---       P0
      00000090H   SYMBOL    NUMBER   ---       P1
      000000A0H   SYMBOL    NUMBER   ---       P2
      000000B0H   SYMBOL    NUMBER   ---       P3
      00000087H   SYMBOL    NUMBER   ---       PCON
      000000D0H   SYMBOL    NUMBER   ---       PSW
      000000D1H   SYMBOL    NUMBER   ---       PSW1
      000000CBH   SYMBOL    NUMBER   ---       RCAP2H
      000000CAH   SYMBOL    NUMBER   ---       RCAP2L
      000000A9H   SYMBOL    NUMBER   ---       SADDR
      000000B9H   SYMBOL    NUMBER   ---       SADEN
      00000099H   SYMBOL    NUMBER   ---       SBUF
      00000098H   SYMBOL    NUMBER   ---       SCON
      00000081H   SYMBOL    NUMBER   ---       SP
      000000BEH   SYMBOL    NUMBER   ---       SPH
      000000C8H   SYMBOL    NUMBER   ---       T2CON
      000000C9H   SYMBOL    NUMBER   ---       T2MOD
      00000088H   SYMBOL    NUMBER   ---       TCON
      0000008CH   SYMBOL    NUMBER   ---       TH0
      0000008DH   SYMBOL    NUMBER   ---       TH1
      000000CDH   SYMBOL    NUMBER   ---       TH2
      0000008AH   SYMBOL    NUMBER   ---       TL0
      0000008BH   SYMBOL    NUMBER   ---       TL1
      000000CCH   SYMBOL    NUMBER   ---       TL2
      00000089H   SYMBOL    NUMBER   ---       TMOD
L251 LINKER/LOCATER V4.66.93.0                                                        02/16/2024  15:12:23  PAGE 42


      000000A7H   SYMBOL    NUMBER   ---       WCON
      000000A6H   SYMBOL    NUMBER   ---       WDTRST

      00FF014FH   BLOCK     CODE     NEAR LAB  LVL=0
      00FF014FH   LINE      CODE     ---       #22
      00FF0151H   LINE      CODE     ---       #23
      00FF0153H   LINE      CODE     ---       #24
      00FF0155H   LINE      CODE     ---       #25
      00FF0157H   LINE      CODE     ---       #26
      00FF015BH   LINE      CODE     ---       #27
      00FF015DH   LINE      CODE     ---       #28
      00FF015FH   LINE      CODE     ---       #29
      00FF0161H   LINE      CODE     ---       #30
      00FF0163H   LINE      CODE     ---       #32
      00FF0166H   LINE      CODE     ---       #33
      00FF0168H   LINE      CODE     ---       #34
      00FF016AH   LINE      CODE     ---       #35
      00FF016CH   LINE      CODE     ---       #37
      00FF016EH   LINE      CODE     ---       #38
      00FF0170H   LINE      CODE     ---       #39
      00FF0172H   LINE      CODE     ---       #41
      00FF0175H   LINE      CODE     ---       #42
      00FF0179H   LINE      CODE     ---       #43
      00FF017DH   LINE      CODE     ---       #44
      00FF0181H   LINE      CODE     ---       #45
      00FF0185H   LINE      CODE     ---       #46
      00FF0189H   LINE      CODE     ---       #47
      00FF018BH   LINE      CODE     ---       #49
      00FF018CH   LINE      CODE     ---       #52
      00FF018EH   LINE      CODE     ---       #53
      ---         BLOCKEND  ---      ---       LVL=0

      ---         MODULE    ---      ---       SYS_MEM2
      00FF00ADH   PUBLIC    CODE     ---       ASM_MEMCPY
      000000D0H.6 SFRSYM    DATA     BIT       AC
      000000D8H.0 SFRSYM    DATA     BIT       CCF0
      000000D8H.1 SFRSYM    DATA     BIT       CCF1
      000000D8H.2 SFRSYM    DATA     BIT       CCF2
      000000D8H.3 SFRSYM    DATA     BIT       CCF3
      000000D8H.4 SFRSYM    DATA     BIT       CCF4
      00000090H.3 SFRSYM    DATA     BIT       CEX0
      00000090H.4 SFRSYM    DATA     BIT       CEX1
      00000090H.5 SFRSYM    DATA     BIT       CEX2
      00000090H.6 SFRSYM    DATA     BIT       CEX3
      00000090H.7 SFRSYM    DATA     BIT       CEX4
      000000D8H.7 SFRSYM    DATA     BIT       CF
      000000C8H.0 SFRSYM    DATA     BIT       CP_RL2
      000000D8H.6 SFRSYM    DATA     BIT       CR
      000000D0H.7 SFRSYM    DATA     BIT       CY
      000000C8H.1 SFRSYM    DATA     BIT       C_T2
      000000A8H.7 SFRSYM    DATA     BIT       EA
      000000A8H.6 SFRSYM    DATA     BIT       EC
      00000090H.2 SFRSYM    DATA     BIT       ECI
      000000A8H.4 SFRSYM    DATA     BIT       ES
      000000A8H.1 SFRSYM    DATA     BIT       ET0
      000000A8H.3 SFRSYM    DATA     BIT       ET1
      000000A8H.5 SFRSYM    DATA     BIT       ET2
      000000A8H.0 SFRSYM    DATA     BIT       EX0
      000000A8H.2 SFRSYM    DATA     BIT       EX1
      000000C8H.3 SFRSYM    DATA     BIT       EXEN2
      000000C8H.6 SFRSYM    DATA     BIT       EXF2
      000000D0H.5 SFRSYM    DATA     BIT       F0
      00000098H.7 SFRSYM    DATA     BIT       FE
      00000088H.1 SFRSYM    DATA     BIT       IE0_
      00000088H.3 SFRSYM    DATA     BIT       IE1_
L251 LINKER/LOCATER V4.66.93.0                                                        02/16/2024  15:12:23  PAGE 43


      000000B0H.2 SFRSYM    DATA     BIT       INT0
      000000B0H.3 SFRSYM    DATA     BIT       INT1
      00000088H.0 SFRSYM    DATA     BIT       IT0
      00000088H.2 SFRSYM    DATA     BIT       IT1
      000000D0H.2 SFRSYM    DATA     BIT       OV
      000000D0H.0 SFRSYM    DATA     BIT       P
      000000B8H.6 SFRSYM    DATA     BIT       PPC
      000000B8H.4 SFRSYM    DATA     BIT       PS
      000000B8H.1 SFRSYM    DATA     BIT       PT0
      000000B8H.3 SFRSYM    DATA     BIT       PT1
      000000B8H.5 SFRSYM    DATA     BIT       PT2
      000000B8H.0 SFRSYM    DATA     BIT       PX0
      000000B8H.2 SFRSYM    DATA     BIT       PX1
      00000098H.2 SFRSYM    DATA     BIT       RB8
      000000C8H.5 SFRSYM    DATA     BIT       RCLK
      000000B0H.7 SFRSYM    DATA     BIT       RD
      00000098H.4 SFRSYM    DATA     BIT       REN
      00000098H.0 SFRSYM    DATA     BIT       RI
      000000D0H.3 SFRSYM    DATA     BIT       RS0
      000000D0H.4 SFRSYM    DATA     BIT       RS1
      000000B0H.0 SFRSYM    DATA     BIT       RXD
      00000098H.7 SFRSYM    DATA     BIT       SM0
      00000098H.6 SFRSYM    DATA     BIT       SM1
      00000098H.5 SFRSYM    DATA     BIT       SM2
      000000B0H.4 SFRSYM    DATA     BIT       T0
      000000B0H.5 SFRSYM    DATA     BIT       T1
      00000090H.0 SFRSYM    DATA     BIT       T2
      00000090H.1 SFRSYM    DATA     BIT       T2EX
      00000098H.3 SFRSYM    DATA     BIT       TB8
      000000C8H.4 SFRSYM    DATA     BIT       TCLK
      00000088H.5 SFRSYM    DATA     BIT       TF0
      00000088H.7 SFRSYM    DATA     BIT       TF1
      000000C8H.7 SFRSYM    DATA     BIT       TF2
      00000098H.1 SFRSYM    DATA     BIT       TI
      00000088H.4 SFRSYM    DATA     BIT       TR0
      00000088H.6 SFRSYM    DATA     BIT       TR1
      000000C8H.2 SFRSYM    DATA     BIT       TR2
      000000B0H.1 SFRSYM    DATA     BIT       TXD
      000000D0H.1 SFRSYM    DATA     BIT       UD
      000000B0H.6 SFRSYM    DATA     BIT       WR
      000000E0H   SYMBOL    NUMBER   ---       ACC
      00FF00C5H   SYMBOL    CODE     ---       ASM_MEMCPY?0
      00FF00D3H   SYMBOL    CODE     ---       ASM_MEMCPY?1
      00FF00D7H   SYMBOL    CODE     ---       ASM_MEMCPY?2
      00FF0104H   SYMBOL    CODE     ---       ASM_MEMCPY?DEAD?0
      00FF0108H   SYMBOL    CODE     ---       ASM_MEMCPY?DEAD?1
      00FF0103H   SYMBOL    CODE     ---       ASM_MEMCPY?DONE?
      000000F0H   SYMBOL    NUMBER   ---       B
      000000FAH   SYMBOL    NUMBER   ---       CCAP0H
      000000EAH   SYMBOL    NUMBER   ---       CCAP0L
      000000FBH   SYMBOL    NUMBER   ---       CCAP1H
      000000EBH   SYMBOL    NUMBER   ---       CCAP1L
      000000FCH   SYMBOL    NUMBER   ---       CCAP2H
      000000ECH   SYMBOL    NUMBER   ---       CCAP2L
      000000FDH   SYMBOL    NUMBER   ---       CCAP3H
      000000EDH   SYMBOL    NUMBER   ---       CCAP3L
      000000FEH   SYMBOL    NUMBER   ---       CCAP4H
      000000EEH   SYMBOL    NUMBER   ---       CCAP4L
      000000DAH   SYMBOL    NUMBER   ---       CCAPM0
      000000DBH   SYMBOL    NUMBER   ---       CCAPM1
      000000DCH   SYMBOL    NUMBER   ---       CCAPM2
      000000DDH   SYMBOL    NUMBER   ---       CCAPM3
      000000DEH   SYMBOL    NUMBER   ---       CCAPM4
      000000D8H   SYMBOL    NUMBER   ---       CCON
      000000F9H   SYMBOL    NUMBER   ---       CH
L251 LINKER/LOCATER V4.66.93.0                                                        02/16/2024  15:12:23  PAGE 44


      000000E9H   SYMBOL    NUMBER   ---       CL
      000000D9H   SYMBOL    NUMBER   ---       CMOD
      00000083H   SYMBOL    NUMBER   ---       DPH
      00000082H   SYMBOL    NUMBER   ---       DPL
      00000084H   SYMBOL    NUMBER   ---       DPXL
      000000A8H   SYMBOL    NUMBER   ---       IE0
      000000B7H   SYMBOL    NUMBER   ---       IPH0
      000000B8H   SYMBOL    NUMBER   ---       IPL0
      00000080H   SYMBOL    NUMBER   ---       P0
      00000090H   SYMBOL    NUMBER   ---       P1
      000000A0H   SYMBOL    NUMBER   ---       P2
      000000B0H   SYMBOL    NUMBER   ---       P3
      00000087H   SYMBOL    NUMBER   ---       PCON
      000000D0H   SYMBOL    NUMBER   ---       PSW
      000000D1H   SYMBOL    NUMBER   ---       PSW1
      000000CBH   SYMBOL    NUMBER   ---       RCAP2H
      000000CAH   SYMBOL    NUMBER   ---       RCAP2L
      000000A9H   SYMBOL    NUMBER   ---       SADDR
      000000B9H   SYMBOL    NUMBER   ---       SADEN
      00000099H   SYMBOL    NUMBER   ---       SBUF
      00000098H   SYMBOL    NUMBER   ---       SCON
      00000081H   SYMBOL    NUMBER   ---       SP
      000000BEH   SYMBOL    NUMBER   ---       SPH
      000000C8H   SYMBOL    NUMBER   ---       T2CON
      000000C9H   SYMBOL    NUMBER   ---       T2MOD
      00000088H   SYMBOL    NUMBER   ---       TCON
      0000008CH   SYMBOL    NUMBER   ---       TH0
      0000008DH   SYMBOL    NUMBER   ---       TH1
      000000CDH   SYMBOL    NUMBER   ---       TH2
      0000008AH   SYMBOL    NUMBER   ---       TL0
      0000008BH   SYMBOL    NUMBER   ---       TL1
      000000CCH   SYMBOL    NUMBER   ---       TL2
      00000089H   SYMBOL    NUMBER   ---       TMOD
      000000A7H   SYMBOL    NUMBER   ---       WCON
      000000A6H   SYMBOL    NUMBER   ---       WDTRST

      00FF00ADH   BLOCK     CODE     NEAR LAB  LVL=0
      00FF00ADH   LINE      CODE     ---       #25
      00FF00AFH   LINE      CODE     ---       #26
      00FF00B1H   LINE      CODE     ---       #28
      00FF00B3H   LINE      CODE     ---       #29
      00FF00B5H   LINE      CODE     ---       #31
      00FF00B7H   LINE      CODE     ---       #32
      00FF00B9H   LINE      CODE     ---       #33
      00FF00BDH   LINE      CODE     ---       #34
      00FF00BFH   LINE      CODE     ---       #35
      00FF00C1H   LINE      CODE     ---       #36
      00FF00C3H   LINE      CODE     ---       #45
      00FF00C5H   LINE      CODE     ---       #48
      00FF00C8H   LINE      CODE     ---       #49
      00FF00CBH   LINE      CODE     ---       #50
      00FF00CDH   LINE      CODE     ---       #51
      00FF00CFH   LINE      CODE     ---       #52
      00FF00D1H   LINE      CODE     ---       #53
      00FF00D3H   LINE      CODE     ---       #56
      00FF00D5H   LINE      CODE     ---       #57
      00FF00D7H   LINE      CODE     ---       #60
      00FF00DAH   LINE      CODE     ---       #61
      00FF00DDH   LINE      CODE     ---       #62
      00FF00E1H   LINE      CODE     ---       #63
      00FF00E5H   LINE      CODE     ---       #64
      00FF00E9H   LINE      CODE     ---       #65
      00FF00EDH   LINE      CODE     ---       #66
      00FF00F1H   LINE      CODE     ---       #67
      00FF00F5H   LINE      CODE     ---       #68
L251 LINKER/LOCATER V4.66.93.0                                                        02/16/2024  15:12:23  PAGE 45


      00FF00F9H   LINE      CODE     ---       #69
      00FF00FDH   LINE      CODE     ---       #70
      00FF0101H   LINE      CODE     ---       #71
      00FF0103H   LINE      CODE     ---       #74
      00FF0104H   LINE      CODE     ---       #77
      00FF0106H   LINE      CODE     ---       #78
      00FF0108H   LINE      CODE     ---       #80
      00FF010AH   LINE      CODE     ---       #81
      ---         BLOCKEND  ---      ---       LVL=0

      ---         MODULE    ---      ---       sys_qctrl
      00FF4863H   PUBLIC    CODE     ---       Q_Init
      00FF489BH   PUBLIC    CODE     ---       Q_MemFreeCount
      00FF17FCH   PUBLIC    CODE     ---       Q_MemAlloc
      00FF48B5H   PUBLIC    CODE     ---       Q_MemFree
      00FF177FH   PUBLIC    CODE     ---       Q_MemGet
      00FF3F7DH   PUBLIC    CODE     ---       Q_QGet
      00FF39C1H   PUBLIC    CODE     ---       Q_QNumGet
      00FF48C2H   PUBLIC    CODE     ---       Q_QLenGet
      00FF3A2BH   PUBLIC    CODE     ---       Q_QFree
      00FF3DFFH   PUBLIC    CODE     ---       Q_QPushBack
      00FF49AEH   PUBLIC    CODE     ---       Q_QPushFront
      00FF4A6CH   PUBLIC    CODE     ---       Q_QMoveBack
      00FF48D8H   PUBLIC    CODE     ---       Q_QChageType
      00FF4912H   PUBLIC    CODE     ---       Q_QRemove
      0000AC47H   PUBLIC    EDATA    ---       sQCtrl
      0000AC53H   PUBLIC    EDATA    ---       sQHeader
      0000ACCBH   PUBLIC    EDATA    ---       sQPayload
      000000A8H.7 SFRSYM    DATA     BIT       EA

      00FF4863H   BLOCK     CODE     ---       LVL=0
      00FF4863H   LINE      ---      ---       #32
      00FF4863H   LINE      ---      ---       #33
      00FF4863H   BLOCK     CODE     NEAR LAB  LVL=1
      00FF4863H   LINE      ---      ---       #38
      00FF4865H   LINE      ---      ---       #40
      00FF486EH   LINE      ---      ---       #41
      00FF4873H   LINE      ---      ---       #42
      00FF4877H   LINE      ---      ---       #43
      00FF487CH   LINE      ---      ---       #44
      00FF4883H   LINE      ---      ---       #47
      00FF488FH   LINE      ---      ---       #50
      REG=4       REGSYM    ---      ---       pQCtrl
      R7          REGSYM    ---      BYTE      qType
      ---         BLOCKEND  CODE     ---       LVL=1
      ---         BLOCKEND  CODE     ---       LVL=0

      00FF489BH   BLOCK     CODE     ---       LVL=0
      00FF489BH   LINE      ---      ---       #54
      00FF489BH   LINE      ---      ---       #55
      00FF489BH   BLOCK     CODE     NEAR LAB  LVL=1
      00FF489BH   LINE      ---      ---       #57
      00FF489DH   LINE      ---      ---       #60
      00FF489FH   LINE      ---      ---       #62
      00FF48A9H   LINE      ---      ---       #64
      00FF48ABH   LINE      ---      ---       #65
      00FF48B2H   LINE      ---      ---       #68
      R6          REGSYM    ---      BYTE      qIdx
      R7          REGSYM    ---      BYTE      freeCnt
      ---         BLOCKEND  CODE     ---       LVL=1
      00FF48B4H   LINE      ---      ---       #69
      00FF48B4H   LINE      CODE     ---       #69

      00FF17FCH   BLOCK     CODE     ---       LVL=0
      00FF17FCH   LINE      ---      ---       #72
L251 LINKER/LOCATER V4.66.93.0                                                        02/16/2024  15:12:23  PAGE 46


      00FF17FCH   LINE      ---      ---       #73
      00FF17FCH   BLOCK     CODE     NEAR LAB  LVL=1
      00FF17FCH   LINE      ---      ---       #77
      00FF17FEH   LINE      ---      ---       #79
      00FF1809H   LINE      ---      ---       #81
      00FF180FH   LINE      ---      ---       #82
      00FF1811H   LINE      ---      ---       #83
      00FF1818H   LINE      ---      ---       #89
      R7          REGSYM    ---      BYTE      qIdx
      ---         BLOCKEND  CODE     ---       LVL=1
      00FF181AH   LINE      ---      ---       #90
      00FF181AH   LINE      CODE     ---       #90

      00FF48B5H   BLOCK     CODE     ---       LVL=0
      00FF48B5H   LINE      ---      ---       #92
      00FF48B7H   LINE      ---      ---       #97
      00FF48C1H   LINE      ---      ---       #98
      R5          REGSYM    ---      BYTE      qIdx
      ---         BLOCKEND  ---      ---       LVL=0

      00FF177BH   BLOCK     CODE     ---       LVL=0
      00FF177FH   LINE      ---      ---       #100
      00FF1783H   LINE      ---      ---       #104
      00FF178AH   LINE      ---      ---       #106
      00FF1793H   LINE      ---      ---       #107
      00FF177BH   SYMBOL    CODE     NEAR LAB  ?L?COM0001
      R15         REGSYM    ---      BYTE      qIdx
      ---         BLOCKEND  ---      ---       LVL=0

      00FF3F7DH   BLOCK     CODE     ---       LVL=0
      00FF3F7DH   LINE      ---      ---       #109
      00FF3F7FH   LINE      ---      ---       #114
      00FF3F92H   LINE      ---      ---       #115
      WR2         REGSYM    ---      INT       qType
      ---         BLOCKEND  ---      ---       LVL=0

      00FF39BDH   BLOCK     CODE     ---       LVL=0
      00FF39C1H   LINE      ---      ---       #117
      00FF39C3H   LINE      ---      ---       #122
      00FF39CDH   LINE      ---      ---       #123
      00FF39BDH   SYMBOL    CODE     NEAR LAB  ?L?COM004B
      WR2         REGSYM    ---      INT       qType
      ---         BLOCKEND  ---      ---       LVL=0

      00FF48C2H   BLOCK     CODE     ---       LVL=0
      00FF48C2H   LINE      ---      ---       #125
      00FF48C4H   LINE      ---      ---       #129
      00FF48D7H   LINE      ---      ---       #130
      WR2         REGSYM    ---      INT       qType
      ---         BLOCKEND  ---      ---       LVL=0

      00FF4912H   BLOCK     CODE     ---       LVL=0
      00FF4912H   LINE      ---      ---       #132
      00FF4916H   LINE      ---      ---       #136
      WR2         REGSYM    ---      INT       qType
      R1          REGSYM    ---      BYTE      bKeepMem
      00FF4916H   BLOCK     CODE     NEAR LAB  LVL=1
      00FF4916H   LINE      ---      ---       #137
      00FF4922H   LINE      ---      ---       #138
      00FF492EH   LINE      ---      ---       #141
      00FF4930H   LINE      ---      ---       #145
      00FF493EH   LINE      ---      ---       #146
      00FF4943H   LINE      ---      ---       #147
      00FF4951H   LINE      ---      ---       #150
      00FF4960H   LINE      ---      ---       #152
L251 LINKER/LOCATER V4.66.93.0                                                        02/16/2024  15:12:23  PAGE 47


      00FF4971H   LINE      ---      ---       #153
      00FF497FH   LINE      ---      ---       #157
      00FF4983H   LINE      ---      ---       #158
      00FF4991H   LINE      ---      ---       #161
      00FF499CH   LINE      ---      ---       #162
      00FF499FH   LINE      ---      ---       #163
      00FF49A5H   LINE      ---      ---       #164
      00FF49ABH   LINE      ---      ---       #165
      REG=4       REGSYM    ---      ---       pQCtrl
      REG=2       REGSYM    ---      ---       pQHeader
      R0          REGSYM    ---      BYTE      nextNode
      ---         BLOCKEND  CODE     ---       LVL=1
      00FF49ADH   LINE      ---      ---       #166
      00FF49ADH   LINE      CODE     ---       #166

      00FF3A2BH   BLOCK     CODE     ---       LVL=0
      00FF3A2BH   LINE      ---      ---       #168
      00FF3A2DH   LINE      ---      ---       #171
      WR2         REGSYM    ---      INT       qType
      00FF3A2DH   BLOCK     CODE     NEAR LAB  LVL=1
      00FF3A2DH   LINE      ---      ---       #172
      00FF3A39H   LINE      ---      ---       #175
      00FF3A41H   LINE      ---      ---       #176
      00FF3A41H   LINE      ---      ---       #179
      REG=0       REGSYM    ---      ---       pQCtrl
      ---         BLOCKEND  CODE     ---       LVL=1
      00FF3A47H   LINE      ---      ---       #180
      00FF3A47H   LINE      CODE     ---       #180

      00FF3DF1H   BLOCK     CODE     ---       LVL=0
      00FF3DFFH   LINE      ---      ---       #182
      00FF3E0BH   LINE      ---      ---       #187
      00FF3DF1H   SYMBOL    CODE     NEAR LAB  ?L?COM000F
      WR12        REGSYM    ---      INT       qType
      R15         REGSYM    ---      BYTE      qIdx
      0000B511H   SYMBOL    EDATA    WORD      dataLen
      00FF3E0BH   BLOCK     CODE     NEAR LAB  LVL=1
      00FF3E0BH   LINE      ---      ---       #188
      00FF3E19H   LINE      ---      ---       #189
      00FF3E2DH   LINE      ---      ---       #190
      00FF3E3AH   LINE      ---      ---       #193
      00FF3E42H   LINE      ---      ---       #198
      00FF3E4EH   LINE      ---      ---       #200
      00FF3E50H   LINE      ---      ---       #201
      00FF3E59H   LINE      ---      ---       #202
      00FF3E69H   LINE      ---      ---       #203
      00FF3E73H   LINE      ---      ---       #208
      00FF3E80H   LINE      ---      ---       #209
      00FF3E91H   LINE      ---      ---       #212
      00FF3E99H   LINE      ---      ---       #213
      00FF3EA3H   LINE      ---      ---       #214
      00FF3EA6H   LINE      ---      ---       #217
      00FF3EB2H   LINE      ---      ---       #219
      00FF3EBFH   LINE      ---      ---       #220
      0000B513H   SYMBOL    EDATA    ---       pQCtrl
      0000B515H   SYMBOL    EDATA    ---       pQHeader
      0000B517H   SYMBOL    EDATA    ---       pQ_PAYLOAD
      ---         BLOCKEND  CODE     ---       LVL=1
      00FF3EC1H   LINE      ---      ---       #221
      00FF3EC1H   LINE      CODE     ---       #221

      00FF49AEH   BLOCK     CODE     ---       LVL=0
      00FF49AEH   LINE      ---      ---       #224
      00FF49B8H   LINE      ---      ---       #229
      WR8         REGSYM    ---      INT       qType
L251 LINKER/LOCATER V4.66.93.0                                                        02/16/2024  15:12:23  PAGE 48


      R15         REGSYM    ---      BYTE      qIdx
      WR12        REGSYM    ---      WORD      dataLen
      00FF49B8H   BLOCK     CODE     NEAR LAB  LVL=1
      00FF49B8H   LINE      ---      ---       #230
      00FF49C8H   LINE      ---      ---       #231
      00FF49DCH   LINE      ---      ---       #232
      00FF49E9H   LINE      ---      ---       #235
      00FF49F1H   LINE      ---      ---       #240
      00FF49FDH   LINE      ---      ---       #242
      00FF49FFH   LINE      ---      ---       #243
      00FF4A08H   LINE      ---      ---       #244
      00FF4A12H   LINE      ---      ---       #245
      00FF4A21H   LINE      ---      ---       #250
      00FF4A2DH   LINE      ---      ---       #251
      00FF4A3AH   LINE      ---      ---       #254
      00FF4A47H   LINE      ---      ---       #255
      00FF4A4EH   LINE      ---      ---       #256
      00FF4A59H   LINE      ---      ---       #257
      00FF4A5DH   LINE      ---      ---       #260
      00FF4A65H   LINE      ---      ---       #261
      0000B55CH   SYMBOL    EDATA    ---       pQCtrl
      0000B55EH   SYMBOL    EDATA    ---       pQHeader
      0000B560H   SYMBOL    EDATA    ---       pQ_PAYLOAD
      ---         BLOCKEND  CODE     ---       LVL=1
      00FF4A67H   LINE      ---      ---       #262
      00FF4A67H   LINE      CODE     ---       #262

      00FF4A6CH   BLOCK     CODE     ---       LVL=0
      00FF4A6CH   LINE      ---      ---       #264
      00FF4A6EH   LINE      ---      ---       #267
      WR2         REGSYM    ---      INT       qType
      00FF4A6EH   BLOCK     CODE     NEAR LAB  LVL=1
      00FF4A6EH   LINE      ---      ---       #268
      00FF4A7AH   LINE      ---      ---       #269
      00FF4A86H   LINE      ---      ---       #273
      00FF4A8EH   LINE      ---      ---       #274
      00FF4A8EH   LINE      ---      ---       #279
      00FF4A99H   LINE      ---      ---       #280
      00FF4A9EH   LINE      ---      ---       #281
      00FF4AACH   LINE      ---      ---       #286
      00FF4ABEH   LINE      ---      ---       #287
      00FF4ACFH   LINE      ---      ---       #292
      00FF4AE1H   LINE      ---      ---       #295
      00FF4AE8H   LINE      ---      ---       #296
      REG=0       REGSYM    ---      ---       pQCtrl
      REG=1       REGSYM    ---      ---       pQHeader
      R7          REGSYM    ---      BYTE      nextNode
      ---         BLOCKEND  CODE     ---       LVL=1
      00FF4AEBH   LINE      ---      ---       #297
      00FF4AEBH   LINE      CODE     ---       #297

      00FF48D8H   BLOCK     CODE     ---       LVL=0
      00FF48D8H   LINE      ---      ---       #299
      00FF48DEH   LINE      ---      ---       #303
      WR12        REGSYM    ---      INT       qTypeDest
      WR14        REGSYM    ---      INT       qTypeSrc
      00FF48DEH   BLOCK     CODE     NEAR LAB  LVL=1
      00FF48DEH   LINE      ---      ---       #304
      00FF48E8H   LINE      ---      ---       #309
      00FF48F0H   LINE      ---      ---       #310
      00FF48F0H   LINE      ---      ---       #313
      00FF48F4H   LINE      ---      ---       #314
      00FF48FCH   LINE      ---      ---       #317
      00FF4902H   LINE      ---      ---       #320
      REG=3       REGSYM    ---      ---       pQSrcCtrl
L251 LINKER/LOCATER V4.66.93.0                                                        02/16/2024  15:12:23  PAGE 49


      0000B5B1H   SYMBOL    EDATA    BYTE      qIdx
      0000B5B2H   SYMBOL    EDATA    WORD      qLen
      ---         BLOCKEND  CODE     ---       LVL=1
      00FF490FH   LINE      ---      ---       #321
      00FF490FH   LINE      CODE     ---       #321

      ---         MODULE    ---      ---       sys_rtc
      00FF1DC4H   PUBLIC    CODE     ---       RTC_ClkGet?_
      00FF4AF4H   PUBLIC    CODE     ---       RTC_uDelay
      00FF1F32H   PUBLIC    CODE     ---       RTC_TickGapCount
      00FF4FE0H   PUBLIC    CODE     ---       RTC_TimerConfig
      00FF5050H   PUBLIC    CODE     ---       RTC_TimerWakeUpDisable
      00FF5777H   PUBLIC    CODE     ---       RTC_WaitForTriggered
      00FF5781H   PUBLIC    CODE     ---       RTC_TriggerWithinUs
      00FF57A7H   PUBLIC    CODE     ---       RTC_IsrHdlrInit
      00FF57E3H   PUBLIC    CODE     ---       RTC_Init
      00FF5837H   PUBLIC    CODE     ---       RTC_IsrHdlr
      0000B562H   PUBLIC    EDATA    ---       gSysRtcHdlrTable
      00FF5836H   SYMBOL    CODE     ---       Rtc_NullHdlr
      0000B564H   SYMBOL    EDATA    DWORD     rtcNextAnchor

      00FF5836H   BLOCK     CODE     ---       LVL=0
      00FF5836H   LINE      ---      ---       #39
      00FF5836H   LINE      ---      ---       #40
      00FF5836H   LINE      ---      ---       #41
      ---         BLOCKEND  ---      ---       LVL=0

      00FF5837H   BLOCK     CODE     ---       LVL=0
      00FF5837H   LINE      ---      ---       #44
      00FF5837H   LINE      ---      ---       #47
      00FF5837H   LINE      ---      ---       #49
      00FF583DH   LINE      ---      ---       #52
      00FF5843H   LINE      ---      ---       #55
      ---         BLOCKEND  ---      ---       LVL=0

      00FF4AECH   BLOCK     CODE     ---       LVL=0
      00FF4AF4H   LINE      ---      ---       #62
      00FF4AECH   SYMBOL    CODE     NEAR LAB  ?L?COM001C
      DR12        REGSYM    ---      DWORD     delayUs
      00FF4AF8H   BLOCK     CODE     NEAR LAB  LVL=1
      00FF4AF8H   LINE      ---      ---       #95
      00FF4AFDH   LINE      ---      ---       #96
      00FF4AFDH   LINE      ---      ---       #97
      00FF4B06H   LINE      ---      ---       #98
      0000B57DH   SYMBOL    EDATA    DWORD     clkA
      DR12        REGSYM    ---      DWORD     clkB
      ---         BLOCKEND  CODE     ---       LVL=1
      00FF4B10H   LINE      ---      ---       #100
      00FF4B10H   LINE      CODE     ---       #100

      00FF1F21H   BLOCK     CODE     ---       LVL=0
      00FF1F32H   LINE      ---      ---       #104
      00FF1F34H   LINE      ---      ---       #113
      00FF1F38H   LINE      ---      ---       #115
      00FF1F21H   SYMBOL    CODE     NEAR LAB  ?L?COM0020
      DR4         REGSYM    ---      DWORD     clkA
      DR8         REGSYM    ---      DWORD     clkB
      ---         BLOCKEND  ---      ---       LVL=0

      00FF4FE0H   BLOCK     CODE     ---       LVL=0
      00FF4FE0H   LINE      ---      ---       #118
      00FF4FE6H   LINE      ---      ---       #121
      00FF5000H   LINE      ---      ---       #124
      00FF500BH   LINE      ---      ---       #127
      00FF5010H   LINE      ---      ---       #128
L251 LINKER/LOCATER V4.66.93.0                                                        02/16/2024  15:12:23  PAGE 50


      00FF501BH   LINE      ---      ---       #129
      00FF501BH   LINE      ---      ---       #132
      00FF5027H   LINE      ---      ---       #135
      00FF503FH   LINE      ---      ---       #137
      00FF504BH   LINE      ---      ---       #138
      00FF504FH   LINE      ---      ---       #139
      R10         REGSYM    ---      BYTE      mode
      DR28        REGSYM    ---      DWORD     rtcValue
      DR24        REGSYM    ---      DWORD     rtcInterval
      ---         BLOCKEND  ---      ---       LVL=0

      00FF5050H   BLOCK     CODE     ---       LVL=0
      00FF5050H   LINE      ---      ---       #144
      00FF5050H   LINE      ---      ---       #146
      00FF505CH   LINE      ---      ---       #149
      00FF5062H   LINE      ---      ---       #151
      ---         BLOCKEND  ---      ---       LVL=0

      00FF5777H   BLOCK     CODE     ---       LVL=0
      00FF5777H   LINE      ---      ---       #155
      00FF5777H   LINE      ---      ---       #157
      00FF5777H   LINE      ---      ---       #158
      00FF5778H   LINE      ---      ---       #159
      00FF5780H   LINE      ---      ---       #160
      ---         BLOCKEND  ---      ---       LVL=0

      00FF5781H   BLOCK     CODE     ---       LVL=0
      00FF5781H   LINE      ---      ---       #163
      00FF5785H   LINE      ---      ---       #165
      00FF57A4H   LINE      ---      ---       #166
      DR12        REGSYM    ---      DWORD     Time
      ---         BLOCKEND  ---      ---       LVL=0

      00FF57A7H   BLOCK     CODE     ---       LVL=0
      00FF57A7H   LINE      ---      ---       #170
      00FF57ABH   LINE      ---      ---       #172
      00FF57AFH   LINE      ---      ---       #174
      00FF57BCH   LINE      ---      ---       #175
      00FF57C0H   LINE      ---      ---       #176
      REG=7       REGSYM    ---      ---       intHdlr
      ---         BLOCKEND  ---      ---       LVL=0

      00FF57E3H   BLOCK     CODE     ---       LVL=0
      00FF57E3H   LINE      ---      ---       #181
      00FF57E7H   LINE      ---      ---       #192
      00FF57F2H   LINE      ---      ---       #193
      00FF57F5H   LINE      ---      ---       #195
      00FF580DH   LINE      ---      ---       #199
      00FF5816H   LINE      ---      ---       #202
      00FF5822H   LINE      ---      ---       #206
      00FF582EH   LINE      ---      ---       #207
      00FF5833H   LINE      ---      ---       #213
      R15         REGSYM    ---      BYTE      rtcUnit
      ---         BLOCKEND  ---      ---       LVL=0

      00FF1DC4H   BLOCK     CODE     ---       LVL=0
      00FF1DC4H   LINE      ---      ---       #232
      00FF1DC4H   LINE      ---      ---       #233
      00FF1DC4H   BLOCK     CODE     NEAR LAB  LVL=1
      00FF1DC4H   LINE      ---      ---       #236
      00FF1DD0H   LINE      ---      ---       #238
      00FF1DD0H   LINE      ---      ---       #240
      00FF1DD6H   LINE      ---      ---       #241
      00FF1DDCH   LINE      ---      ---       #243
      DR4         REGSYM    ---      DWORD     rtc1
L251 LINKER/LOCATER V4.66.93.0                                                        02/16/2024  15:12:23  PAGE 51


      ---         BLOCKEND  CODE     ---       LVL=1
      00FF1DDCH   LINE      ---      ---       #244
      00FF1DDCH   LINE      CODE     ---       #244

      ---         MODULE    ---      ---       common_isr
      00FF5844H   PUBLIC    CODE     ---       common_isrBmuCheckTx
      00FF1422H   PUBLIC    CODE     ---       common_isr_init
      00FF5FEFH   PUBLIC    CODE     ---       Common_IsrBmuTxQAdd?_
      00FF60AEH   PUBLIC    CODE     ---       Common_IsrBmuTxQGetByHandle?_
      00FF6166H   PUBLIC    CODE     ---       Common_IsrBmuTxQPciGet
      00FF61FFH   PUBLIC    CODE     ---       Common_IsrBmuTxQDeleteAllByCondition?_
      00FF636EH   PUBLIC    CODE     ---       Common_IsrBmuTxQDeleteByPtr?_
      00FF63F8H   PUBLIC    CODE     ---       Common_IsrBmuTxQInit
      00FF6468H   PUBLIC    CODE     ---       common_isrBmuHandler
      0000B1F1H   PUBLIC    EDATA    ---       gBmuDataTxQList
      0000B1F8H   PUBLIC    EDATA    ---       gBmuDataTxCtrlField
      0000B203H   PUBLIC    EDATA    ---       gBmuDataListHead
      0000B205H   PUBLIC    EDATA    ---       gBmuDataListTail
      0000B207H   PUBLIC    EDATA    ---       gBmuDataList
      000000A8H.7 SFRSYM    DATA     BIT       EA
      00000080H   SFRSYM    DATA     BYTE      P0
      0000B27EH   SYMBOL    EDATA    BYTE      gCommon_isrGetBmu

      00FF6468H   BLOCK     CODE     ---       LVL=0
      00FF6468H   LINE      ---      ---       #122
      00FF6468H   LINE      ---      ---       #129
      00FF646BH   LINE      ---      ---       #130
      00FF6471H   LINE      ---      ---       #131
      R11         REGSYM    ---      BYTE      isrStatus
      ---         BLOCKEND  ---      ---       LVL=0

      00FF5844H   BLOCK     CODE     ---       LVL=0
      00FF5844H   LINE      ---      ---       #174
      00FF5846H   LINE      ---      ---       #175
      00FF5846H   BLOCK     CODE     NEAR LAB  LVL=1
      00FF5846H   LINE      ---      ---       #176
      00FF584BH   LINE      ---      ---       #179
      00FF5856H   LINE      ---      ---       #181
      00FF5858H   LINE      ---      ---       #182
      00FF585EH   LINE      ---      ---       #183
      00FF5869H   LINE      ---      ---       #184
      00FF586EH   LINE      ---      ---       #185
      00FF586EH   LINE      ---      ---       #188
      00FF5872H   LINE      ---      ---       #189
      00FF5886H   LINE      ---      ---       #201
      00FF588DH   LINE      ---      ---       #203
      0000B4A4H   SYMBOL    EDATA    BYTE      qNum
      R15         REGSYM    ---      BYTE      count
      0000B4A5H   SYMBOL    EDATA    ---       dataField
      00FF588DH   BLOCK     CODE     NEAR LAB  LVL=2
      00FF588DH   LINE      ---      ---       #204
      00FF5891H   LINE      ---      ---       #205
      00FF5899H   LINE      ---      ---       #206
      00FF589DH   LINE      ---      ---       #210
      00FF58ACH   LINE      ---      ---       #212
      R14         REGSYM    ---      BYTE      tempData
      ---         BLOCKEND  CODE     ---       LVL=2
      00FF58AFH   LINE      ---      ---       #214
      00FF58AFH   LINE      ---      ---       #217
      00FF58B9H   LINE      ---      ---       #219
      00FF58B9H   LINE      CODE     ---       #219
      ---         BLOCKEND  CODE     ---       LVL=0

      00FF1422H   BLOCK     CODE     ---       LVL=0
      00FF1422H   LINE      ---      ---       #222
L251 LINKER/LOCATER V4.66.93.0                                                        02/16/2024  15:12:23  PAGE 52


      00FF1422H   LINE      ---      ---       #224
      00FF1427H   LINE      ---      ---       #228
      ---         BLOCKEND  ---      ---       LVL=0

      00FF5FEFH   BLOCK     CODE     ---       LVL=0
      00FF5FEFH   LINE      ---      ---       #238
      R14         REGSYM    ---      BYTE      qId
      REG=2       REGSYM    ---      ---       pCtrlField
      R15         REGSYM    ---      BYTE      type
      00FF5FF9H   BLOCK     CODE     NEAR LAB  LVL=1
      00FF5FF9H   LINE      ---      ---       #240
      00FF5FFBH   LINE      ---      ---       #257
      00FF5FFBH   LINE      ---      ---       #258
      00FF600BH   LINE      ---      ---       #260
      00FF600FH   LINE      ---      ---       #269
      00FF6014H   LINE      ---      ---       #270
      00FF6026H   LINE      ---      ---       #271
      00FF6026H   LINE      ---      ---       #277
      00FF602EH   LINE      ---      ---       #278
      00FF6039H   LINE      ---      ---       #281
      00FF6041H   LINE      ---      ---       #282
      00FF604EH   LINE      ---      ---       #283
      00FF6052H   LINE      ---      ---       #284
      00FF6054H   LINE      ---      ---       #287
      00FF6065H   LINE      ---      ---       #288
      00FF6071H   LINE      ---      ---       #291
      00FF607EH   LINE      ---      ---       #292
      00FF6084H   LINE      ---      ---       #295
      00FF6084H   LINE      ---      ---       #298
      00FF608AH   LINE      ---      ---       #299
      00FF6093H   LINE      ---      ---       #302
      00FF6095H   LINE      ---      ---       #303
      00FF6095H   LINE      ---      ---       #304
      00FF6097H   LINE      ---      ---       #305
      00FF609FH   LINE      ---      ---       #310
      R13         REGSYM    ---      BYTE      i
      ---         BLOCKEND  CODE     ---       LVL=1
      00FF60A9H   LINE      ---      ---       #311
      00FF60A9H   LINE      CODE     ---       #311

      00FF60AEH   BLOCK     CODE     ---       LVL=0
      00FF60AEH   LINE      ---      ---       #375
      WR8         REGSYM    ---      WORD      connHdl
      REG=15      REGSYM    ---      ---       qId
      REG=1       REGSYM    ---      ---       hciHdr
      REG=0       REGSYM    ---      ---       qCnt
      FFFFFFFBH   STKSYM    ---      ---       retPtr
      00FF60B4H   BLOCK     CODE     NEAR LAB  LVL=1
      00FF60B4H   LINE      ---      ---       #376
      00FF60B8H   LINE      ---      ---       #382
      00FF60BBH   LINE      ---      ---       #384
      00FF60BEH   LINE      ---      ---       #386
      00FF60C3H   LINE      ---      ---       #387
      00FF60C7H   LINE      ---      ---       #388
      00FF60C7H   LINE      ---      ---       #391
      00FF60C9H   LINE      ---      ---       #393
      REG=14      REGSYM    ---      ---       pCurr
      WR6         REGSYM    ---      WORD      oldestSn
      WR4         REGSYM    ---      WORD      cmpSn
      R10         REGSYM    ---      BYTE      ret
      00FF60CBH   BLOCK     CODE     NEAR LAB  LVL=2
      00FF60CBH   LINE      ---      ---       #395
      00FF60E5H   LINE      ---      ---       #397
      00FF60FBH   LINE      ---      ---       #398
      00FF60FFH   LINE      ---      ---       #399
L251 LINKER/LOCATER V4.66.93.0                                                        02/16/2024  15:12:23  PAGE 53


      00FF6106H   LINE      ---      ---       #401
      00FF6117H   LINE      ---      ---       #407
      00FF6119H   LINE      ---      ---       #408
      00FF611CH   LINE      ---      ---       #409
      00FF6125H   LINE      ---      ---       #410
      00FF612CH   LINE      ---      ---       #411
      00FF612CH   LINE      ---      ---       #413
      FFFFFFFFH   STKSYM    ---      WORD      cmp
      ---         BLOCKEND  CODE     ---       LVL=2
      00FF6130H   LINE      ---      ---       #414
      00FF6134H   LINE      ---      ---       #417
      00FF6136H   LINE      ---      ---       #419
      00FF613DH   LINE      ---      ---       #420
      00FF614AH   LINE      ---      ---       #421
      00FF614AH   LINE      ---      ---       #423
      00FF614DH   LINE      ---      ---       #425
      00FF614DH   LINE      CODE     ---       #425
      ---         BLOCKEND  CODE     ---       LVL=0

      00FF615AH   BLOCK     CODE     ---       LVL=0
      00FF6166H   LINE      ---      ---       #437
      00FF615AH   SYMBOL    CODE     NEAR LAB  ?L?COM002E
      REG=4       REGSYM    ---      ---       qId
      REG=1       REGSYM    ---      ---       PciHdr
      REG=0       REGSYM    ---      ---       retPtr
      00FF616CH   BLOCK     CODE     NEAR LAB  LVL=1
      00FF616CH   LINE      ---      ---       #438
      00FF6170H   LINE      ---      ---       #439
      00FF6176H   LINE      ---      ---       #442
      00FF617BH   LINE      ---      ---       #445
      00FF617EH   LINE      ---      ---       #447
      00FF6183H   LINE      ---      ---       #450
      00FF6185H   LINE      ---      ---       #452
      00FF6187H   LINE      ---      ---       #453
      00FF6195H   LINE      ---      ---       #455
      00FF619DH   LINE      ---      ---       #456
      00FF61B7H   LINE      ---      ---       #458
      00FF61BFH   LINE      ---      ---       #459
      00FF61C6H   LINE      ---      ---       #460
      00FF61CDH   LINE      ---      ---       #461
      00FF61D0H   LINE      ---      ---       #462
      00FF61D0H   LINE      ---      ---       #471
      00FF61D4H   LINE      ---      ---       #472
      00FF61D8H   LINE      ---      ---       #475
      00FF61DFH   LINE      ---      ---       #477
      00FF61E8H   LINE      ---      ---       #478
      00FF61E8H   LINE      ---      ---       #481
      00FF61EFH   LINE      ---      ---       #484
      00FF61F1H   LINE      ---      ---       #486
      REG=3       REGSYM    ---      ---       pCurr
      0000B5B4H   SYMBOL    EDATA    BYTE      ret
      0000B5B5H   SYMBOL    EDATA    BYTE      sn
      0000B5B6H   SYMBOL    EDATA    BYTE      oldest_sn
      ---         BLOCKEND  CODE     ---       LVL=1
      00FF61FEH   LINE      ---      ---       #488
      00FF61FEH   LINE      CODE     ---       #488

      00FF61FFH   BLOCK     CODE     ---       LVL=0
      00FF61FFH   LINE      ---      ---       #498
      R13         REGSYM    ---      BYTE      type
      WR14        REGSYM    ---      WORD      connHdl
      00FF6209H   BLOCK     CODE     NEAR LAB  LVL=1
      00FF6209H   LINE      ---      ---       #506
      00FF620BH   LINE      ---      ---       #508
      00FF6213H   LINE      ---      ---       #509
L251 LINKER/LOCATER V4.66.93.0                                                        02/16/2024  15:12:23  PAGE 54


      00FF6219H   LINE      ---      ---       #510
      00FF621BH   LINE      ---      ---       #513
      FFFFFFFFH   STKSYM    ---      ---       pCurr
      FFFFFFFDH   STKSYM    ---      ---       pPrev
      FFFFFFFBH   STKSYM    ---      ---       pNext
      R12         REGSYM    ---      BYTE      ret
      00FF621DH   BLOCK     CODE     NEAR LAB  LVL=2
      00FF621DH   LINE      ---      ---       #514
      00FF6222H   LINE      ---      ---       #516
      FFFFFFFAH   STKSYM    ---      BYTE      condition
      00FF6233H   BLOCK     CODE     NEAR LAB  LVL=3
      00FF6233H   LINE      ---      ---       #517
      00FF6243H   LINE      ---      ---       #518
      00FF624AH   LINE      ---      ---       #519
      00FF6259H   LINE      ---      ---       #520
      00FF625FH   LINE      ---      ---       #521
      FFFFFFF8H   STKSYM    ---      WORD      cmp
      ---         BLOCKEND  CODE     ---       LVL=3
      00FF625FH   LINE      ---      ---       #524
      00FF6267H   LINE      ---      ---       #526
      00FF626FH   LINE      ---      ---       #530
      00FF627EH   LINE      ---      ---       #532
      00FF6289H   LINE      ---      ---       #535
      00FF6292H   LINE      ---      ---       #537
      00FF629CH   LINE      ---      ---       #538
      00FF62ADH   LINE      ---      ---       #539
      00FF62BDH   LINE      ---      ---       #540
      00FF62C5H   LINE      ---      ---       #541
      00FF62CDH   LINE      ---      ---       #544
      00FF62D7H   LINE      ---      ---       #545
      00FF62DFH   LINE      ---      ---       #547
      00FF62E3H   LINE      ---      ---       #548
      00FF62E9H   LINE      ---      ---       #549
      00FF62EBH   LINE      ---      ---       #552
      00FF62F1H   LINE      ---      ---       #553
      00FF62F5H   LINE      ---      ---       #554
      00FF62F5H   LINE      ---      ---       #555
      00FF62F7H   LINE      ---      ---       #556
      00FF62FDH   LINE      ---      ---       #558
      00FF6305H   LINE      ---      ---       #559
      00FF6309H   LINE      ---      ---       #560
      00FF6313H   LINE      ---      ---       #561
      00FF6315H   LINE      ---      ---       #565
      00FF6321H   LINE      ---      ---       #566
      00FF632DH   LINE      ---      ---       #567
      00FF632DH   LINE      ---      ---       #569
      00FF6337H   LINE      ---      ---       #570
      00FF633FH   LINE      ---      ---       #571
      00FF6341H   LINE      ---      ---       #580
      00FF6341H   LINE      ---      ---       #583
      00FF6349H   LINE      ---      ---       #584
      00FF6351H   LINE      ---      ---       #585
      00FF6359H   LINE      ---      ---       #586
      00FF6359H   LINE      CODE     ---       #586
      ---         BLOCKEND  CODE     ---       LVL=1
      00FF6363H   LINE      ---      ---       #590
      00FF6365H   LINE      ---      ---       #592
      00FF6365H   LINE      CODE     ---       #592

      00FF636EH   BLOCK     CODE     ---       LVL=0
      00FF636EH   LINE      ---      ---       #602
      00FF6372H   LINE      ---      ---       #605
      00FF6374H   LINE      ---      ---       #607
      00FF637BH   LINE      ---      ---       #610
      00FF6381H   LINE      ---      ---       #611
L251 LINKER/LOCATER V4.66.93.0                                                        02/16/2024  15:12:23  PAGE 55


      00FF6386H   LINE      ---      ---       #612
      00FF638FH   LINE      ---      ---       #613
      00FF6397H   LINE      ---      ---       #614
      00FF639BH   LINE      ---      ---       #615
      00FF639FH   LINE      ---      ---       #618
      00FF63A7H   LINE      ---      ---       #620
      00FF63AFH   LINE      ---      ---       #622
      00FF63B7H   LINE      ---      ---       #623
      00FF63BFH   LINE      ---      ---       #624
      00FF63C1H   LINE      ---      ---       #627
      00FF63C9H   LINE      ---      ---       #628
      00FF63C9H   LINE      ---      ---       #629
      00FF63CBH   LINE      ---      ---       #633
      00FF63D3H   LINE      ---      ---       #634
      00FF63D9H   LINE      ---      ---       #635
      00FF63DDH   LINE      ---      ---       #636
      00FF63DFH   LINE      ---      ---       #639
      00FF63E9H   LINE      ---      ---       #640
      00FF63E9H   LINE      ---      ---       #641
      00FF63E9H   LINE      ---      ---       #644
      00FF63F3H   LINE      ---      ---       #647
      00FF63F5H   LINE      ---      ---       #649
      REG=7       REGSYM    ---      ---       delPtr
      ---         BLOCKEND  ---      ---       LVL=0

      00FF63F8H   BLOCK     CODE     ---       LVL=0
      00FF63F8H   LINE      ---      ---       #658
      00FF63FAH   BLOCK     CODE     NEAR LAB  LVL=1
      00FF63FAH   LINE      ---      ---       #661
      00FF6400H   LINE      ---      ---       #662
      00FF6404H   LINE      ---      ---       #664
      00FF6406H   LINE      ---      ---       #665
      00FF6410H   LINE      ---      ---       #666
      00FF6418H   LINE      ---      ---       #667
      00FF6429H   LINE      ---      ---       #668
      00FF6434H   LINE      ---      ---       #669
      00FF643EH   LINE      ---      ---       #670
      00FF6448H   LINE      ---      ---       #671
      00FF6450H   LINE      ---      ---       #673
      00FF6458H   LINE      ---      ---       #676
      00FF645EH   LINE      ---      ---       #677
      R15         REGSYM    ---      BYTE      i
      ---         BLOCKEND  CODE     ---       LVL=1
      00FF6465H   LINE      ---      ---       #678
      00FF6465H   LINE      CODE     ---       #678
      00FF58BBH   LINE      ---      ---       #220
      00FF6157H   LINE      ---      ---       #427
      00FF6367H   LINE      ---      ---       #593

      ---         MODULE    ---      ---       common_cmd_hdlr
      00FF3BE3H   PUBLIC    CODE     ---       CMN_CmdSys_GetRfbFwVer
      00FF6472H   PUBLIC    CODE     ---       CMN_CmdHal_SetAgc
      00FF3EC6H   PUBLIC    CODE     ---       CMN_CmdHal_SetCalibrationEnable
      00FF6496H   PUBLIC    CODE     ---       CMN_CmdHal_SetCalibrationSetting
      00FF64CAH   PUBLIC    CODE     ---       CMN_CmdHal_SetTxPower
      00FF3CA6H   PUBLIC    CODE     ---       CMN_CmdHal_GetTemperatureRpt
      00FF3D8BH   PUBLIC    CODE     ---       CMN_CmdHal_GetVoltageRpt
      00FF3FD3H   PUBLIC    CODE     ---       CMN_CmdHal_SetRssiOffset
      00FF3F56H   PUBLIC    CODE     ---       CMN_CmdHal_SetTxPwrComp
      00FF3F2AH   PUBLIC    CODE     ---       CMN_CmdHal_SetTxPwrChComp
      00FF3F40H   PUBLIC    CODE     ---       CMN_CmdHal_SetTxPwrChSegment
      00FF3F74H   PUBLIC    CODE     ---       CMN_CmdHal_SetPmuMpkSetting
      00FF64FFH   PUBLIC    CODE     ---       CMN_CmdHal_SetTxPowerOqpsk
      00FF3FBAH   PUBLIC    CODE     ---       CMN_CmdHal_SetPmuOpMode
      00FF6536H   PUBLIC    CODE     ---       CMN_CmdHal_SetTxPowerBy
L251 LINKER/LOCATER V4.66.93.0                                                        02/16/2024  15:12:23  PAGE 56



      00FF3BE3H   BLOCK     CODE     ---       LVL=0
      00FF3BE3H   LINE      ---      ---       #24
      00FF3BE3H   LINE      ---      ---       #29
      00FF3BE3H   LINE      ---      ---       #32
      00FF3BECH   LINE      ---      ---       #35
      ---         BLOCKEND  ---      ---       LVL=0

      00FF6472H   BLOCK     CODE     ---       LVL=0
      00FF6472H   LINE      ---      ---       #57
      00FF6472H   LINE      ---      ---       #60
      REG=3       REGSYM    ---      ---       pCmdAddress
      00FF6472H   BLOCK     CODE     NEAR LAB  LVL=1
      00FF6472H   LINE      ---      ---       #69
      00FF6474H   LINE      ---      ---       #72
      00FF648CH   LINE      ---      ---       #75
      REG=1       REGSYM    ---      ---       pCmdIn
      ---         BLOCKEND  CODE     ---       LVL=1
      ---         BLOCKEND  CODE     ---       LVL=0

      00FF3EC6H   BLOCK     CODE     ---       LVL=0
      00FF3EC6H   LINE      ---      ---       #78
      00FF3EC6H   LINE      ---      ---       #83
      00FF3EC6H   LINE      ---      ---       #86
      00FF3ECCH   LINE      ---      ---       #89
      00FF3ED5H   LINE      ---      ---       #92
      ---         BLOCKEND  ---      ---       LVL=0

      00FF6496H   BLOCK     CODE     ---       LVL=0
      00FF6496H   LINE      ---      ---       #96
      00FF6496H   LINE      ---      ---       #99
      REG=3       REGSYM    ---      ---       pCmdAddress
      00FF6496H   BLOCK     CODE     NEAR LAB  LVL=1
      00FF6496H   LINE      ---      ---       #108
      00FF6498H   LINE      ---      ---       #111
      00FF64C0H   LINE      ---      ---       #114
      REG=1       REGSYM    ---      ---       pCmdIn
      ---         BLOCKEND  CODE     ---       LVL=1
      ---         BLOCKEND  CODE     ---       LVL=0

      00FF64CAH   BLOCK     CODE     ---       LVL=0
      00FF64CAH   LINE      ---      ---       #117
      00FF64CAH   LINE      ---      ---       #120
      REG=3       REGSYM    ---      ---       pCmdAddress
      00FF64CAH   BLOCK     CODE     NEAR LAB  LVL=1
      00FF64CAH   LINE      ---      ---       #131
      00FF64CCH   LINE      ---      ---       #133
      00FF64D8H   LINE      ---      ---       #134
      00FF64E1H   LINE      ---      ---       #137
      00FF64F5H   LINE      ---      ---       #139
      REG=2       REGSYM    ---      ---       pCmdIn
      R2          REGSYM    ---      BYTE      gainTab
      ---         BLOCKEND  CODE     ---       LVL=1
      ---         BLOCKEND  CODE     ---       LVL=0

      00FF3CA6H   BLOCK     CODE     ---       LVL=0
      00FF3CA6H   LINE      ---      ---       #147
      00FF3CA6H   LINE      ---      ---       #151
      00FF3CA6H   LINE      ---      ---       #152
      00FF3CAFH   LINE      ---      ---       #153
      ---         BLOCKEND  ---      ---       LVL=0

      00FF3D8BH   BLOCK     CODE     ---       LVL=0
      00FF3D8BH   LINE      ---      ---       #156
      00FF3D8BH   LINE      ---      ---       #160
L251 LINKER/LOCATER V4.66.93.0                                                        02/16/2024  15:12:23  PAGE 57


      00FF3D8BH   LINE      ---      ---       #161
      00FF3D94H   LINE      ---      ---       #162
      ---         BLOCKEND  ---      ---       LVL=0

      00FF3FD3H   BLOCK     CODE     ---       LVL=0
      00FF3FD3H   LINE      ---      ---       #165
      00FF3FD3H   LINE      ---      ---       #168
      REG=3       REGSYM    ---      ---       pCmdAddress
      00FF3FD3H   BLOCK     CODE     NEAR LAB  LVL=1
      00FF3FD3H   LINE      ---      ---       #177
      00FF3FD5H   LINE      ---      ---       #180
      00FF3FE5H   LINE      ---      ---       #182
      REG=2       REGSYM    ---      ---       pCmdIn
      ---         BLOCKEND  CODE     ---       LVL=1
      ---         BLOCKEND  CODE     ---       LVL=0

      00FF3F56H   BLOCK     CODE     ---       LVL=0
      00FF3F56H   LINE      ---      ---       #185
      00FF3F56H   LINE      ---      ---       #188
      REG=3       REGSYM    ---      ---       pCmdAddress
      00FF3F56H   BLOCK     CODE     NEAR LAB  LVL=1
      00FF3F56H   LINE      ---      ---       #197
      00FF3F58H   LINE      ---      ---       #200
      00FF3F6BH   LINE      ---      ---       #203
      REG=2       REGSYM    ---      ---       pCmdIn
      ---         BLOCKEND  CODE     ---       LVL=1
      ---         BLOCKEND  CODE     ---       LVL=0

      00FF3F2AH   BLOCK     CODE     ---       LVL=0
      00FF3F2AH   LINE      ---      ---       #209
      00FF3F2AH   LINE      ---      ---       #212
      REG=3       REGSYM    ---      ---       pCmdAddress
      00FF3F2AH   BLOCK     CODE     NEAR LAB  LVL=1
      00FF3F2AH   LINE      ---      ---       #222
      00FF3F2CH   LINE      ---      ---       #225
      00FF3F37H   LINE      ---      ---       #230
      REG=2       REGSYM    ---      ---       pCmdIn
      ---         BLOCKEND  CODE     ---       LVL=1
      ---         BLOCKEND  CODE     ---       LVL=0

      00FF3F40H   BLOCK     CODE     ---       LVL=0
      00FF3F40H   LINE      ---      ---       #233
      00FF3F40H   LINE      ---      ---       #236
      REG=3       REGSYM    ---      ---       pCmdAddress
      00FF3F40H   BLOCK     CODE     NEAR LAB  LVL=1
      00FF3F40H   LINE      ---      ---       #246
      00FF3F42H   LINE      ---      ---       #249
      00FF3F4DH   LINE      ---      ---       #254
      REG=2       REGSYM    ---      ---       pCmdIn
      ---         BLOCKEND  CODE     ---       LVL=1
      ---         BLOCKEND  CODE     ---       LVL=0

      00FF3F74H   BLOCK     CODE     ---       LVL=0
      00FF3F74H   LINE      ---      ---       #258
      00FF3F74H   LINE      ---      ---       #274
      00FF3F74H   LINE      ---      ---       #277
      ---         BLOCKEND  ---      ---       LVL=0

      00FF64FFH   BLOCK     CODE     ---       LVL=0
      00FF64FFH   LINE      ---      ---       #281
      00FF64FFH   LINE      ---      ---       #284
      REG=3       REGSYM    ---      ---       pCmdAddress
      00FF64FFH   BLOCK     CODE     NEAR LAB  LVL=1
      00FF64FFH   LINE      ---      ---       #295
      00FF6501H   LINE      ---      ---       #297
L251 LINKER/LOCATER V4.66.93.0                                                        02/16/2024  15:12:23  PAGE 58


      00FF650DH   LINE      ---      ---       #298
      00FF6516H   LINE      ---      ---       #301
      00FF652CH   LINE      ---      ---       #303
      REG=2       REGSYM    ---      ---       pCmdIn
      R2          REGSYM    ---      BYTE      gainTab
      ---         BLOCKEND  CODE     ---       LVL=1
      ---         BLOCKEND  CODE     ---       LVL=0

      00FF3FBAH   BLOCK     CODE     ---       LVL=0
      00FF3FBAH   LINE      ---      ---       #311
      00FF3FBAH   LINE      ---      ---       #314
      REG=3       REGSYM    ---      ---       pCmdAddress
      00FF3FBAH   BLOCK     CODE     NEAR LAB  LVL=1
      00FF3FBAH   LINE      ---      ---       #318
      00FF3FBAH   LINE      ---      ---       #321
      00FF3FC2H   LINE      ---      ---       #322
      00FF3FCAH   LINE      ---      ---       #324
      REG=3       REGSYM    ---      ---       pCmdIn
      ---         BLOCKEND  CODE     ---       LVL=1
      ---         BLOCKEND  CODE     ---       LVL=0

      00FF6536H   BLOCK     CODE     ---       LVL=0
      00FF6536H   LINE      ---      ---       #327
      00FF6536H   LINE      ---      ---       #330
      REG=3       REGSYM    ---      ---       pCmdAddress
      00FF6536H   BLOCK     CODE     NEAR LAB  LVL=1
      00FF6536H   LINE      ---      ---       #340
      00FF6538H   LINE      ---      ---       #343
      00FF6552H   LINE      ---      ---       #345
      REG=1       REGSYM    ---      ---       pCmdIn
      ---         BLOCKEND  CODE     ---       LVL=1
      ---         BLOCKEND  CODE     ---       LVL=0

      ---         MODULE    ---      ---       common_event_gen
      00FF3C60H   PUBLIC    CODE     ---       CMD_CnfEventSend
      00FF3BEEH   PUBLIC    CODE     ---       CMN_GetFwVerEventSend
      00FF3ED7H   PUBLIC    CODE     ---       CMN_SetCalibrationEnableEventSend
      00FF3CB1H   PUBLIC    CODE     ---       CMN_GetTemperatureRptEventSend
      00FF3D96H   PUBLIC    CODE     ---       CMN_GetVoltageRptEventSend

      00FF3C60H   BLOCK     CODE     ---       LVL=0
      00FF3C60H   LINE      ---      ---       #18
      00FF3C68H   LINE      ---      ---       #23
      R13         REGSYM    ---      BYTE      cmdHeader
      R14         REGSYM    ---      BYTE      cmdSubheader
      R15         REGSYM    ---      BYTE      cmdCnfStatus
      00FF3C68H   BLOCK     CODE     NEAR LAB  LVL=1
      00FF3C68H   LINE      ---      ---       #25
      00FF3C6DH   LINE      ---      ---       #26
      00FF3C70H   LINE      ---      ---       #28
      00FF3C7AH   LINE      ---      ---       #29
      00FF3C7FH   LINE      ---      ---       #30
      00FF3C85H   LINE      ---      ---       #31
      00FF3C8BH   LINE      ---      ---       #32
      00FF3C8FH   LINE      ---      ---       #33
      00FF3C93H   LINE      ---      ---       #34
      00FF3C97H   LINE      ---      ---       #40
      REG=3       REGSYM    ---      ---       pEventPayload
      R12         REGSYM    ---      BYTE      qIdx
      ---         BLOCKEND  CODE     ---       LVL=1
      00FF3CA3H   LINE      ---      ---       #41
      00FF3CA3H   LINE      CODE     ---       #41

      00FF3BEEH   BLOCK     CODE     ---       LVL=0
      00FF3BEEH   LINE      ---      ---       #44
L251 LINKER/LOCATER V4.66.93.0                                                        02/16/2024  15:12:23  PAGE 59


      00FF3BF0H   LINE      ---      ---       #45
      00FF3BF0H   BLOCK     CODE     NEAR LAB  LVL=1
      00FF3BF0H   LINE      ---      ---       #47
      00FF3BF3H   LINE      ---      ---       #50
      00FF3BFDH   LINE      ---      ---       #51
      00FF3C02H   LINE      ---      ---       #52
      00FF3C08H   LINE      ---      ---       #53
      00FF3C0EH   LINE      ---      ---       #54
      00FF3C1AH   LINE      ---      ---       #55
      00FF3C20H   LINE      ---      ---       #56
      00FF3C26H   LINE      ---      ---       #58
      00FF3C2CH   LINE      ---      ---       #62
      00FF3C38H   LINE      ---      ---       #64
      00FF3C51H   LINE      ---      ---       #66
      REG=3       REGSYM    ---      ---       pEventPayload
      R15         REGSYM    ---      BYTE      qIdx
      ---         BLOCKEND  CODE     ---       LVL=1
      00FF3C5DH   LINE      ---      ---       #67
      00FF3C5DH   LINE      CODE     ---       #67

      00FF3ED7H   BLOCK     CODE     ---       LVL=0
      00FF3ED7H   LINE      ---      ---       #70
      00FF3ED9H   LINE      ---      ---       #71
      00FF3ED9H   BLOCK     CODE     NEAR LAB  LVL=1
      00FF3ED9H   LINE      ---      ---       #73
      00FF3EDCH   LINE      ---      ---       #76
      00FF3EE6H   LINE      ---      ---       #77
      00FF3EEBH   LINE      ---      ---       #78
      00FF3EF1H   LINE      ---      ---       #79
      00FF3EF7H   LINE      ---      ---       #80
      00FF3F1BH   LINE      ---      ---       #86
      REG=3       REGSYM    ---      ---       pEventPayload
      R15         REGSYM    ---      BYTE      qIdx
      ---         BLOCKEND  CODE     ---       LVL=1
      00FF3F27H   LINE      ---      ---       #87
      00FF3F27H   LINE      CODE     ---       #87

      00FF3CB1H   BLOCK     CODE     ---       LVL=0
      00FF3CB1H   LINE      ---      ---       #90
      00FF3CB5H   LINE      ---      ---       #91
      00FF3CB5H   BLOCK     CODE     NEAR LAB  LVL=1
      00FF3CB5H   LINE      ---      ---       #93
      00FF3CBAH   LINE      ---      ---       #96
      00FF3CC4H   LINE      ---      ---       #97
      00FF3CC9H   LINE      ---      ---       #98
      00FF3CCFH   LINE      ---      ---       #99
      00FF3CD5H   LINE      ---      ---       #100
      00FF3CE2H   LINE      ---      ---       #102
      00FF3CFDH   LINE      ---      ---       #104
      REG=6       REGSYM    ---      ---       pEventPayload
      R15         REGSYM    ---      BYTE      qIdx
      ---         BLOCKEND  CODE     ---       LVL=1
      00FF3D09H   LINE      ---      ---       #106
      00FF3D09H   LINE      CODE     ---       #106

      00FF3D96H   BLOCK     CODE     ---       LVL=0
      00FF3D96H   LINE      ---      ---       #108
      00FF3D9AH   LINE      ---      ---       #109
      00FF3D9AH   BLOCK     CODE     NEAR LAB  LVL=1
      00FF3D9AH   LINE      ---      ---       #111
      00FF3D9FH   LINE      ---      ---       #114
      00FF3DA9H   LINE      ---      ---       #115
      00FF3DAEH   LINE      ---      ---       #116
      00FF3DB4H   LINE      ---      ---       #117
      00FF3DB8H   LINE      ---      ---       #118
L251 LINKER/LOCATER V4.66.93.0                                                        02/16/2024  15:12:23  PAGE 60


      00FF3DC5H   LINE      ---      ---       #120
      00FF3DE0H   LINE      ---      ---       #122
      REG=6       REGSYM    ---      ---       pEventPayload
      R15         REGSYM    ---      BYTE      qIdx
      ---         BLOCKEND  CODE     ---       LVL=1
      00FF3DECH   LINE      ---      ---       #124
      00FF3DECH   LINE      CODE     ---       #124

      ---         MODULE    ---      ---       common_feature

      ---         MODULE    ---      ---       bmu
      00FF655CH   PUBLIC    CODE     ---       BMU_MemAllocate
      00FF66D3H   PUBLIC    CODE     ---       BMU_HwReset
      00FF6760H   PUBLIC    CODE     ---       BMU_HwInit
      00FF6804H   PUBLIC    CODE     ---       BMU_FreqFlowCtrlSet

      00FF655CH   BLOCK     CODE     ---       LVL=0
      00FF655CH   LINE      ---      ---       #24
      00FF6562H   LINE      ---      ---       #27
      WR14        REGSYM    ---      INT       rxqOpMode
      00FF6562H   BLOCK     CODE     NEAR LAB  LVL=1
      00FF6562H   LINE      ---      ---       #33
      00FF6564H   LINE      ---      ---       #47
      00FF6568H   LINE      ---      ---       #48
      00FF656EH   LINE      ---      ---       #51
      00FF6576H   LINE      ---      ---       #54
      00FF657AH   LINE      ---      ---       #57
      00FF6592H   LINE      ---      ---       #72
      00FF659BH   LINE      ---      ---       #73
      00FF65A3H   LINE      ---      ---       #80
      00FF65A3H   LINE      ---      ---       #87
      00FF65AEH   LINE      ---      ---       #88
      00FF65B8H   LINE      ---      ---       #94
      00FF65BFH   LINE      ---      ---       #95
      00FF65C5H   LINE      ---      ---       #98
      00FF65CCH   LINE      ---      ---       #99
      00FF65D2H   LINE      ---      ---       #102
      00FF65D9H   LINE      ---      ---       #103
      00FF65DDH   LINE      ---      ---       #107
      00FF65E8H   LINE      ---      ---       #108
      00FF65EAH   LINE      ---      ---       #113
      00FF65EAH   LINE      ---      ---       #114
      00FF65F4H   LINE      ---      ---       #117
      00FF65FBH   LINE      ---      ---       #118
      00FF6601H   LINE      ---      ---       #121
      00FF6608H   LINE      ---      ---       #122
      00FF660EH   LINE      ---      ---       #125
      00FF6615H   LINE      ---      ---       #127
      00FF661BH   LINE      ---      ---       #131
      00FF6620H   LINE      ---      ---       #132
      00FF6623H   LINE      ---      ---       #137
      R13         REGSYM    ---      BYTE      pageIdx
      0000B581H   SYMBOL    EDATA    ---       pMemSize
      REG=3       REGSYM    ---      ---       pRegX51
      ---         BLOCKEND  CODE     ---       LVL=1
      00FF6623H   LINE      ---      ---       #138
      00FF6623H   LINE      CODE     ---       #138

      00FF6804H   BLOCK     CODE     ---       LVL=0
      00FF6804H   LINE      ---      ---       #140
      00FF6804H   LINE      ---      ---       #191
      00FF6808H   LINE      ---      ---       #193
      00FF6817H   LINE      ---      ---       #194
      00FF6822H   LINE      ---      ---       #195
      00FF6826H   LINE      ---      ---       #196
L251 LINKER/LOCATER V4.66.93.0                                                        02/16/2024  15:12:23  PAGE 61


      00FF6828H   LINE      ---      ---       #200
      00FF6837H   LINE      ---      ---       #201
      00FF6842H   LINE      ---      ---       #202
      00FF684DH   LINE      ---      ---       #203
      00FF684DH   LINE      ---      ---       #205
      WR6         REGSYM    ---      INT       rxqOpMode
      ---         BLOCKEND  ---      ---       LVL=0

      00FF66D3H   BLOCK     CODE     ---       LVL=0
      00FF66D3H   LINE      ---      ---       #210
      00FF66D5H   LINE      ---      ---       #213
      R10         REGSYM    ---      BYTE      bForcedReset
      00FF66D5H   BLOCK     CODE     NEAR LAB  LVL=1
      00FF66D5H   LINE      ---      ---       #217
      00FF66E1H   LINE      ---      ---       #220
      00FF66E5H   LINE      ---      ---       #222
      00FF66E7H   LINE      ---      ---       #223
      00FF66E7H   LINE      ---      ---       #224
      00FF66F8H   LINE      ---      ---       #225
      00FF6706H   LINE      ---      ---       #226
      00FF6710H   LINE      ---      ---       #227
      00FF6718H   LINE      ---      ---       #228
      00FF671AH   LINE      ---      ---       #229
      00FF6726H   LINE      ---      ---       #231
      00FF672CH   LINE      ---      ---       #232
      00FF672EH   LINE      ---      ---       #233
      00FF672EH   LINE      ---      ---       #236
      00FF6737H   LINE      ---      ---       #239
      00FF6739H   LINE      ---      ---       #240
      00FF6739H   LINE      ---      ---       #241
      00FF6747H   LINE      ---      ---       #242
      00FF6749H   LINE      ---      ---       #243
      00FF6755H   LINE      ---      ---       #245
      00FF675BH   LINE      ---      ---       #246
      00FF675DH   LINE      ---      ---       #248
      DR28        REGSYM    ---      DWORD     temp
      DR24        REGSYM    ---      DWORD     busyCount
      ---         BLOCKEND  CODE     ---       LVL=1
      00FF675FH   LINE      ---      ---       #249
      00FF675FH   LINE      CODE     ---       #249

      00FF6760H   BLOCK     CODE     ---       LVL=0
      00FF6760H   LINE      ---      ---       #251
      00FF6770H   LINE      ---      ---       #270
      00FF677CH   LINE      ---      ---       #273
      00FF6784H   LINE      ---      ---       #276
      00FF678AH   LINE      ---      ---       #277
      00FF678DH   LINE      ---      ---       #281
      00FF6790H   LINE      ---      ---       #285
      00FF6795H   LINE      ---      ---       #288
      00FF67B0H   LINE      ---      ---       #289
      00FF67C8H   LINE      ---      ---       #290
      00FF67CFH   LINE      ---      ---       #291
      00FF67D6H   LINE      ---      ---       #295
      00FF67E5H   LINE      ---      ---       #296
      00FF67F0H   LINE      ---      ---       #304
      00FF6801H   LINE      ---      ---       #305
      0000B5C6H   SYMBOL    EDATA    BYTE      bTxAutoClear
      0000B5C7H   SYMBOL    EDATA    BYTE      bRxAutoCommit
      R12         REGSYM    ---      BYTE      txControlInfoSize
      R13         REGSYM    ---      BYTE      rxControlInfoSize
      WR14        REGSYM    ---      INT       rxqOpMode
      ---         BLOCKEND  ---      ---       LVL=0

      ---         MODULE    ---      ---       bmu_cmd
L251 LINKER/LOCATER V4.66.93.0                                                        02/16/2024  15:12:23  PAGE 62


      00FF684EH   PUBLIC    CODE     ---       BMU_H2MCmdGet
      00FF68C6H   PUBLIC    CODE     ---       BMU_M2HCmdSet

      00FF684EH   BLOCK     CODE     ---       LVL=0
      00FF684EH   LINE      ---      ---       #23
      00FF6854H   LINE      ---      ---       #27
      REG=4       REGSYM    ---      ---       pDataAddress
      REG=7       REGSYM    ---      ---       pDataLength
      00FF6854H   BLOCK     CODE     NEAR LAB  LVL=1
      00FF6854H   LINE      ---      ---       #34
      00FF685AH   LINE      ---      ---       #37
      00FF6864H   LINE      ---      ---       #38
      00FF6867H   LINE      ---      ---       #41
      00FF6877H   LINE      ---      ---       #42
      00FF6882H   LINE      ---      ---       #47
      00FF6884H   LINE      ---      ---       #48
      00FF688BH   LINE      ---      ---       #50
      00FF6890H   LINE      ---      ---       #51
      00FF6892H   LINE      ---      ---       #52
      00FF6892H   LINE      ---      ---       #55
      00FF68ACH   LINE      ---      ---       #56
      00FF68B3H   LINE      ---      ---       #57
      00FF68B6H   LINE      ---      ---       #60
      00FF68BFH   LINE      ---      ---       #62
      WR12        REGSYM    ---      WORD      bufferLength
      WR10        REGSYM    ---      WORD      tempBufferLength
      WR4         REGSYM    ---      WORD      bufferAddress
      REG=2       REGSYM    ---      ---       pBufferAddress
      0000B5E2H   SYMBOL    EDATA    BYTE      bRetValue
      ---         BLOCKEND  CODE     ---       LVL=1
      00FF68C3H   LINE      ---      ---       #63
      00FF68C3H   LINE      CODE     ---       #63

      00FF68C6H   BLOCK     CODE     ---       LVL=0
      00FF68C6H   LINE      ---      ---       #65
      00FF68CCH   LINE      ---      ---       #69
      REG=4       REGSYM    ---      ---       pDataAddress
      WR14        REGSYM    ---      WORD      dataLength
      00FF68CCH   BLOCK     CODE     NEAR LAB  LVL=1
      00FF68CCH   LINE      ---      ---       #74
      00FF68D6H   LINE      ---      ---       #75
      00FF68D9H   LINE      ---      ---       #78
      00FF68F3H   LINE      ---      ---       #79
      00FF68F6H   LINE      ---      ---       #82
      00FF68FFH   LINE      ---      ---       #85
      00FF6917H   LINE      ---      ---       #86
      00FF691EH   LINE      ---      ---       #89
      00FF6929H   LINE      ---      ---       #90
      00FF6932H   LINE      ---      ---       #93
      00FF693EH   LINE      ---      ---       #94
      00FF6947H   LINE      ---      ---       #96
      WR4         REGSYM    ---      WORD      bufferAddress
      REG=3       REGSYM    ---      ---       pBufferAddress
      ---         BLOCKEND  CODE     ---       LVL=1
      00FF6947H   LINE      ---      ---       #97
      00FF6947H   LINE      CODE     ---       #97

      ---         MODULE    ---      ---       bmu_common
      00FF694AH   PUBLIC    CODE     ---       BMU_TrxQueueGet
      00FF6FEDH   PUBLIC    CODE     ---       BMU_TrxQueueSet
      00FF134BH   PUBLIC    HCONST   ---       bmuMemSizeHwRxq
      00FF1353H   PUBLIC    HCONST   ---       bmuMemSizeHwSwRxq
      0000B5C8H   PUBLIC    EDATA    ---       sBmuCtrlPara

      00FF694AH   BLOCK     CODE     ---       LVL=0
L251 LINKER/LOCATER V4.66.93.0                                                        02/16/2024  15:12:23  PAGE 63


      00FF694AH   LINE      ---      ---       #110
      00FF6950H   LINE      ---      ---       #116
      WR10        REGSYM    ---      WORD      length
      WR4         REGSYM    ---      WORD      offset
      WR2         REGSYM    ---      WORD      address
      REG=4       REGSYM    ---      ---       pData
      00FF6950H   BLOCK     CODE     NEAR LAB  LVL=1
      00FF6950H   LINE      ---      ---       #129
      00FF695EH   LINE      ---      ---       #130
      00FF6968H   LINE      ---      ---       #131
      00FF697EH   LINE      ---      ---       #134
      00FF6982H   LINE      ---      ---       #135
      00FF698AH   LINE      ---      ---       #136
      00FF69B1H   LINE      ---      ---       #139
      00FF69B5H   LINE      ---      ---       #140
      00FF69B9H   LINE      ---      ---       #141
      00FF69BBH   LINE      ---      ---       #144
      00FF69DFH   LINE      ---      ---       #145
      00FF69EDH   LINE      ---      ---       #146
      00FF69FFH   LINE      ---      ---       #148
      00FF6A0CH   LINE      ---      ---       #151
      00FF6A1EH   LINE      ---      ---       #152
      00FF6A22H   LINE      ---      ---       #155
      00FF6A39H   LINE      ---      ---       #158
      00FF6A3FH   LINE      ---      ---       #159
      0000B4B0H   SYMBOL    EDATA    ---       pInput
      0000B4B2H   SYMBOL    EDATA    ---       pOutput
      WR0         REGSYM    ---      WORD      startPage
      0000B4B4H   SYMBOL    EDATA    WORD      startOffset
      0000B4B6H   SYMBOL    EDATA    WORD      pageNum
      DR12        REGSYM    ---      DWORD     tempLength
      0000B4B8H   SYMBOL    EDATA    WORD      tempAddress
      0000B4BAH   SYMBOL    EDATA    WORD      loopIdx
      ---         BLOCKEND  CODE     ---       LVL=1
      00FF6A55H   LINE      ---      ---       #160
      00FF6A55H   LINE      CODE     ---       #160

      00FF6FEDH   BLOCK     CODE     ---       LVL=0
      00FF6FEDH   LINE      ---      ---       #162
      00FF6FF3H   LINE      ---      ---       #168
      WR10        REGSYM    ---      WORD      length
      WR4         REGSYM    ---      WORD      offset
      WR2         REGSYM    ---      WORD      address
      REG=4       REGSYM    ---      ---       pData
      00FF6FF3H   BLOCK     CODE     NEAR LAB  LVL=1
      00FF6FF3H   LINE      ---      ---       #181
      00FF7001H   LINE      ---      ---       #182
      00FF700BH   LINE      ---      ---       #183
      00FF7021H   LINE      ---      ---       #186
      00FF7025H   LINE      ---      ---       #187
      00FF702DH   LINE      ---      ---       #188
      00FF7054H   LINE      ---      ---       #191
      00FF7058H   LINE      ---      ---       #192
      00FF705CH   LINE      ---      ---       #193
      00FF705EH   LINE      ---      ---       #196
      00FF7082H   LINE      ---      ---       #197
      00FF7090H   LINE      ---      ---       #198
      00FF70A2H   LINE      ---      ---       #200
      00FF70AFH   LINE      ---      ---       #203
      00FF70C1H   LINE      ---      ---       #204
      00FF70C5H   LINE      ---      ---       #207
      00FF70DCH   LINE      ---      ---       #210
      00FF70E2H   LINE      ---      ---       #211
      0000B4BCH   SYMBOL    EDATA    ---       pInput
      0000B4BEH   SYMBOL    EDATA    ---       pOutput
L251 LINKER/LOCATER V4.66.93.0                                                        02/16/2024  15:12:23  PAGE 64


      0000B4C0H   SYMBOL    EDATA    WORD      tempAddress
      DR12        REGSYM    ---      DWORD     tempLength
      WR0         REGSYM    ---      WORD      startPage
      0000B4C2H   SYMBOL    EDATA    WORD      startOffset
      0000B4C4H   SYMBOL    EDATA    WORD      pageNum
      0000B4C6H   SYMBOL    EDATA    WORD      loopIdx
      ---         BLOCKEND  CODE     ---       LVL=1
      00FF70F8H   LINE      ---      ---       #212
      00FF70F8H   LINE      CODE     ---       #212

      ---         MODULE    ---      ---       bmu_rx
      00FF70FBH   PUBLIC    CODE     ---       BMU_LocalRxqStartAddGet
      00FF711DH   PUBLIC    CODE     ---       BMU_RxqStartAddGet
      00FF346BH   PUBLIC    CODE     ---       BMU_RxConfig
      00FF713FH   PUBLIC    CODE     ---       BMU_LocalRxQueueGet
      00FF6628H   PUBLIC    CODE     ---       BMU_LrxHwBufConfig
      00FF7281H   PUBLIC    CODE     ---       BMU_LrxHwBufStatusUpdate
      00FF37F0H   PUBLIC    CODE     ---       BMU_LrxHwBufSet
      00FF76C6H   PUBLIC    CODE     ---       BMU_LrxHwRxDoneBufGet
      00FF6650H   PUBLIC    CODE     ---       BMU_LrxShareQConfig
      00FF6B78H   PUBLIC    CODE     ---       BMU_LrxShareQWoGet
      00FF6BA6H   PUBLIC    CODE     ---       BMU_LrxShareQWoUpdate
      00FF76E5H   PUBLIC    CODE     ---       BMU_LrxShareQIsFull
      00FF6A58H   PUBLIC    CODE     ---       BMU_RxQueueGet
      00FF7735H   PUBLIC    CODE     ---       BMU_RxQueueSet
      0000B519H   PUBLIC    EDATA    ---       bmuLrxSwqCtrl
      0000B51EH   PUBLIC    EDATA    BYTE      bmuLrxManualCfg
      0000B51FH   PUBLIC    EDATA    ---       pBmuLrxShareQCtrl

      00FF70FBH   BLOCK     CODE     ---       LVL=0
      00FF70FBH   LINE      ---      ---       #36
      00FF70FBH   LINE      ---      ---       #38
      00FF711CH   LINE      ---      ---       #39
      ---         BLOCKEND  ---      ---       LVL=0

      00FF711DH   BLOCK     CODE     ---       LVL=0
      00FF711DH   LINE      ---      ---       #41
      00FF711DH   LINE      ---      ---       #43
      00FF713EH   LINE      ---      ---       #44
      ---         BLOCKEND  ---      ---       LVL=0

      00FF346BH   BLOCK     CODE     ---       LVL=0
      00FF346BH   LINE      ---      ---       #47
      00FF346FH   LINE      ---      ---       #50
      WR6         REGSYM    ---      INT       queueType
      00FF346FH   BLOCK     CODE     NEAR LAB  LVL=1
      00FF346FH   LINE      ---      ---       #55
      00FF3472H   LINE      ---      ---       #56
      00FF347AH   LINE      ---      ---       #58
      00FF347AH   LINE      ---      ---       #61
      00FF3486H   LINE      ---      ---       #62
      00FF3488H   LINE      ---      ---       #64
      00FF348AH   LINE      ---      ---       #65
      00FF348AH   LINE      ---      ---       #68
      00FF34A8H   LINE      ---      ---       #69
      00FF34D5H   LINE      ---      ---       #72
      00FF34D9H   LINE      ---      ---       #73
      00FF34E5H   LINE      ---      ---       #74
      00FF34E9H   LINE      ---      ---       #75
      00FF34EBH   LINE      ---      ---       #76
      00FF34EBH   LINE      ---      ---       #77
      00FF34EDH   LINE      ---      ---       #78
      00FF34EDH   LINE      ---      ---       #80
      R13         REGSYM    ---      BYTE      bRetValue
      WR14        REGSYM    ---      WORD      rxMaxLen
L251 LINKER/LOCATER V4.66.93.0                                                        02/16/2024  15:12:23  PAGE 65


      ---         BLOCKEND  CODE     ---       LVL=1
      00FF34EFH   LINE      ---      ---       #98
      00FF34EFH   LINE      CODE     ---       #98

      00FF713FH   BLOCK     CODE     ---       LVL=0
      00FF713FH   LINE      ---      ---       #100
      00FF7145H   LINE      ---      ---       #105
      WR30        REGSYM    ---      WORD      length
      WR8         REGSYM    ---      WORD      offset
      REG=14      REGSYM    ---      ---       pData
      00FF7145H   BLOCK     CODE     NEAR LAB  LVL=1
      00FF7145H   LINE      ---      ---       #112
      00FF714FH   LINE      ---      ---       #113
      00FF7151H   LINE      ---      ---       #116
      00FF715FH   LINE      ---      ---       #117
      00FF7168H   LINE      ---      ---       #120
      00FF7172H   LINE      ---      ---       #121
      00FF717AH   LINE      ---      ---       #123
      00FF717EH   LINE      ---      ---       #124
      00FF7182H   LINE      ---      ---       #126
      00FF7188H   LINE      ---      ---       #127
      00FF718AH   LINE      ---      ---       #129
      00FF718CH   LINE      ---      ---       #132
      00FF7192H   LINE      ---      ---       #133
      00FF7195H   LINE      ---      ---       #136
      00FF71AFH   LINE      ---      ---       #137
      00FF71B4H   LINE      ---      ---       #139
      WR4         REGSYM    ---      WORD      bufferLength
      WR6         REGSYM    ---      WORD      bufferAddress
      DR0         REGSYM    ---      DWORD     tempLength
      REG=2       REGSYM    ---      ---       pBufferAddress
      ---         BLOCKEND  CODE     ---       LVL=1
      00FF71B6H   LINE      ---      ---       #140
      00FF71B6H   LINE      CODE     ---       #140

      00FF6A58H   BLOCK     CODE     ---       LVL=0
      00FF6A58H   LINE      ---      ---       #180
      00FF6A5EH   LINE      ---      ---       #185
      WR30        REGSYM    ---      WORD      length
      WR8         REGSYM    ---      WORD      offset
      REG=14      REGSYM    ---      ---       pData
      00FF6A5EH   BLOCK     CODE     NEAR LAB  LVL=1
      00FF6A5EH   LINE      ---      ---       #191
      00FF6A68H   LINE      ---      ---       #192
      00FF6A6AH   LINE      ---      ---       #195
      00FF6A73H   LINE      ---      ---       #196
      00FF6A84H   LINE      ---      ---       #199
      00FF6A8EH   LINE      ---      ---       #200
      00FF6A96H   LINE      ---      ---       #202
      00FF6A9AH   LINE      ---      ---       #203
      00FF6A9EH   LINE      ---      ---       #205
      00FF6AA4H   LINE      ---      ---       #206
      00FF6AA6H   LINE      ---      ---       #208
      00FF6AA8H   LINE      ---      ---       #211
      00FF6AAEH   LINE      ---      ---       #212
      00FF6AB1H   LINE      ---      ---       #215
      00FF6AB7H   LINE      ---      ---       #217
      WR0         REGSYM    ---      WORD      bufferLength
      WR2         REGSYM    ---      WORD      bufferAddress
      DR4         REGSYM    ---      DWORD     tempLength
      ---         BLOCKEND  CODE     ---       LVL=1
      00FF6AB9H   LINE      ---      ---       #218
      00FF6AB9H   LINE      CODE     ---       #218

      00FF7735H   BLOCK     CODE     ---       LVL=0
L251 LINKER/LOCATER V4.66.93.0                                                        02/16/2024  15:12:23  PAGE 66


      00FF7735H   LINE      ---      ---       #220
      00FF773BH   LINE      ---      ---       #225
      WR8         REGSYM    ---      WORD      length
      WR30        REGSYM    ---      WORD      offset
      REG=14      REGSYM    ---      ---       pData
      00FF773BH   BLOCK     CODE     NEAR LAB  LVL=1
      00FF773BH   LINE      ---      ---       #231
      00FF7745H   LINE      ---      ---       #232
      00FF7747H   LINE      ---      ---       #235
      00FF7750H   LINE      ---      ---       #236
      00FF775EH   LINE      ---      ---       #239
      00FF7768H   LINE      ---      ---       #240
      00FF776EH   LINE      ---      ---       #241
      00FF7770H   LINE      ---      ---       #244
      00FF7774H   LINE      ---      ---       #245
      00FF7777H   LINE      ---      ---       #248
      00FF7780H   LINE      ---      ---       #250
      WR6         REGSYM    ---      WORD      bufferLength
      WR2         REGSYM    ---      WORD      bufferAddress
      DR24        REGSYM    ---      DWORD     tempLength
      ---         BLOCKEND  CODE     ---       LVL=1
      00FF7782H   LINE      ---      ---       #251
      00FF7782H   LINE      CODE     ---       #251

      00FF6628H   BLOCK     CODE     ---       LVL=0
      00FF6628H   LINE      ---      ---       #255
      00FF662EH   LINE      ---      ---       #262
      00FF6632H   LINE      ---      ---       #263
      00FF6636H   LINE      ---      ---       #264
      00FF663BH   LINE      ---      ---       #269
      00FF6645H   LINE      ---      ---       #270
      00FF664DH   LINE      ---      ---       #273
      00FF664FH   LINE      ---      ---       #274
      R7          REGSYM    ---      BYTE      hwPageIdx
      R10         REGSYM    ---      BYTE      hwPageSize
      R3          REGSYM    ---      BYTE      lrxTotalPageSize
      ---         BLOCKEND  ---      ---       LVL=0

      00FF7281H   BLOCK     CODE     ---       LVL=0
      00FF7281H   LINE      ---      ---       #276
      00FF7281H   LINE      ---      ---       #283
      ---         BLOCKEND  ---      ---       LVL=0

      00FF37F0H   BLOCK     CODE     ---       LVL=0
      00FF37F0H   LINE      ---      ---       #285
      00FF37F0H   LINE      ---      ---       #297
      00FF37FBH   LINE      ---      ---       #299
      ---         BLOCKEND  ---      ---       LVL=0

      00FF76C6H   BLOCK     CODE     ---       LVL=0
      00FF76C6H   LINE      ---      ---       #301
      00FF76C6H   LINE      ---      ---       #304
      00FF76C6H   BLOCK     CODE     NEAR LAB  LVL=1
      00FF76C6H   LINE      ---      ---       #310
      00FF76CCH   LINE      ---      ---       #313
      WR4         REGSYM    ---      WORD      prevHwWritePageIdx
      ---         BLOCKEND  CODE     ---       LVL=1
      00FF76E4H   LINE      ---      ---       #314
      00FF76E4H   LINE      CODE     ---       #314

      00FF6650H   BLOCK     CODE     ---       LVL=0
      00FF6650H   LINE      ---      ---       #317
      00FF6650H   LINE      ---      ---       #321
      00FF6656H   LINE      ---      ---       #323
      00FF6659H   LINE      ---      ---       #324
L251 LINKER/LOCATER V4.66.93.0                                                        02/16/2024  15:12:23  PAGE 67


      00FF6659H   LINE      ---      ---       #326
      00FF6665H   LINE      ---      ---       #328
      00FF6670H   LINE      ---      ---       #329
      00FF6679H   LINE      ---      ---       #330
      00FF6681H   LINE      ---      ---       #331
      00FF6688H   LINE      ---      ---       #333
      00FF66B5H   LINE      ---      ---       #336
      00FF66D0H   LINE      ---      ---       #338
      00FF66D2H   LINE      ---      ---       #339
      ---         BLOCKEND  ---      ---       LVL=0

      00FF6B78H   BLOCK     CODE     ---       LVL=0
      00FF6B78H   LINE      ---      ---       #342
      00FF6B78H   LINE      ---      ---       #345
      00FF6B78H   BLOCK     CODE     NEAR LAB  LVL=1
      00FF6B78H   LINE      ---      ---       #350
      00FF6BA5H   LINE      ---      ---       #352
      REG=3       REGSYM    ---      ---       woAddr
      ---         BLOCKEND  CODE     ---       LVL=1
      00FF6BA5H   LINE      ---      ---       #353
      00FF6BA5H   LINE      CODE     ---       #353

      00FF6BA6H   BLOCK     CODE     ---       LVL=0
      00FF6BA6H   LINE      ---      ---       #356
      00FF6BA6H   LINE      ---      ---       #360
      00FF6BABH   LINE      ---      ---       #362
      00FF6BABH   LINE      ---      ---       #363
      00FF6BABH   LINE      ---      ---       #365
      00FF6BC0H   LINE      ---      ---       #366
      ---         BLOCKEND  ---      ---       LVL=0

      00FF76E5H   BLOCK     CODE     ---       LVL=0
      00FF76E5H   LINE      ---      ---       #370
      00FF76E5H   LINE      ---      ---       #373
      00FF76E5H   BLOCK     CODE     NEAR LAB  LVL=1
      00FF76E5H   LINE      ---      ---       #374
      00FF7706H   LINE      ---      ---       #377
      00FF7706H   LINE      ---      ---       #379
      00FF7711H   LINE      ---      ---       #381
      00FF7720H   LINE      ---      ---       #383
      00FF7720H   LINE      ---      ---       #384
      00FF7720H   LINE      ---      ---       #388
      0000B5CAH   SYMBOL    EDATA    BYTE      nextWo
      0000B5CBH   SYMBOL    EDATA    BYTE      currRo
      ---         BLOCKEND  CODE     ---       LVL=1
      00FF7734H   LINE      ---      ---       #389
      00FF7734H   LINE      CODE     ---       #389

      ---         MODULE    ---      ---       bmu_tx
      00FF7783H   PUBLIC    CODE     ---       BMU_LocalTxqStartAddGet
      00FF77A5H   PUBLIC    CODE     ---       BMU_TxqStartAddGet
      00FF77C8H   PUBLIC    CODE     ---       BMU_TxqStatusUpd
      00FF77DFH   PUBLIC    CODE     ---       BMU_TxqStatusRecovery
      00FF7803H   PUBLIC    CODE     ---       BMU_TxqPktSearch
      00FF783BH   PUBLIC    CODE     ---       BMU_TxPktLengthGet
      00FF59B2H   PUBLIC    CODE     ---       BMU_TxConfig
      00FF78D4H   PUBLIC    CODE     ---       BMU_LocalTxQueueGet
      00FF790EH   PUBLIC    CODE     ---       BMU_LocalTxQueueSet
      00FF58BEH   PUBLIC    CODE     ---       BMU_TxQueueGet
      00FF5928H   PUBLIC    CODE     ---       BMU_TxQueueClear

      00FF7783H   BLOCK     CODE     ---       LVL=0
      00FF7783H   LINE      ---      ---       #27
      00FF7783H   LINE      ---      ---       #29
      00FF77A4H   LINE      ---      ---       #30
L251 LINKER/LOCATER V4.66.93.0                                                        02/16/2024  15:12:23  PAGE 68


      ---         BLOCKEND  ---      ---       LVL=0

      00FF77A5H   BLOCK     CODE     ---       LVL=0
      00FF77A5H   LINE      ---      ---       #32
      00FF77A5H   LINE      ---      ---       #36
      00FF77C7H   LINE      ---      ---       #37
      R7          REGSYM    ---      BYTE      dataQueueId
      ---         BLOCKEND  ---      ---       LVL=0

      00FF77C8H   BLOCK     CODE     ---       LVL=0
      00FF77C8H   LINE      ---      ---       #39
      00FF77C8H   LINE      ---      ---       #41
      00FF77D3H   LINE      ---      ---       #42
      00FF77DEH   LINE      ---      ---       #43
      ---         BLOCKEND  ---      ---       LVL=0

      00FF77DFH   BLOCK     CODE     ---       LVL=0
      00FF77DFH   LINE      ---      ---       #45
      00FF77E3H   LINE      ---      ---       #49
      00FF77EBH   LINE      ---      ---       #50
      00FF7800H   LINE      ---      ---       #51
      R15         REGSYM    ---      BYTE      txQueueId
      ---         BLOCKEND  ---      ---       LVL=0

      00FF7803H   BLOCK     CODE     ---       LVL=0
      00FF7803H   LINE      ---      ---       #53
      00FF7807H   LINE      ---      ---       #57
      REG=0       REGSYM    ---      ---       pPktNum
      REG=1       REGSYM    ---      ---       pQList
      00FF7807H   BLOCK     CODE     NEAR LAB  LVL=1
      00FF7807H   LINE      ---      ---       #62
      00FF780EH   LINE      ---      ---       #63
      00FF7814H   LINE      ---      ---       #64
      00FF7818H   LINE      ---      ---       #65
      00FF781AH   LINE      ---      ---       #67
      00FF781FH   LINE      ---      ---       #69
      00FF7826H   LINE      ---      ---       #70
      00FF7829H   LINE      ---      ---       #71
      00FF782BH   LINE      ---      ---       #72
      00FF782BH   LINE      ---      ---       #73
      00FF782DH   LINE      ---      ---       #75
      00FF782FH   LINE      ---      ---       #76
      00FF782FH   LINE      ---      ---       #77
      00FF7836H   LINE      ---      ---       #80
      R10         REGSYM    ---      BYTE      rTxqEmpty
      R7          REGSYM    ---      BYTE      rTxqDiff
      R6          REGSYM    ---      BYTE      idx
      ---         BLOCKEND  CODE     ---       LVL=1
      00FF783AH   LINE      ---      ---       #81
      00FF783AH   LINE      CODE     ---       #81

      00FF783BH   BLOCK     CODE     ---       LVL=0
      00FF783BH   LINE      ---      ---       #83
      00FF7843H   LINE      ---      ---       #126
      00FF7856H   LINE      ---      ---       #127
      00FF7859H   LINE      ---      ---       #130
      00FF786CH   LINE      ---      ---       #131
      00FF7882H   LINE      ---      ---       #134
      00FF78A0H   LINE      ---      ---       #135
      00FF78A2H   LINE      ---      ---       #136
      00FF78B7H   LINE      ---      ---       #137
      00FF78BEH   LINE      ---      ---       #139
      00FF78CFH   LINE      ---      ---       #143
      00FF78D1H   LINE      ---      ---       #144
      R10         REGSYM    ---      BYTE      queueId
L251 LINKER/LOCATER V4.66.93.0                                                        02/16/2024  15:12:23  PAGE 69


      R15         REGSYM    ---      BYTE      pktId
      REG=4       REGSYM    ---      ---       pPktLength
      ---         BLOCKEND  ---      ---       LVL=0

      00FF59ABH   BLOCK     CODE     ---       LVL=0
      00FF59B2H   LINE      ---      ---       #147
      00FF59B6H   LINE      ---      ---       #154
      00FF59C0H   LINE      ---      ---       #157
      00FF59C0H   LINE      ---      ---       #159
      00FF59C5H   LINE      ---      ---       #160
      00FF59C7H   LINE      ---      ---       #163
      00FF59DAH   LINE      ---      ---       #164
      00FF59DCH   LINE      ---      ---       #167
      00FF59F0H   LINE      ---      ---       #169
      00FF5A07H   LINE      ---      ---       #175
      00FF5A13H   LINE      ---      ---       #177
      00FF5A22H   LINE      ---      ---       #179
      00FF5A2CH   LINE      ---      ---       #183
      00FF5A2CH   LINE      ---      ---       #187
      00FF5A30H   LINE      ---      ---       #189
      00FF5A32H   LINE      ---      ---       #192
      00FF5A32H   LINE      ---      ---       #195
      00FF5A3EH   LINE      ---      ---       #197
      00FF5A40H   LINE      ---      ---       #199
      00FF5A40H   LINE      ---      ---       #200
      00FF5A42H   LINE      ---      ---       #201
      00FF5A42H   LINE      ---      ---       #212
      00FF5A44H   LINE      ---      ---       #213
      00FF59ABH   SYMBOL    CODE     NEAR LAB  ?L?COM0028
      WR6         REGSYM    ---      INT       queueType
      R10         REGSYM    ---      BYTE      queueId
      R9          REGSYM    ---      BYTE      pktId
      ---         BLOCKEND  ---      ---       LVL=0

      00FF78D4H   BLOCK     CODE     ---       LVL=0
      00FF78D4H   LINE      ---      ---       #216
      00FF78DAH   LINE      ---      ---       #221
      WR10        REGSYM    ---      WORD      length
      WR2         REGSYM    ---      WORD      offset
      REG=4       REGSYM    ---      ---       pData
      00FF78DAH   BLOCK     CODE     NEAR LAB  LVL=1
      00FF78DAH   LINE      ---      ---       #226
      00FF78DEH   LINE      ---      ---       #227
      00FF78E1H   LINE      ---      ---       #230
      00FF78EAH   LINE      ---      ---       #233
      00FF7904H   LINE      ---      ---       #234
      00FF790BH   LINE      ---      ---       #236
      WR6         REGSYM    ---      WORD      bufferAddress
      REG=2       REGSYM    ---      ---       pBufferAddress
      ---         BLOCKEND  CODE     ---       LVL=1
      00FF790DH   LINE      ---      ---       #237
      00FF790DH   LINE      CODE     ---       #237

      00FF790EH   BLOCK     CODE     ---       LVL=0
      00FF790EH   LINE      ---      ---       #240
      00FF7914H   LINE      ---      ---       #246
      WR8         REGSYM    ---      WORD      length
      WR30        REGSYM    ---      WORD      offset
      REG=14      REGSYM    ---      ---       pData
      R11         REGSYM    ---      BYTE      bTxqInit
      00FF7914H   BLOCK     CODE     NEAR LAB  LVL=1
      00FF7914H   LINE      ---      ---       #252
      00FF7918H   LINE      ---      ---       #253
      00FF791BH   LINE      ---      ---       #256
      00FF7925H   LINE      ---      ---       #257
L251 LINKER/LOCATER V4.66.93.0                                                        02/16/2024  15:12:23  PAGE 70


      00FF7927H   LINE      ---      ---       #259
      00FF7943H   LINE      ---      ---       #260
      00FF7945H   LINE      ---      ---       #263
      00FF7954H   LINE      ---      ---       #264
      00FF7956H   LINE      ---      ---       #265
      00FF796AH   LINE      ---      ---       #266
      00FF796CH   LINE      ---      ---       #269
      00FF7975H   LINE      ---      ---       #272
      00FF798FH   LINE      ---      ---       #273
      00FF7996H   LINE      ---      ---       #275
      WR4         REGSYM    ---      WORD      bufferAddress
      DR0         REGSYM    ---      DWORD     tempLength
      REG=3       REGSYM    ---      ---       pBufferAddress
      ---         BLOCKEND  CODE     ---       LVL=1
      00FF7998H   LINE      ---      ---       #276
      00FF7998H   LINE      CODE     ---       #276

      00FF58BEH   BLOCK     CODE     ---       LVL=0
      00FF58BEH   LINE      ---      ---       #279
      00FF58C6H   LINE      ---      ---       #285
      R10         REGSYM    ---      BYTE      queueId
      WR8         REGSYM    ---      WORD      length
      WR28        REGSYM    ---      WORD      offset
      REG=15      REGSYM    ---      ---       pData
      00FF58C6H   BLOCK     CODE     NEAR LAB  LVL=1
      00FF58C6H   LINE      ---      ---       #289
      00FF58CBH   LINE      ---      ---       #290
      00FF58CDH   LINE      ---      ---       #293
      00FF58E0H   LINE      ---      ---       #294
      00FF58E2H   LINE      ---      ---       #297
      00FF58E6H   LINE      ---      ---       #298
      00FF58E9H   LINE      ---      ---       #302
      00FF58FDH   LINE      ---      ---       #303
      00FF5905H   LINE      ---      ---       #304
      00FF590EH   LINE      ---      ---       #310
      00FF5917H   LINE      ---      ---       #312
      WR2         REGSYM    ---      WORD      bufferAddress
      ---         BLOCKEND  CODE     ---       LVL=1
      00FF5919H   LINE      ---      ---       #313
      00FF5919H   LINE      CODE     ---       #313

      00FF5928H   BLOCK     CODE     ---       LVL=0
      00FF5928H   LINE      ---      ---       #353
      00FF592CH   LINE      ---      ---       #359
      00FF593FH   LINE      ---      ---       #360
      00FF5941H   LINE      ---      ---       #362
      00FF5974H   LINE      ---      ---       #364
      00FF5977H   LINE      ---      ---       #367
      00FF598AH   LINE      ---      ---       #369
      00FF599FH   LINE      ---      ---       #373
      00FF59A8H   LINE      ---      ---       #375
      00FF59AAH   LINE      ---      ---       #376
      R9          REGSYM    ---      BYTE      queueId
      R10         REGSYM    ---      BYTE      pktId
      ---         BLOCKEND  ---      ---       LVL=0

      ---         MODULE    ---      ---       bmu_ble
      00FF7FF9H   PUBLIC    CODE     ---       BMU_PrivacyIrkClr
      00FF806AH   PUBLIC    CODE     ---       BMU_PrivacyIrkSet
      00FF816AH   PUBLIC    CODE     ---       BMU_PrivacyIrkGet
      00FF80A3H   PUBLIC    CODE     ---       BMU_PrivacyLocalRpaGen
      00FF819FH   PUBLIC    CODE     ---       BMU_PrivacyIrkFullSearch
      00FF8131H   PUBLIC    CODE     ---       BMU_PrivacyIrkSingleSearch

      00FF806AH   BLOCK     CODE     ---       LVL=0
L251 LINKER/LOCATER V4.66.93.0                                                        02/16/2024  15:12:23  PAGE 71


      00FF806AH   LINE      ---      ---       #25
      00FF806CH   LINE      ---      ---       #31
      R3          REGSYM    ---      BYTE      idx
      REG=4       REGSYM    ---      ---       pIrk
      ---         BLOCKEND  ---      ---       LVL=0

      00FF816AH   BLOCK     CODE     ---       LVL=0
      00FF816AH   LINE      ---      ---       #34
      00FF816AH   LINE      ---      ---       #40
      R1          REGSYM    ---      BYTE      idx
      REG=3       REGSYM    ---      ---       pIrk
      ---         BLOCKEND  ---      ---       LVL=0

      00FF7FF9H   BLOCK     CODE     ---       LVL=0
      00FF7FF9H   LINE      ---      ---       #44
      00FF7FFBH   LINE      ---      ---       #49
      00FF7FFDH   LINE      ---      ---       #52
      00FF8032H   LINE      ---      ---       #53
      00FF8034H   LINE      ---      ---       #57
      R11         REGSYM    ---      BYTE      bClrAll
      R10         REGSYM    ---      BYTE      idx
      ---         BLOCKEND  ---      ---       LVL=0

      00FF80A3H   BLOCK     CODE     ---       LVL=0
      00FF80A3H   LINE      ---      ---       #61
      00FF80ADH   LINE      ---      ---       #67
      0000B5E3H   SYMBOL    EDATA    BYTE      idx
      REG=3       REGSYM    ---      ---       pIrk
      REG=6       REGSYM    ---      ---       pPrand
      REG=7       REGSYM    ---      ---       pHash
      00FF80ADH   BLOCK     CODE     NEAR LAB  LVL=1
      00FF80ADH   LINE      ---      ---       #71
      00FF80AFH   LINE      ---      ---       #74
      00FF80CAH   LINE      ---      ---       #75
      00FF80E0H   LINE      ---      ---       #78
      00FF80E9H   LINE      ---      ---       #81
      00FF8104H   LINE      ---      ---       #84
      00FF810CH   LINE      ---      ---       #87
      00FF8116H   LINE      ---      ---       #90
      00FF8121H   LINE      ---      ---       #91
      00FF8124H   LINE      ---      ---       #92
      00FF812AH   LINE      ---      ---       #93
      DR4         REGSYM    ---      DWORD     regTemp
      ---         BLOCKEND  CODE     ---       LVL=1
      00FF812EH   LINE      ---      ---       #94
      00FF812EH   LINE      CODE     ---       #94

      00FF819FH   BLOCK     CODE     ---       LVL=0
      00FF819FH   LINE      ---      ---       #96
      00FF81A7H   LINE      ---      ---       #101
      REG=2       REGSYM    ---      ---       pHash
      REG=7       REGSYM    ---      ---       pPrand
      REG=6       REGSYM    ---      ---       pResult
      00FF81A7H   BLOCK     CODE     NEAR LAB  LVL=1
      00FF81A7H   LINE      ---      ---       #105
      00FF81B2H   LINE      ---      ---       #108
      00FF81CDH   LINE      ---      ---       #109
      00FF81E3H   LINE      ---      ---       #112
      00FF81EFH   LINE      ---      ---       #115
      00FF81F7H   LINE      ---      ---       #118
      00FF81FFH   LINE      ---      ---       #121
      00FF8209H   LINE      ---      ---       #124
      00FF8213H   LINE      ---      ---       #126
      00FF8219H   LINE      ---      ---       #127
      00FF821DH   LINE      ---      ---       #128
L251 LINKER/LOCATER V4.66.93.0                                                        02/16/2024  15:12:23  PAGE 72


      00FF821DH   LINE      ---      ---       #129
      DR4         REGSYM    ---      DWORD     regTemp
      ---         BLOCKEND  CODE     ---       LVL=1
      00FF821EH   LINE      ---      ---       #130
      00FF821EH   LINE      CODE     ---       #130

      00FF8131H   BLOCK     CODE     ---       LVL=0
      00FF8131H   LINE      ---      ---       #132
      00FF8139H   LINE      ---      ---       #138
      R11         REGSYM    ---      BYTE      idx
      REG=0       REGSYM    ---      ---       pIrk
      REG=1       REGSYM    ---      ---       pPrand
      REG=7       REGSYM    ---      ---       pHash
      00FF8139H   BLOCK     CODE     NEAR LAB  LVL=1
      00FF8139H   LINE      ---      ---       #139
      00FF813FH   LINE      ---      ---       #142
      00FF8149H   LINE      ---      ---       #145
      00FF815EH   LINE      ---      ---       #146
      00FF8162H   LINE      ---      ---       #147
      00FF8165H   LINE      ---      ---       #148
      0000B585H   SYMBOL    EDATA    DWORD     regTemp
      ---         BLOCKEND  CODE     ---       LVL=1
      00FF8167H   LINE      ---      ---       #149
      00FF8167H   LINE      CODE     ---       #149

      ---         MODULE    ---      ---       mac
      00FF2764H   PUBLIC    CODE     ---       mac_FunEventQAdd?_
      00FF25C5H   PUBLIC    CODE     ---       mac_IntEventQAdd?_
      00FF249EH   PUBLIC    CODE     ---       mac_FunEventQGet?_
      00FF27F5H   PUBLIC    CODE     ---       mac_IntEventQGet?_
      00FF3777H   PUBLIC    CODE     ---       MAC_SleepCheck
      00FF7FDCH   PUBLIC    CODE     ---       Mac_TimeoutHdlr
      00FF1431H   PUBLIC    CODE     ---       mac_Init
      00FF5E77H   PUBLIC    CODE     ---       mac_CheckRxBusy
      00FF5F7FH   PUBLIC    CODE     ---       mac_CheckIsrRxReceived
      00FF2891H   PUBLIC    CODE     ---       mac_FatalClear
      00FF8221H   PUBLIC    CODE     ---       mac
      00FF3F93H   PUBLIC    CODE     ---       mac_IntEventQueueHandler
      00FF827FH   PUBLIC    CODE     ---       mac_CheckBmuErr
      00FF2579H   PUBLIC    CODE     ---       mac_IntEventQueueClearTxData
      00FF17F0H   PUBLIC    CODE     ---       mac_FunEventQInit
      00FF82B3H   PUBLIC    CODE     ---       mac_IntEventQInit
      00FF3FA9H   PUBLIC    CODE     ---       pciQueueGetandMacIntQueueAdd
      00FF2DB0H   PUBLIC    CODE     ---       mac_FunEventQueueExist
      00FF82BFH   PUBLIC    CODE     ---       mac_TrxPar_Init
      00FF84B6H   PUBLIC    CODE     ---       mac_IntEventQueueExist
      0000B27FH   PUBLIC    EDATA    ---       gMacFunCtrl
      0000B280H   PUBLIC    EDATA    ---       gMacFunEventQ
      0000B29AH   PUBLIC    EDATA    ---       gMacIntEventQ
      000000A8H.7 SFRSYM    DATA     BIT       EA
      00000080H   SFRSYM    DATA     BYTE      P0

      00FF2760H   BLOCK     CODE     ---       LVL=0
      00FF2764H   LINE      ---      ---       #96
      00FF2766H   LINE      ---      ---       #99
      00FF276AH   LINE      ---      ---       #100
      00FF276AH   LINE      ---      ---       #102
      00FF276CH   LINE      ---      ---       #105
      00FF277DH   LINE      ---      ---       #107
      00FF2781H   LINE      ---      ---       #110
      00FF278DH   LINE      ---      ---       #112
      00FF2792H   LINE      ---      ---       #113
      00FF2794H   LINE      ---      ---       #119
      00FF2797H   LINE      ---      ---       #121
      00FF2799H   LINE      ---      ---       #122
L251 LINKER/LOCATER V4.66.93.0                                                        02/16/2024  15:12:23  PAGE 73


      00FF2799H   LINE      ---      ---       #124
      00FF279BH   LINE      ---      ---       #125
      00FF2760H   SYMBOL    CODE     NEAR LAB  ?L?COM0049
      WR4         REGSYM    ---      WORD      state
      ---         BLOCKEND  ---      ---       LVL=0

      00FF249EH   BLOCK     CODE     ---       LVL=0
      00FF249EH   LINE      ---      ---       #134
      00FF249EH   LINE      ---      ---       #135
      00FF249EH   BLOCK     CODE     NEAR LAB  LVL=1
      00FF249EH   LINE      ---      ---       #139
      00FF24A0H   LINE      ---      ---       #141
      00FF24ADH   LINE      ---      ---       #143
      00FF24B1H   LINE      ---      ---       #146
      00FF24B7H   LINE      ---      ---       #149
      00FF24C3H   LINE      ---      ---       #151
      00FF24C8H   LINE      ---      ---       #152
      00FF24C8H   LINE      ---      ---       #155
      00FF24CAH   LINE      ---      ---       #157
      WR6         REGSYM    ---      WORD      ret
      ---         BLOCKEND  CODE     ---       LVL=1
      00FF24CAH   LINE      ---      ---       #158
      00FF24CAH   LINE      CODE     ---       #158

      00FF17F0H   BLOCK     CODE     ---       LVL=0
      00FF17F0H   LINE      ---      ---       #167
      00FF17F0H   LINE      ---      ---       #169
      ---         BLOCKEND  ---      ---       LVL=0

      00FF25C1H   BLOCK     CODE     ---       LVL=0
      00FF25C5H   LINE      ---      ---       #179
      00FF25C7H   LINE      ---      ---       #182
      00FF25CBH   LINE      ---      ---       #183
      00FF25CBH   LINE      ---      ---       #187
      00FF25CDH   LINE      ---      ---       #191
      00FF25DEH   LINE      ---      ---       #193
      00FF25E2H   LINE      ---      ---       #196
      00FF25EEH   LINE      ---      ---       #198
      00FF25F3H   LINE      ---      ---       #199
      00FF25F5H   LINE      ---      ---       #205
      00FF25F8H   LINE      ---      ---       #206
      00FF25FAH   LINE      ---      ---       #207
      00FF25FAH   LINE      ---      ---       #210
      00FF25FCH   LINE      ---      ---       #212
      00FF25C1H   SYMBOL    CODE     NEAR LAB  ?L?COM0048
      WR4         REGSYM    ---      WORD      state
      ---         BLOCKEND  ---      ---       LVL=0

      00FF27F5H   BLOCK     CODE     ---       LVL=0
      00FF27F5H   LINE      ---      ---       #223
      00FF27F5H   LINE      ---      ---       #224
      00FF27F5H   BLOCK     CODE     NEAR LAB  LVL=1
      00FF27F5H   LINE      ---      ---       #228
      00FF27F7H   LINE      ---      ---       #230
      00FF2804H   LINE      ---      ---       #232
      00FF2808H   LINE      ---      ---       #235
      00FF280EH   LINE      ---      ---       #238
      00FF281AH   LINE      ---      ---       #240
      00FF281FH   LINE      ---      ---       #241
      00FF281FH   LINE      ---      ---       #244
      00FF2821H   LINE      ---      ---       #246
      WR6         REGSYM    ---      WORD      ret
      ---         BLOCKEND  CODE     ---       LVL=1
      00FF2821H   LINE      ---      ---       #247
      00FF2821H   LINE      CODE     ---       #247
L251 LINKER/LOCATER V4.66.93.0                                                        02/16/2024  15:12:23  PAGE 74



      00FF82B3H   BLOCK     CODE     ---       LVL=0
      00FF82B3H   LINE      ---      ---       #256
      00FF82B3H   LINE      ---      ---       #258
      ---         BLOCKEND  ---      ---       LVL=0

      00FF3FA9H   BLOCK     CODE     ---       LVL=0
      00FF3FA9H   LINE      ---      ---       #262
      00FF3FA9H   LINE      ---      ---       #263
      00FF3FA9H   BLOCK     CODE     NEAR LAB  LVL=1
      00FF3FA9H   LINE      ---      ---       #264
      00FF3FADH   LINE      ---      ---       #265
      00FF3FB2H   LINE      ---      ---       #267
      00FF3FB9H   LINE      ---      ---       #268
      R7          REGSYM    ---      BYTE      pciQueueNum
      ---         BLOCKEND  CODE     ---       LVL=1
      ---         BLOCKEND  CODE     ---       LVL=0

      00FF2DB0H   BLOCK     CODE     ---       LVL=0
      00FF2DB0H   LINE      ---      ---       #273
      00FF2DB0H   LINE      ---      ---       #275
      00FF2DBEH   LINE      ---      ---       #276
      ---         BLOCKEND  ---      ---       LVL=0

      00FF3F93H   BLOCK     CODE     ---       LVL=0
      00FF3F93H   LINE      ---      ---       #278
      00FF3F93H   LINE      ---      ---       #279
      00FF3F93H   BLOCK     CODE     NEAR LAB  LVL=1
      00FF3F93H   LINE      ---      ---       #283
      00FF3F95H   LINE      ---      ---       #289
      00FF3F98H   LINE      ---      ---       #293
      00FF3F9BH   LINE      ---      ---       #294
      00FF3FA3H   LINE      ---      ---       #297
      00FF3FA3H   LINE      ---      ---       #298
      00FF3FA5H   LINE      ---      ---       #299
      00FF3FA5H   LINE      ---      ---       #302
      00FF3FA5H   LINE      ---      ---       #307
      00FF3FA8H   LINE      ---      ---       #312
      00FF3FA8H   LINE      ---      ---       #314
      WR6         REGSYM    ---      WORD      macIntEventQueue
      ---         BLOCKEND  CODE     ---       LVL=1
      00FF3FA8H   LINE      ---      ---       #316
      00FF3FA8H   LINE      CODE     ---       #316

      00FF82BFH   BLOCK     CODE     ---       LVL=0
      00FF82BFH   LINE      ---      ---       #318
      00FF82BFH   LINE      ---      ---       #319
      00FF82BFH   BLOCK     CODE     NEAR LAB  LVL=1
      00FF82BFH   LINE      ---      ---       #321
      00FF82C4H   LINE      ---      ---       #322
      00FF82CDH   LINE      ---      ---       #325
      00FF82EBH   LINE      ---      ---       #326
      00FF82F6H   LINE      ---      ---       #330
      00FF82FEH   LINE      ---      ---       #331
      00FF8304H   LINE      ---      ---       #332
      00FF830AH   LINE      ---      ---       #333
      00FF8310H   LINE      ---      ---       #334
      00FF8316H   LINE      ---      ---       #335
      00FF831EH   LINE      ---      ---       #336
      00FF8326H   LINE      ---      ---       #337
      00FF832EH   LINE      ---      ---       #339
      00FF8332H   LINE      ---      ---       #342
      00FF8337H   LINE      ---      ---       #343
      00FF833BH   LINE      ---      ---       #344
      00FF8341H   LINE      ---      ---       #353
L251 LINKER/LOCATER V4.66.93.0                                                        02/16/2024  15:12:23  PAGE 75


      00FF8345H   LINE      ---      ---       #354
      00FF8349H   LINE      ---      ---       #355
      00FF834DH   LINE      ---      ---       #356
      00FF834FH   LINE      ---      ---       #358
      00FF8360H   LINE      ---      ---       #359
      00FF8370H   LINE      ---      ---       #360
      00FF8380H   LINE      ---      ---       #361
      00FF8391H   LINE      ---      ---       #362
      00FF839DH   LINE      ---      ---       #363
      00FF83AFH   LINE      ---      ---       #366
      00FF83B7H   LINE      ---      ---       #367
      00FF83BDH   LINE      ---      ---       #368
      00FF83C3H   LINE      ---      ---       #369
      00FF83C7H   LINE      ---      ---       #371
      00FF83CCH   LINE      ---      ---       #372
      00FF83D0H   LINE      ---      ---       #373
      00FF83D6H   LINE      ---      ---       #375
      00FF83DEH   LINE      ---      ---       #377
      00FF83F1H   LINE      ---      ---       #380
      00FF83F1H   LINE      ---      ---       #381
      00FF83F7H   LINE      ---      ---       #382
      00FF83FCH   LINE      ---      ---       #383
      00FF8400H   LINE      ---      ---       #384
      00FF8400H   LINE      ---      ---       #385
      00FF8400H   LINE      ---      ---       #386
      00FF8400H   LINE      ---      ---       #387
      00FF8400H   LINE      ---      ---       #388
      00FF8402H   LINE      ---      ---       #392
      00FF8402H   LINE      ---      ---       #393
      00FF840AH   LINE      ---      ---       #394
      00FF8410H   LINE      ---      ---       #395
      00FF8418H   LINE      ---      ---       #396
      00FF841CH   LINE      ---      ---       #397
      00FF842CH   LINE      ---      ---       #398
      00FF843EH   LINE      ---      ---       #399
      00FF844CH   LINE      ---      ---       #400
      00FF844EH   LINE      ---      ---       #404
      00FF844EH   LINE      ---      ---       #405
      00FF8456H   LINE      ---      ---       #406
      00FF845CH   LINE      ---      ---       #407
      00FF8468H   LINE      ---      ---       #408
      00FF846CH   LINE      ---      ---       #409
      00FF847CH   LINE      ---      ---       #410
      00FF848EH   LINE      ---      ---       #411
      00FF8498H   LINE      ---      ---       #412
      00FF8498H   LINE      ---      ---       #427
      00FF8498H   LINE      ---      ---       #428
      00FF849EH   LINE      ---      ---       #433
      00FF84A3H   LINE      ---      ---       #437
      00FF84A7H   LINE      ---      ---       #438
      00FF84ABH   LINE      ---      ---       #439
      00FF84AFH   LINE      ---      ---       #442
      0000B5E4H   SYMBOL    EDATA    BYTE      i
      WR4         REGSYM    ---      WORD      bufferAddress_LOCAL
      REG=3       REGSYM    ---      ---       pOutput
      ---         BLOCKEND  CODE     ---       LVL=1
      00FF84B5H   LINE      ---      ---       #449
      00FF84B5H   LINE      CODE     ---       #449

      00FF7FDCH   BLOCK     CODE     ---       LVL=0
      00FF7FDCH   LINE      ---      ---       #452
      00FF7FDCH   LINE      ---      ---       #455
      00FF7FE3H   LINE      ---      ---       #456
      00FF7FE5H   LINE      ---      ---       #457
      ---         BLOCKEND  ---      ---       LVL=0
L251 LINKER/LOCATER V4.66.93.0                                                        02/16/2024  15:12:23  PAGE 76



      00FF1431H   BLOCK     CODE     ---       LVL=0
      00FF1431H   LINE      ---      ---       #459
      00FF1431H   LINE      ---      ---       #463
      00FF1439H   LINE      ---      ---       #467
      00FF143CH   LINE      ---      ---       #471
      00FF143EH   LINE      ---      ---       #475
      00FF1440H   LINE      ---      ---       #478
      00FF1443H   LINE      ---      ---       #481
      00FF1446H   LINE      ---      ---       #486
      00FF144DH   LINE      ---      ---       #496
      00FF1450H   LINE      ---      ---       #506
      00FF1453H   LINE      ---      ---       #507
      00FF1455H   LINE      ---      ---       #508
      00FF1457H   LINE      ---      ---       #509
      00FF145AH   LINE      ---      ---       #514
      00FF145DH   LINE      ---      ---       #519
      00FF1469H   LINE      ---      ---       #521
      ---         BLOCKEND  ---      ---       LVL=0

      00FF84B6H   BLOCK     CODE     ---       LVL=0
      00FF84B6H   LINE      ---      ---       #524
      00FF84B6H   LINE      ---      ---       #525
      00FF84B6H   BLOCK     CODE     NEAR LAB  LVL=1
      00FF84B6H   LINE      ---      ---       #527
      00FF84C4H   LINE      ---      ---       #528
      R11         REGSYM    ---      BYTE      retValue
      ---         BLOCKEND  CODE     ---       LVL=1
      00FF84C4H   LINE      ---      ---       #529
      00FF84C4H   LINE      CODE     ---       #529

      00FF2579H   BLOCK     CODE     ---       LVL=0
      00FF2579H   LINE      ---      ---       #533
      00FF257DH   LINE      ---      ---       #534
      00FF257DH   BLOCK     CODE     NEAR LAB  LVL=1
      00FF257DH   LINE      ---      ---       #535
      00FF257DH   LINE      ---      ---       #538
      00FF2580H   LINE      ---      ---       #539
      00FF2584H   LINE      ---      ---       #540
      00FF258AH   LINE      ---      ---       #544
      00FF258FH   LINE      ---      ---       #547
      00FF2592H   LINE      ---      ---       #548
      00FF2592H   LINE      ---      ---       #550
      00FF2594H   LINE      ---      ---       #551
      00FF2596H   LINE      ---      ---       #552
      00FF259CH   LINE      ---      ---       #553
      00FF25A0H   LINE      ---      ---       #554
      R15         REGSYM    ---      BYTE      count
      WR12        REGSYM    ---      WORD      event
      ---         BLOCKEND  CODE     ---       LVL=1
      00FF25A4H   LINE      ---      ---       #558
      00FF25A4H   LINE      CODE     ---       #558

      00FF3777H   BLOCK     CODE     ---       LVL=0
      00FF3777H   LINE      ---      ---       #562
      00FF3777H   LINE      ---      ---       #568
      00FF377EH   LINE      ---      ---       #571
      00FF3783H   LINE      ---      ---       #572
      00FF3785H   LINE      ---      ---       #579
      00FF3795H   LINE      ---      ---       #583
      00FF3798H   LINE      ---      ---       #584
      00FF3798H   LINE      ---      ---       #588
      00FF379DH   LINE      ---      ---       #589
      00FF379FH   LINE      ---      ---       #614
      00FF37A5H   LINE      ---      ---       #616
L251 LINKER/LOCATER V4.66.93.0                                                        02/16/2024  15:12:23  PAGE 77


      00FF37A7H   LINE      ---      ---       #617
      00FF37A7H   LINE      ---      ---       #619
      00FF37B3H   LINE      ---      ---       #621
      00FF37B5H   LINE      ---      ---       #622
      00FF37B5H   LINE      ---      ---       #624
      00FF37BBH   LINE      ---      ---       #626
      00FF37C6H   LINE      ---      ---       #628
      00FF37CCH   LINE      ---      ---       #630
      00FF37D4H   LINE      ---      ---       #631
      00FF37D6H   LINE      ---      ---       #632
      00FF37D6H   LINE      ---      ---       #635
      00FF37D9H   LINE      ---      ---       #636
      00FF37D9H   LINE      ---      ---       #637
      00FF37DAH   LINE      ---      ---       #640
      ---         BLOCKEND  ---      ---       LVL=0

      00FF827FH   BLOCK     CODE     ---       LVL=0
      00FF827FH   LINE      ---      ---       #644
      00FF827FH   LINE      ---      ---       #645
      00FF827FH   BLOCK     CODE     NEAR LAB  LVL=1
      00FF827FH   LINE      ---      ---       #651
      00FF828BH   LINE      ---      ---       #652
      00FF8296H   LINE      ---      ---       #653
      00FF82A5H   LINE      ---      ---       #654
      00FF82B0H   LINE      ---      ---       #655
      R10         REGSYM    ---      BYTE      tempReg
      ---         BLOCKEND  CODE     ---       LVL=1
      00FF82B2H   LINE      ---      ---       #656
      00FF82B2H   LINE      CODE     ---       #656

      00FF5E77H   BLOCK     CODE     ---       LVL=0
      00FF5E77H   LINE      ---      ---       #659
      00FF5E77H   LINE      ---      ---       #664
      00FF5E97H   LINE      ---      ---       #667
      00FF5E9AH   LINE      ---      ---       #668
      00FF5E9AH   LINE      ---      ---       #670
      00FF5E9BH   LINE      ---      ---       #671
      ---         BLOCKEND  ---      ---       LVL=0

      00FF5F7FH   BLOCK     CODE     ---       LVL=0
      00FF5F7FH   LINE      ---      ---       #674
      00FF5F7FH   LINE      ---      ---       #677
      00FF5F80H   LINE      ---      ---       #678
      00FF5F81H   LINE      ---      ---       #679
      00FF5F8CH   LINE      ---      ---       #680
      00FF5F8FH   LINE      ---      ---       #681
      00FF5F8FH   LINE      ---      ---       #683
      00FF5F90H   LINE      ---      ---       #684
      ---         BLOCKEND  ---      ---       LVL=0

      00FF2891H   BLOCK     CODE     ---       LVL=0
      00FF2891H   LINE      ---      ---       #687
      00FF2891H   LINE      ---      ---       #690
      00FF2896H   LINE      ---      ---       #692
      ---         BLOCKEND  ---      ---       LVL=0

      00FF8221H   BLOCK     CODE     ---       LVL=0
      00FF8221H   LINE      ---      ---       #710
      00FF8221H   LINE      ---      ---       #724
      00FF823AH   LINE      ---      ---       #727
      00FF823AH   LINE      ---      ---       #728
      00FF823CH   LINE      ---      ---       #729
      00FF823EH   LINE      ---      ---       #732
      00FF823EH   LINE      ---      ---       #733
      00FF8240H   LINE      ---      ---       #734
L251 LINKER/LOCATER V4.66.93.0                                                        02/16/2024  15:12:23  PAGE 78


      00FF8242H   LINE      ---      ---       #736
      00FF8242H   LINE      ---      ---       #738
      00FF8245H   LINE      ---      ---       #742
      00FF8247H   LINE      ---      ---       #743
      00FF8247H   LINE      ---      ---       #745
      00FF824AH   LINE      ---      ---       #749
      00FF824CH   LINE      ---      ---       #757
      00FF824CH   LINE      ---      ---       #761
      00FF824FH   LINE      ---      ---       #763
      00FF8251H   LINE      ---      ---       #765
      00FF8251H   LINE      ---      ---       #769
      00FF8254H   LINE      ---      ---       #771
      00FF8254H   LINE      ---      ---       #773
      00FF8254H   LINE      ---      ---       #774
      00FF8256H   LINE      ---      ---       #775
      ---         BLOCKEND  ---      ---       LVL=0

      ---         MODULE    ---      ---       mac_frame_parse
      00FF84C5H   PUBLIC    CODE     ---       panIdPresent
      00FF856BH   PUBLIC    CODE     ---       mac_parseHdr

      00FF84C5H   BLOCK     CODE     ---       LVL=0
      00FF84C5H   LINE      ---      ---       #24
      00FF84C7H   LINE      ---      ---       #25
      R11         REGSYM    ---      BYTE      destAddrModeIn
      R10         REGSYM    ---      BYTE      srcAddrModeIn
      R6          REGSYM    ---      BYTE      panIdCompIn
      00FF84C7H   BLOCK     CODE     NEAR LAB  LVL=1
      00FF84C7H   LINE      ---      ---       #26
      00FF84CBH   LINE      ---      ---       #27
      00FF84CFH   LINE      ---      ---       #28
      00FF84D3H   LINE      ---      ---       #30
      00FF84D8H   LINE      ---      ---       #31
      00FF84DCH   LINE      ---      ---       #33
      00FF84E2H   LINE      ---      ---       #35
      00FF84E8H   LINE      ---      ---       #37
      00FF84EFH   LINE      ---      ---       #39
      00FF84EFH   LINE      ---      ---       #40
      00FF84F1H   LINE      ---      ---       #42
      00FF8501H   LINE      ---      ---       #44
      00FF8507H   LINE      ---      ---       #46
      00FF8507H   LINE      ---      ---       #47
      00FF8507H   LINE      ---      ---       #49
      00FF8509H   LINE      ---      ---       #50
      00FF8510H   LINE      ---      ---       #52
      00FF8516H   LINE      ---      ---       #54
      00FF851CH   LINE      ---      ---       #56
      00FF851CH   LINE      ---      ---       #57
      00FF851EH   LINE      ---      ---       #59
      00FF852EH   LINE      ---      ---       #61
      00FF8534H   LINE      ---      ---       #62
      00FF853AH   LINE      ---      ---       #64
      00FF8540H   LINE      ---      ---       #65
      00FF8540H   LINE      ---      ---       #67
      00FF8541H   LINE      ---      ---       #68
      00FF8548H   LINE      ---      ---       #70
      00FF8555H   LINE      ---      ---       #72
      00FF855BH   LINE      ---      ---       #74
      00FF855BH   LINE      ---      ---       #75
      00FF855DH   LINE      ---      ---       #77
      00FF8564H   LINE      ---      ---       #79
      00FF856AH   LINE      ---      ---       #80
      0000B5B7H   SYMBOL    EDATA    BYTE      destAddrMode
      0000B5B8H   SYMBOL    EDATA    BYTE      srcAddrMode
      0000B5B9H   SYMBOL    EDATA    BYTE      panIdComp
L251 LINKER/LOCATER V4.66.93.0                                                        02/16/2024  15:12:23  PAGE 79


      ---         BLOCKEND  CODE     ---       LVL=1
      00FF856AH   LINE      ---      ---       #83
      00FF856AH   LINE      CODE     ---       #83

      00FF856BH   BLOCK     CODE     ---       LVL=0
      00FF856BH   LINE      ---      ---       #86
      00FF8571H   LINE      ---      ---       #92
      00FF8580H   LINE      ---      ---       #93
      00FF8582H   LINE      ---      ---       #94
      00FF858BH   LINE      ---      ---       #95
      00FF859BH   LINE      ---      ---       #96
      00FF85ADH   LINE      ---      ---       #97
      00FF85C1H   LINE      ---      ---       #98
      00FF85D7H   LINE      ---      ---       #99
      00FF85E7H   LINE      ---      ---       #100
      00FF85F6H   LINE      ---      ---       #101
      00FF8606H   LINE      ---      ---       #103
      00FF860FH   LINE      ---      ---       #105
      00FF8616H   LINE      ---      ---       #107
      00FF8624H   LINE      ---      ---       #108
      00FF862AH   LINE      ---      ---       #110
      00FF8631H   LINE      ---      ---       #111
      00FF8633H   LINE      ---      ---       #112
      00FF8633H   LINE      ---      ---       #114
      00FF863CH   LINE      ---      ---       #117
      00FF863FH   LINE      ---      ---       #119
      00FF8646H   LINE      ---      ---       #120
      00FF8648H   LINE      ---      ---       #121
      00FF864AH   LINE      ---      ---       #124
      00FF8659H   LINE      ---      ---       #125
      00FF865BH   LINE      ---      ---       #126
      00FF866AH   LINE      ---      ---       #127
      00FF866CH   LINE      ---      ---       #128
      00FF866CH   LINE      ---      ---       #129
      00FF866CH   LINE      ---      ---       #131
      00FF8672H   LINE      ---      ---       #133
      00FF8679H   LINE      ---      ---       #134
      00FF867BH   LINE      ---      ---       #135
      00FF867BH   LINE      ---      ---       #137
      00FF8686H   LINE      ---      ---       #139
      00FF8689H   LINE      ---      ---       #142
      00FF8689H   LINE      ---      ---       #144
      00FF8689H   LINE      ---      ---       #145
      00FF8689H   LINE      ---      ---       #146
      00FF868BH   LINE      ---      ---       #150
      00FF868BH   LINE      ---      ---       #152
      00FF868BH   LINE      ---      ---       #153
      00FF868BH   LINE      ---      ---       #154
      00FF868BH   LINE      ---      ---       #155
      00FF868BH   LINE      ---      ---       #156
      00FF868BH   LINE      ---      ---       #157
      00FF868DH   LINE      ---      ---       #159
      00FF8698H   LINE      ---      ---       #162
      00FF86A1H   LINE      ---      ---       #164
      00FF86A8H   LINE      ---      ---       #165
      00FF86AAH   LINE      ---      ---       #166
      00FF86B1H   LINE      ---      ---       #168
      00FF86B8H   LINE      ---      ---       #169
      00FF86BAH   LINE      ---      ---       #170
      00FF86BCH   LINE      ---      ---       #173
      00FF86CBH   LINE      ---      ---       #174
      00FF86CDH   LINE      ---      ---       #175
      00FF86DCH   LINE      ---      ---       #176
      00FF86DEH   LINE      ---      ---       #177
      00FF86DEH   LINE      ---      ---       #178
L251 LINKER/LOCATER V4.66.93.0                                                        02/16/2024  15:12:23  PAGE 80


      00FF86DEH   LINE      ---      ---       #180
      00FF86E7H   LINE      ---      ---       #182
      00FF86EDH   LINE      ---      ---       #184
      00FF86F4H   LINE      ---      ---       #185
      00FF86F6H   LINE      ---      ---       #186
      00FF86F6H   LINE      ---      ---       #188
      00FF86FDH   LINE      ---      ---       #191
      00FF870CH   LINE      ---      ---       #193
      00FF8713H   LINE      ---      ---       #194
      00FF8715H   LINE      ---      ---       #195
      00FF8717H   LINE      ---      ---       #199
      00FF8726H   LINE      ---      ---       #201
      00FF8735H   LINE      ---      ---       #202
      00FF8737H   LINE      ---      ---       #203
      00FF8746H   LINE      ---      ---       #205
      00FF8748H   LINE      ---      ---       #207
      00FF8748H   LINE      ---      ---       #208
      00FF8748H   LINE      ---      ---       #214
      00FF8751H   LINE      ---      ---       #217
      00FF8758H   LINE      ---      ---       #218
      00FF8758H   LINE      ---      ---       #219
      00FF8762H   LINE      ---      ---       #254
      REG=7       REGSYM    ---      ---       dptr
      REG=6       REGSYM    ---      ---       hdr
      ---         BLOCKEND  ---      ---       LVL=0

      ---         MODULE    ---      ---       mac_isr
      00FF8794H   PUBLIC    CODE     ---       mac_IsrHandler
      00FF17BDH   PUBLIC    CODE     ---       mac_IsrInit
      00FF8825H   PUBLIC    CODE     ---       mac_BmuIsrInit
      00FF5F72H   PUBLIC    CODE     ---       mac_isr_reg_cb
      0000B521H   PUBLIC    EDATA    ---       g_mac_isr_cb_handle
      00000080H   SFRSYM    DATA     BYTE      P0

      00FF8794H   BLOCK     CODE     ---       LVL=0
      00FF8794H   LINE      ---      ---       #44
      00FF8798H   LINE      ---      ---       #46
      00FF879BH   LINE      ---      ---       #48
      00FF87A3H   LINE      ---      ---       #49
      00FF87A9H   LINE      ---      ---       #50
      00FF87A9H   LINE      ---      ---       #52
      00FF87ACH   LINE      ---      ---       #53
      00FF87AFH   LINE      ---      ---       #55
      00FF87AFH   LINE      ---      ---       #57
      00FF87B4H   LINE      ---      ---       #59
      00FF87BCH   LINE      ---      ---       #60
      00FF87C2H   LINE      ---      ---       #61
      00FF87C2H   LINE      ---      ---       #63
      00FF87C5H   LINE      ---      ---       #64
      00FF87C8H   LINE      ---      ---       #65
      00FF87C8H   LINE      ---      ---       #67
      00FF87CDH   LINE      ---      ---       #69
      00FF87D5H   LINE      ---      ---       #70
      00FF87DBH   LINE      ---      ---       #71
      00FF87DBH   LINE      ---      ---       #73
      00FF87DEH   LINE      ---      ---       #74
      00FF87E1H   LINE      ---      ---       #75
      00FF87E1H   LINE      ---      ---       #78
      00FF87E6H   LINE      ---      ---       #84
      00FF87F7H   LINE      ---      ---       #85
      00FF87FAH   LINE      ---      ---       #86
      00FF87FAH   LINE      ---      ---       #87
      00FF87FAH   LINE      ---      ---       #88
      00FF87FCH   LINE      ---      ---       #89
      00FF87FCH   LINE      ---      ---       #93
L251 LINKER/LOCATER V4.66.93.0                                                        02/16/2024  15:12:23  PAGE 81


      00FF87FFH   LINE      ---      ---       #94
      00FF8802H   LINE      ---      ---       #95
      00FF8809H   LINE      ---      ---       #96
      00FF8809H   LINE      ---      ---       #98
      00FF880EH   LINE      ---      ---       #100
      00FF8816H   LINE      ---      ---       #101
      00FF881CH   LINE      ---      ---       #102
      00FF881CH   LINE      ---      ---       #104
      00FF881FH   LINE      ---      ---       #105
      00FF8822H   LINE      ---      ---       #106
      R15         REGSYM    ---      BYTE      intSts
      ---         BLOCKEND  ---      ---       LVL=0

      00FF17BDH   BLOCK     CODE     ---       LVL=0
      00FF17BDH   LINE      ---      ---       #132
      00FF17BDH   LINE      ---      ---       #134
      ---         BLOCKEND  ---      ---       LVL=0

      00FF8825H   BLOCK     CODE     ---       LVL=0
      00FF8825H   LINE      ---      ---       #141
      00FF8825H   LINE      ---      ---       #150
      ---         BLOCKEND  ---      ---       LVL=0

      00FF5F72H   BLOCK     CODE     ---       LVL=0
      00FF5F72H   LINE      ---      ---       #153
      00FF5F74H   LINE      ---      ---       #155
      REG=2       REGSYM    ---      ---       cb
      ---         BLOCKEND  ---      ---       LVL=0

      ---         MODULE    ---      ---       mac_cmd_hdlr
      00FF8831H   PUBLIC    CODE     ---       Pci_SetRfFreq
      00FF8920H   PUBLIC    CODE     ---       Pci_SetRxTaskPara
      00FF7DEAH   PUBLIC    CODE     ---       Pci_EnableSingleTone
      00FF896AH   PUBLIC    CODE     ---       Pci_SetRfeSecurityCmd
      00FF7A31H   PUBLIC    CODE     ---       Pci_SetRfeTxEnableCmd
      00FF2E4AH   PUBLIC    CODE     ---       Pci_SetRfeTxDisableCmd
      00FF7EA4H   PUBLIC    CODE     ---       Pci_SetRfeRxEnableCmd
      00FF2E72H   PUBLIC    CODE     ---       Pci_SetRfeRxDisableCmd
      00FF7C81H   PUBLIC    CODE     ---       Pci_GetCrcCount
      00FF89B2H   PUBLIC    CODE     ---       Pci_SetRfSleep
      00FF2E5EH   PUBLIC    CODE     ---       Pci_SetRfIdle
      00FF7CEDH   PUBLIC    CODE     ---       Pci_GetRssi
      00FF7D57H   PUBLIC    CODE     ---       Pci_GetPhyStatus
      00FF89D1H   PUBLIC    CODE     ---       Pci_SetClockMode
      00FF8A1DH   PUBLIC    CODE     ---       Pci_SetRfbAutoState
      00FF7FD2H   PUBLIC    CODE     ---       Pci_SetRfeMode
      00FF7FE6H   PUBLIC    CODE     ---       Pci_SetGaussianFilterType
      00FF8A97H   PUBLIC    CODE     ---       Pci_SetWakeOnRadio
      00FF2F16H   PUBLIC    CODE     ---       Pci_InitFsk
      00FF8B94H   PUBLIC    CODE     ---       Pci_SetFskModem
      00FF475DH   PUBLIC    CODE     ---       Pci_SetFskMac
      00FF2ED9H   PUBLIC    CODE     ---       Pci_SetFskPreamble
      00FF40EAH   PUBLIC    CODE     ---       Pci_SetFskSfd
      00FF4709H   PUBLIC    CODE     ---       Pci_SetFskType
      00FF2EF5H   PUBLIC    CODE     ---       Pci_BleCmdInitBle
      00FF8BD6H   PUBLIC    CODE     ---       Pci_BleCmdSetBleModem
      00FF4524H   PUBLIC    CODE     ---       Pci_BleCmdSetBleMac
      00FF8F0CH   PUBLIC    CODE     ---       Pci_BlePhy_SetHtrp_Para
      00FF8D5BH   PUBLIC    CODE     ---       Pci_BlePhy_SetHtrp_Map_Channel
      00FF8D2BH   PUBLIC    CODE     ---       Pci_BlePhy_SetHtrp_Sec
      00FF8E9AH   PUBLIC    CODE     ---       Pci_BlePhy_SetHtrp_Tx_Enable
      00FF8D0DH   PUBLIC    CODE     ---       Pci_BlePhy_SetHtrp_Rx_Enable
      00FF8CF0H   PUBLIC    CODE     ---       Pci_BlePhy_SetHtrp_Disable
      00FF2FBAH   PUBLIC    CODE     ---       Pci_BlePhy_SetHtrp_Initiate
      00FF5F17H   PUBLIC    CODE     ---       Pci_BlePhy_GetHtrp_Status
L251 LINKER/LOCATER V4.66.93.0                                                        02/16/2024  15:12:23  PAGE 82


      00FF5704H   PUBLIC    CODE     ---       Pci_InitZigbee
      00FF5268H   PUBLIC    CODE     ---       Pci_Parse15p4AddressFilter
      00FF56BBH   PUBLIC    CODE     ---       Pci_Parse15p4MacPib
      00FF5647H   PUBLIC    CODE     ---       Pci_Parse15p4PhyPib
      00FF55F6H   PUBLIC    CODE     ---       Pci_Parse15p4AutoAck
      00FF46ADH   PUBLIC    CODE     ---       Pci_Parse15p4PendingBit
      00FF51B9H   PUBLIC    CODE     ---       Pci_Parse15p4SmEnable
      00FF5063H   PUBLIC    CODE     ---       Pci_Set15p4CslReceiverCtrl
      00FF514DH   PUBLIC    CODE     ---       Pci_Get15p4CslAccuracy
      00FF5183H   PUBLIC    CODE     ---       Pci_Get15p4CslUncertainty
      00FF5680H   PUBLIC    CODE     ---       Pci_Update15p4CslSampleTime
      00FF2F80H   PUBLIC    CODE     ---       Pci_OqpskCmdInitOqpsk
      00FF8FAFH   PUBLIC    CODE     ---       Pci_OqpskCmdSetOqpskModem
      00FF8FEDH   PUBLIC    CODE     ---       Pci_OqpskCmdSetOqpskMac
      00FF3A48H   PUBLIC    CODE     ---       MAC_CmdQueueParse
      00FF5B08H   PUBLIC    CODE     ---       Pci_SetPhr
      00FF9043H   PUBLIC    CODE     ---       Pci_RfeRxParaCheck
      00FF28F5H   PUBLIC    CODE     ---       SetRfIdle
      00FF4726H   PUBLIC    CODE     ---       get_pan_number
      00FF2F52H   PUBLIC    CODE     ---       Pci_ParaReset
      00FF7AD0H   PUBLIC    CODE     ---       Pci_RfeTxParaCheck
      00FF5320H   PUBLIC    CODE     ---       Reverse_Uint32cpy
      00FF51C9H   PUBLIC    CODE     ---       Pci_Parset15p4SmEntryCtrl
      00FF7BB5H   PUBLIC    CODE     ---       Pci_ParseCommonCmd
      00FF50D2H   PUBLIC    CODE     ---       Pci_Parse15p4SwMacCmd
      00FF8C89H   PUBLIC    CODE     ---       Pci_ParseBleCmd
      00FF46D9H   PUBLIC    CODE     ---       Pci_ParseFskCmd
      00FF908FH   PUBLIC    CODE     ---       Pci_ParseOqpskCmd
      00FF3BD5H   PUBLIC    CODE     ---       Pci_ParseCmnSysCmd
      00FF3D0EH   PUBLIC    CODE     ---       Pci_ParseCmnHalCmd
      0000B34DH   PUBLIC    EDATA    BYTE      gSleepEnable
      0000B34EH   PUBLIC    EDATA    ---       g15p4Mac
      0000B361H   PUBLIC    EDATA    ---       g15p4Phy
      00FF11A3H   PUBLIC    HCONST   ---       gPciCommonCmdLen
      00FF11C2H   PUBLIC    HCONST   ---       gPciFskCmdLen
      00FF11C8H   PUBLIC    HCONST   ---       gPciBleCmdLen
      00FF11D3H   PUBLIC    HCONST   ---       gPci15p4MacCmdLen
      00FF11E0H   PUBLIC    HCONST   ---       gPciOqpskCmdLen
      00FF11E4H   PUBLIC    HCONST   ---       gCmnSysCmdLen
      00FF11E6H   PUBLIC    HCONST   ---       gCmnHalCmdLen
      000000A8H.7 SFRSYM    DATA     BIT       EA
      00000080H   SFRSYM    DATA     BYTE      P0

      00FF4726H   BLOCK     CODE     ---       LVL=0
      00FF4726H   LINE      ---      ---       #305
      00FF4726H   LINE      ---      ---       #306
      00FF4726H   BLOCK     CODE     NEAR LAB  LVL=1
      00FF4726H   LINE      ---      ---       #308
      00FF472FH   LINE      ---      ---       #311
      00FF474DH   LINE      ---      ---       #312
      00FF4758H   LINE      ---      ---       #314
      0000B5E5H   SYMBOL    EDATA    BYTE      Pannum
      WR6         REGSYM    ---      WORD      bufferAddress_LOCAL
      REG=2       REGSYM    ---      ---       pInput
      ---         BLOCKEND  CODE     ---       LVL=1
      00FF475CH   LINE      ---      ---       #315
      00FF475CH   LINE      CODE     ---       #315

      00FF5B03H   BLOCK     CODE     ---       LVL=0
      00FF5B08H   LINE      ---      ---       #318
      00FF5B10H   LINE      ---      ---       #319
      00FF5B03H   SYMBOL    CODE     NEAR LAB  ?L?COM003F
      WR14        REGSYM    ---      WORD      pktLen
      R13         REGSYM    ---      BYTE      dateType
      00FF5B10H   BLOCK     CODE     NEAR LAB  LVL=1
L251 LINKER/LOCATER V4.66.93.0                                                        02/16/2024  15:12:23  PAGE 83


      00FF5B10H   LINE      ---      ---       #323
      00FF5B1EH   LINE      ---      ---       #326
      00FF5B1EH   LINE      ---      ---       #327
      00FF5B26H   LINE      ---      ---       #328
      00FF5B30H   LINE      ---      ---       #329
      00FF5B30H   LINE      ---      ---       #330
      00FF5B32H   LINE      ---      ---       #333
      00FF5B32H   LINE      ---      ---       #334
      00FF5B3FH   LINE      ---      ---       #335
      00FF5B46H   LINE      ---      ---       #336
      00FF5B46H   LINE      ---      ---       #337
      00FF5B48H   LINE      ---      ---       #340
      00FF5B48H   LINE      ---      ---       #341
      0000B5CCH   SYMBOL    EDATA    WORD      phrContent
      00FF5B48H   BLOCK     CODE     NEAR LAB  LVL=2
      00FF5B48H   LINE      ---      ---       #344
      00FF5B57H   LINE      ---      ---       #346
      00FF5B64H   LINE      ---      ---       #347
      00FF5B69H   LINE      ---      ---       #348
      00FF5B74H   LINE      ---      ---       #349
      00FF5B78H   LINE      ---      ---       #350
      00FF5B83H   LINE      ---      ---       #351
      R10         REGSYM    ---      BYTE      crcType
      ---         BLOCKEND  CODE     ---       LVL=2
      00FF5B90H   LINE      ---      ---       #353
      00FF5B90H   LINE      ---      ---       #379
      00FF5B90H   LINE      ---      ---       #380
      00FF5B90H   LINE      ---      ---       #381
      00FF5B90H   LINE      CODE     ---       #381
      ---         BLOCKEND  CODE     ---       LVL=0

      00FF2F4EH   BLOCK     CODE     ---       LVL=0
      00FF2F52H   LINE      ---      ---       #384
      00FF2F52H   LINE      ---      ---       #386
      00FF2F56H   LINE      ---      ---       #387
      00FF2F5CH   LINE      ---      ---       #389
      00FF2F68H   LINE      ---      ---       #390
      00FF2F6CH   LINE      ---      ---       #391
      00FF2F72H   LINE      ---      ---       #392
      00FF2F77H   LINE      ---      ---       #393
      00FF2F7BH   LINE      ---      ---       #394
      00FF2F7FH   LINE      ---      ---       #395
      00FF2F4EH   SYMBOL    CODE     NEAR LAB  ?L?COM0041
      WR6         REGSYM    ---      INT       rfkBand
      ---         BLOCKEND  ---      ---       LVL=0

      00FF896AH   BLOCK     CODE     ---       LVL=0
      00FF896AH   LINE      ---      ---       #398
      00FF8970H   LINE      ---      ---       #399
      REG=7       REGSYM    ---      ---       pCmdAddress
      00FF8970H   BLOCK     CODE     NEAR LAB  LVL=1
      00FF8970H   LINE      ---      ---       #404
      00FF8975H   LINE      ---      ---       #411
      00FF8978H   LINE      ---      ---       #421
      00FF8978H   LINE      ---      ---       #429
      00FF898EH   LINE      ---      ---       #430
      00FF8992H   LINE      ---      ---       #432
      00FF89A3H   LINE      ---      ---       #446
      REG=7       REGSYM    ---      ---       pCmdIn
      R13         REGSYM    ---      BYTE      Pannum
      ---         BLOCKEND  CODE     ---       LVL=1
      00FF89ADH   LINE      ---      ---       #447
      00FF89ADH   LINE      CODE     ---       #447

      00FF7AD0H   BLOCK     CODE     ---       LVL=0
L251 LINKER/LOCATER V4.66.93.0                                                        02/16/2024  15:12:23  PAGE 84


      00FF7AD0H   LINE      ---      ---       #451
      00FF7AD6H   LINE      ---      ---       #454
      00FF7AE0H   LINE      ---      ---       #455
      00FF7AE3H   LINE      ---      ---       #458
      00FF7AEBH   LINE      ---      ---       #459
      00FF7AEEH   LINE      ---      ---       #462
      00FF7B0AH   LINE      ---      ---       #463
      00FF7B0DH   LINE      ---      ---       #466
      00FF7B11H   LINE      ---      ---       #467
      00FF7B14H   LINE      ---      ---       #470
      00FF7B22H   LINE      ---      ---       #471
      00FF7B25H   LINE      ---      ---       #474
      00FF7B30H   LINE      ---      ---       #476
      00FF7B44H   LINE      ---      ---       #477
      00FF7B47H   LINE      ---      ---       #478
      00FF7B4DH   LINE      ---      ---       #480
      00FF7B57H   LINE      ---      ---       #481
      00FF7B5AH   LINE      ---      ---       #482
      00FF7B5AH   LINE      ---      ---       #483
      00FF7B64H   LINE      ---      ---       #485
      00FF7B6EH   LINE      ---      ---       #486
      00FF7B71H   LINE      ---      ---       #487
      00FF7B71H   LINE      ---      ---       #488
      00FF7B75H   LINE      ---      ---       #489
      00FF7B78H   LINE      ---      ---       #490
      00FF7B82H   LINE      ---      ---       #491
      00FF7B85H   LINE      ---      ---       #492
      00FF7B85H   LINE      ---      ---       #494
      00FF7B87H   LINE      ---      ---       #495
      WR12        REGSYM    ---      WORD      txCounter
      WR14        REGSYM    ---      WORD      txStepSize
      ---         BLOCKEND  ---      ---       LVL=0

      00FF9043H   BLOCK     CODE     ---       LVL=0
      00FF9043H   LINE      ---      ---       #497
      00FF9049H   LINE      ---      ---       #500
      00FF9053H   LINE      ---      ---       #501
      00FF9056H   LINE      ---      ---       #504
      00FF905EH   LINE      ---      ---       #505
      00FF9061H   LINE      ---      ---       #508
      00FF906CH   LINE      ---      ---       #511
      00FF9070H   LINE      ---      ---       #512
      00FF9073H   LINE      ---      ---       #515
      00FF9087H   LINE      ---      ---       #516
      00FF908AH   LINE      ---      ---       #517
      00FF908AH   LINE      ---      ---       #519
      00FF908CH   LINE      ---      ---       #520
      R11         REGSYM    ---      BYTE      rxType
      R15         REGSYM    ---      BYTE      queueType
      R10         REGSYM    ---      BYTE      ackEnable
      DR0         REGSYM    ---      DWORD     ackInterval
      ---         BLOCKEND  ---      ---       LVL=0

      00FF7A31H   BLOCK     CODE     ---       LVL=0
      00FF7A31H   LINE      ---      ---       #524
      00FF7A35H   LINE      ---      ---       #525
      REG=7       REGSYM    ---      ---       pCmdAddress
      00FF7A35H   BLOCK     CODE     NEAR LAB  LVL=1
      00FF7A35H   LINE      ---      ---       #539
      00FF7A38H   LINE      ---      ---       #543
      00FF7A53H   LINE      ---      ---       #546
      00FF7A53H   LINE      ---      ---       #550
      00FF7A5BH   LINE      ---      ---       #551
      00FF7A63H   LINE      ---      ---       #552
      00FF7A6BH   LINE      ---      ---       #553
L251 LINKER/LOCATER V4.66.93.0                                                        02/16/2024  15:12:23  PAGE 85


      00FF7A77H   LINE      ---      ---       #554
      00FF7A7FH   LINE      ---      ---       #555
      00FF7A87H   LINE      ---      ---       #556
      00FF7A8FH   LINE      ---      ---       #559
      00FF7A9BH   LINE      ---      ---       #561
      00FF7AA3H   LINE      ---      ---       #562
      00FF7AA5H   LINE      ---      ---       #563
      00FF7AA5H   LINE      ---      ---       #566
      00FF7AB7H   LINE      ---      ---       #569
      00FF7ABDH   LINE      ---      ---       #570
      00FF7AC5H   LINE      ---      ---       #593
      REG=7       REGSYM    ---      ---       pCmdIn
      ---         BLOCKEND  CODE     ---       LVL=1
      00FF7ACDH   LINE      ---      ---       #594
      00FF7ACDH   LINE      CODE     ---       #594

      00FF2E4AH   BLOCK     CODE     ---       LVL=0
      00FF2E4AH   LINE      ---      ---       #596
      00FF2E4AH   LINE      ---      ---       #598
      00FF2E4AH   LINE      ---      ---       #610
      00FF2E4CH   LINE      ---      ---       #615
      00FF2E52H   LINE      ---      ---       #621
      00FF2E57H   LINE      ---      ---       #624
      ---         BLOCKEND  ---      ---       LVL=0

      00FF7EA4H   BLOCK     CODE     ---       LVL=0
      00FF7EA4H   LINE      ---      ---       #627
      00FF7EA8H   LINE      ---      ---       #628
      REG=7       REGSYM    ---      ---       pCmdAddress
      00FF7EA8H   BLOCK     CODE     NEAR LAB  LVL=1
      00FF7EA8H   LINE      ---      ---       #643
      00FF7EABH   LINE      ---      ---       #647
      00FF7EC6H   LINE      ---      ---       #650
      00FF7EC6H   LINE      ---      ---       #654
      00FF7ED2H   LINE      ---      ---       #655
      00FF7EDAH   LINE      ---      ---       #656
      00FF7EE2H   LINE      ---      ---       #657
      00FF7EEAH   LINE      ---      ---       #660
      00FF7F01H   LINE      ---      ---       #662
      00FF7F09H   LINE      ---      ---       #663
      00FF7F0BH   LINE      ---      ---       #664
      00FF7F0BH   LINE      ---      ---       #667
      00FF7F21H   LINE      ---      ---       #670
      00FF7F27H   LINE      ---      ---       #671
      00FF7F2FH   LINE      ---      ---       #683
      00FF7F37H   LINE      ---      ---       #685
      00FF7F48H   LINE      ---      ---       #689
      00FF7F54H   LINE      ---      ---       #691
      00FF7F54H   LINE      ---      ---       #694
      REG=7       REGSYM    ---      ---       pCmdIn
      DR12        REGSYM    ---      DWORD     periodicReportCycle
      ---         BLOCKEND  CODE     ---       LVL=1
      00FF7F5EH   LINE      ---      ---       #695
      00FF7F5EH   LINE      CODE     ---       #695

      00FF2E72H   BLOCK     CODE     ---       LVL=0
      00FF2E72H   LINE      ---      ---       #697
      00FF2E72H   LINE      ---      ---       #699
      00FF2E72H   LINE      ---      ---       #711
      00FF2E74H   LINE      ---      ---       #716
      00FF2E7AH   LINE      ---      ---       #725
      00FF2E7DH   LINE      ---      ---       #735
      00FF2E82H   LINE      ---      ---       #742
      ---         BLOCKEND  ---      ---       LVL=0

L251 LINKER/LOCATER V4.66.93.0                                                        02/16/2024  15:12:23  PAGE 86


      00FF7C81H   BLOCK     CODE     ---       LVL=0
      00FF7C81H   LINE      ---      ---       #745
      00FF7C81H   LINE      ---      ---       #747
      00FF7C81H   LINE      ---      ---       #748
      00FF7C8BH   LINE      ---      ---       #749
      ---         BLOCKEND  ---      ---       LVL=0

      00FF7D57H   BLOCK     CODE     ---       LVL=0
      00FF7D57H   LINE      ---      ---       #752
      00FF7D57H   LINE      ---      ---       #754
      00FF7D57H   LINE      ---      ---       #755
      00FF7D61H   LINE      ---      ---       #756
      ---         BLOCKEND  ---      ---       LVL=0

      00FF89B2H   BLOCK     CODE     ---       LVL=0
      00FF89B2H   LINE      ---      ---       #762
      00FF89B6H   LINE      ---      ---       #767
      00FF89B9H   LINE      ---      ---       #773
      00FF89BDH   LINE      ---      ---       #775
      00FF89C4H   LINE      ---      ---       #777
      00FF89CEH   LINE      ---      ---       #778
      REG=7       REGSYM    ---      ---       pCmdAddress
      ---         BLOCKEND  ---      ---       LVL=0

      00FF2E5EH   BLOCK     CODE     ---       LVL=0
      00FF2E5EH   LINE      ---      ---       #780
      00FF2E5EH   LINE      ---      ---       #782
      00FF2E5EH   LINE      ---      ---       #787
      00FF2E60H   LINE      ---      ---       #796
      00FF2E65H   LINE      ---      ---       #798
      00FF2E69H   LINE      ---      ---       #800
      ---         BLOCKEND  ---      ---       LVL=0

      00FF7CEDH   BLOCK     CODE     ---       LVL=0
      00FF7CEDH   LINE      ---      ---       #805
      00FF7CEDH   LINE      ---      ---       #807
      00FF7CEDH   LINE      ---      ---       #808
      00FF7CF7H   LINE      ---      ---       #812
      ---         BLOCKEND  ---      ---       LVL=0

      00FF89D1H   BLOCK     CODE     ---       LVL=0
      00FF89D1H   LINE      ---      ---       #818
      00FF89D5H   LINE      ---      ---       #819
      REG=7       REGSYM    ---      ---       pCmdAddress
      00FF89D5H   BLOCK     CODE     NEAR LAB  LVL=1
      00FF89D5H   LINE      ---      ---       #828
      00FF89D8H   LINE      ---      ---       #832
      00FF89DCH   LINE      ---      ---       #833
      00FF89E3H   LINE      ---      ---       #834
      00FF89E7H   LINE      ---      ---       #836
      00FF89ECH   LINE      ---      ---       #839
      00FF89EFH   LINE      ---      ---       #840
      00FF89EFH   LINE      ---      ---       #841
      00FF89F3H   LINE      ---      ---       #844
      00FF89F8H   LINE      ---      ---       #847
      00FF8A10H   LINE      ---      ---       #849
      0000B5E6H   SYMBOL    EDATA    BYTE      ModemType
      R13         REGSYM    ---      BYTE      rfkBandType
      R12         REGSYM    ---      BYTE      ClockMode
      ---         BLOCKEND  CODE     ---       LVL=1
      00FF8A1AH   LINE      ---      ---       #850
      00FF8A1AH   LINE      CODE     ---       #850

      00FF8A1DH   BLOCK     CODE     ---       LVL=0
      00FF8A1DH   LINE      ---      ---       #853
L251 LINKER/LOCATER V4.66.93.0                                                        02/16/2024  15:12:23  PAGE 87


      00FF8A21H   LINE      ---      ---       #859
      00FF8A24H   LINE      ---      ---       #866
      00FF8A28H   LINE      ---      ---       #868
      00FF8A31H   LINE      ---      ---       #870
      00FF8A35H   LINE      ---      ---       #871
      00FF8A3CH   LINE      ---      ---       #873
      00FF8A4AH   LINE      ---      ---       #875
      00FF8A50H   LINE      ---      ---       #876
      00FF8A58H   LINE      ---      ---       #877
      00FF8A58H   LINE      ---      ---       #878
      00FF8A60H   LINE      ---      ---       #879
      00FF8A65H   LINE      ---      ---       #880
      00FF8A67H   LINE      ---      ---       #883
      00FF8A6DH   LINE      ---      ---       #884
      00FF8A73H   LINE      ---      ---       #886
      00FF8A79H   LINE      ---      ---       #888
      00FF8A8AH   LINE      ---      ---       #889
      00FF8A8AH   LINE      ---      ---       #892
      00FF8A8AH   LINE      ---      ---       #894
      00FF8A94H   LINE      ---      ---       #895
      REG=7       REGSYM    ---      ---       pCmdAddress
      ---         BLOCKEND  ---      ---       LVL=0

      00FF7FD2H   BLOCK     CODE     ---       LVL=0
      00FF7FD2H   LINE      ---      ---       #897
      00FF7FD2H   LINE      ---      ---       #925
      00FF7FD2H   LINE      ---      ---       #929
      ---         BLOCKEND  ---      ---       LVL=0

      00FF7FE6H   BLOCK     CODE     ---       LVL=0
      00FF7FE6H   LINE      ---      ---       #932
      00FF7FE6H   LINE      ---      ---       #933
      REG=3       REGSYM    ---      ---       pCmdAddress
      00FF7FE6H   BLOCK     CODE     NEAR LAB  LVL=1
      00FF7FE6H   LINE      ---      ---       #948
      00FF7FE6H   LINE      ---      ---       #950
      00FF7FEFH   LINE      ---      ---       #952
      REG=3       REGSYM    ---      ---       pCmdIn
      ---         BLOCKEND  CODE     ---       LVL=1
      ---         BLOCKEND  CODE     ---       LVL=0

      00FF8A97H   BLOCK     CODE     ---       LVL=0
      00FF8A97H   LINE      ---      ---       #958
      00FF8A9BH   LINE      ---      ---       #959
      REG=7       REGSYM    ---      ---       pCmdAddress
      00FF8A9BH   BLOCK     CODE     NEAR LAB  LVL=1
      00FF8A9BH   LINE      ---      ---       #970
      00FF8A9EH   LINE      ---      ---       #974
      00FF8AB9H   LINE      ---      ---       #977
      00FF8ABDH   LINE      ---      ---       #978
      00FF8AC9H   LINE      ---      ---       #981
      00FF8ACFH   LINE      ---      ---       #982
      00FF8ADCH   LINE      ---      ---       #985
      00FF8ADCH   LINE      ---      ---       #986
      00FF8AECH   LINE      ---      ---       #988
      00FF8AECH   LINE      ---      ---       #989
      00FF8AECH   LINE      ---      ---       #990
      00FF8AF8H   LINE      ---      ---       #991
      00FF8AFAH   LINE      ---      ---       #994
      00FF8AFAH   LINE      ---      ---       #995
      00FF8B12H   LINE      ---      ---       #997
      00FF8B12H   LINE      ---      ---       #998
      00FF8B12H   LINE      ---      ---       #999
      00FF8B1AH   LINE      ---      ---       #1000
      00FF8B1AH   LINE      ---      ---       #1002
L251 LINKER/LOCATER V4.66.93.0                                                        02/16/2024  15:12:23  PAGE 88


      00FF8B1AH   LINE      ---      ---       #1003
      00FF8B1AH   LINE      ---      ---       #1005
      00FF8B1AH   LINE      ---      ---       #1006
      00FF8B30H   LINE      ---      ---       #1008
      00FF8B30H   LINE      ---      ---       #1009
      00FF8B30H   LINE      ---      ---       #1010
      00FF8B35H   LINE      ---      ---       #1012
      00FF8B39H   LINE      ---      ---       #1013
      00FF8B3FH   LINE      ---      ---       #1014
      00FF8B51H   LINE      ---      ---       #1015
      00FF8B68H   LINE      ---      ---       #1016
      00FF8B6EH   LINE      ---      ---       #1017
      00FF8B72H   LINE      ---      ---       #1018
      00FF8B76H   LINE      ---      ---       #1019
      00FF8B7DH   LINE      ---      ---       #1023
      00FF8B85H   LINE      ---      ---       #1025
      00FF8B85H   LINE      ---      ---       #1026
      00FF8B85H   SYMBOL    CODE     NEAR LAB  DONE?1940?mac_cmd_hdlr
      0000B5BAH   SYMBOL    EDATA    ---       pCmdIn
      DR12        REGSYM    ---      DWORD     freqTmp
      0000B5BCH   SYMBOL    EDATA    BYTE      result
      00FF8B99H   SYMBOL    CODE     NEAR LAB  DONE?1940
      ---         BLOCKEND  CODE     ---       LVL=1
      00FF8B91H   LINE      ---      ---       #1027
      00FF8B91H   LINE      CODE     ---       #1027

      00FF5704H   BLOCK     CODE     ---       LVL=0
      00FF5704H   LINE      ---      ---       #1056
      00FF5704H   LINE      ---      ---       #1065
      00FF5704H   LINE      ---      ---       #1068
      00FF5709H   LINE      ---      ---       #1070
      00FF5711H   LINE      ---      ---       #1071
      00FF5715H   LINE      ---      ---       #1072
      00FF571BH   LINE      ---      ---       #1073
      00FF5720H   LINE      ---      ---       #1083
      00FF5723H   LINE      ---      ---       #1086
      00FF573DH   LINE      ---      ---       #1087
      00FF574DH   LINE      ---      ---       #1088
      00FF575FH   LINE      ---      ---       #1089
      00FF576DH   LINE      ---      ---       #1092
      ---         BLOCKEND  ---      ---       LVL=0

      00FF5320H   BLOCK     CODE     ---       LVL=0
      00FF5320H   LINE      ---      ---       #1095
      00FF5324H   LINE      ---      ---       #1097
      00FF532BH   LINE      ---      ---       #1098
      00FF5333H   LINE      ---      ---       #1099
      00FF533BH   LINE      ---      ---       #1100
      00FF5342H   LINE      ---      ---       #1101
      REG=0       REGSYM    ---      ---       aValue
      REG=1       REGSYM    ---      ---       aBuffer
      ---         BLOCKEND  ---      ---       LVL=0

      00FF5268H   BLOCK     CODE     ---       LVL=0
      00FF5268H   LINE      ---      ---       #1104
      00FF526EH   LINE      ---      ---       #1105
      REG=7       REGSYM    ---      ---       pCmdAddress
      00FF526EH   BLOCK     CODE     NEAR LAB  LVL=1
      00FF526EH   LINE      ---      ---       #1107
      00FF5273H   LINE      ---      ---       #1112
      00FF5277H   LINE      ---      ---       #1114
      00FF527EH   LINE      ---      ---       #1115
      00FF5280H   LINE      ---      ---       #1118
      00FF5293H   LINE      ---      ---       #1120
      00FF529EH   LINE      ---      ---       #1121
L251 LINKER/LOCATER V4.66.93.0                                                        02/16/2024  15:12:23  PAGE 89


      00FF52A0H   LINE      ---      ---       #1123
      00FF52B3H   LINE      ---      ---       #1124
      00FF52B5H   LINE      ---      ---       #1126
      00FF52C8H   LINE      ---      ---       #1127
      00FF52CAH   LINE      ---      ---       #1129
      00FF52D5H   LINE      ---      ---       #1130
      00FF52D7H   LINE      ---      ---       #1132
      00FF52E0H   LINE      ---      ---       #1151
      00FF52F4H   LINE      ---      ---       #1152
      00FF5308H   LINE      ---      ---       #1153
      00FF5316H   LINE      ---      ---       #1161
      R13         REGSYM    ---      BYTE      Pannum
      ---         BLOCKEND  CODE     ---       LVL=1
      00FF531BH   LINE      ---      ---       #1162
      00FF531BH   LINE      CODE     ---       #1162

      00FF56BBH   BLOCK     CODE     ---       LVL=0
      00FF56BBH   LINE      ---      ---       #1165
      00FF56BFH   LINE      ---      ---       #1167
      00FF56DAH   LINE      ---      ---       #1170
      00FF56E7H   LINE      ---      ---       #1173
      00FF56EFH   LINE      ---      ---       #1175
      00FF56F7H   LINE      ---      ---       #1177
      00FF5701H   LINE      ---      ---       #1178
      REG=7       REGSYM    ---      ---       pCmdAddress
      ---         BLOCKEND  ---      ---       LVL=0

      00FF5647H   BLOCK     CODE     ---       LVL=0
      00FF5647H   LINE      ---      ---       #1180
      00FF564BH   LINE      ---      ---       #1182
      00FF5666H   LINE      ---      ---       #1185
      00FF5673H   LINE      ---      ---       #1187
      00FF567DH   LINE      ---      ---       #1188
      REG=7       REGSYM    ---      ---       pCmdAddress
      ---         BLOCKEND  ---      ---       LVL=0

      00FF55F6H   BLOCK     CODE     ---       LVL=0
      00FF55F6H   LINE      ---      ---       #1190
      00FF55F6H   LINE      ---      ---       #1192
      00FF55FEH   LINE      ---      ---       #1193
      REG=3       REGSYM    ---      ---       pCmdAddress
      ---         BLOCKEND  ---      ---       LVL=0

      00FF46ADH   BLOCK     CODE     ---       LVL=0
      00FF46ADH   LINE      ---      ---       #1196
      00FF46B1H   LINE      ---      ---       #1197
      REG=7       REGSYM    ---      ---       pCmdAddress
      00FF46B1H   BLOCK     CODE     NEAR LAB  LVL=1
      00FF46B1H   LINE      ---      ---       #1202
      00FF46B3H   LINE      ---      ---       #1204
      00FF46BDH   LINE      ---      ---       #1209
      00FF46C2H   LINE      ---      ---       #1210
      00FF46CCH   LINE      ---      ---       #1212
      R6          REGSYM    ---      BYTE      Pannum
      ---         BLOCKEND  CODE     ---       LVL=1
      00FF46D6H   LINE      ---      ---       #1216
      00FF46D6H   LINE      CODE     ---       #1216

      00FF51B9H   BLOCK     CODE     ---       LVL=0
      00FF51B9H   LINE      ---      ---       #1220
      00FF51B9H   LINE      ---      ---       #1222
      00FF51BFH   LINE      ---      ---       #1224
      REG=3       REGSYM    ---      ---       pCmdAddress
      ---         BLOCKEND  ---      ---       LVL=0

L251 LINKER/LOCATER V4.66.93.0                                                        02/16/2024  15:12:23  PAGE 90


      00FF51C9H   BLOCK     CODE     ---       LVL=0
      00FF51C9H   LINE      ---      ---       #1227
      00FF51D1H   LINE      ---      ---       #1228
      REG=6       REGSYM    ---      ---       pCmdAddress
      R14         REGSYM    ---      BYTE      cmdSubheader
      R15         REGSYM    ---      BYTE      type
      00FF51D1H   BLOCK     CODE     NEAR LAB  LVL=1
      00FF51D1H   LINE      ---      ---       #1229
      00FF51D6H   LINE      ---      ---       #1232
      00FF51DEH   LINE      ---      ---       #1234
      00FF520DH   LINE      ---      ---       #1236
      00FF520DH   LINE      ---      ---       #1237
      00FF5213H   LINE      ---      ---       #1238
      00FF5215H   LINE      ---      ---       #1240
      00FF5215H   LINE      ---      ---       #1241
      00FF5215H   LINE      ---      ---       #1242
      00FF5215H   LINE      ---      ---       #1243
      00FF5215H   LINE      ---      ---       #1245
      00FF5221H   LINE      ---      ---       #1246
      00FF5224H   LINE      ---      ---       #1248
      00FF522EH   LINE      ---      ---       #1250
      00FF522EH   LINE      ---      ---       #1251
      00FF5230H   LINE      ---      ---       #1255
      00FF5238H   LINE      ---      ---       #1256
      00FF5238H   LINE      ---      ---       #1257
      00FF523AH   LINE      ---      ---       #1259
      00FF523AH   LINE      ---      ---       #1260
      00FF523AH   LINE      ---      ---       #1261
      00FF523AH   LINE      ---      ---       #1262
      00FF523AH   LINE      ---      ---       #1263
      00FF5243H   LINE      ---      ---       #1264
      00FF5245H   LINE      ---      ---       #1266
      00FF5245H   LINE      ---      ---       #1267
      00FF5250H   LINE      ---      ---       #1269
      00FF5252H   LINE      ---      ---       #1270
      00FF5252H   LINE      ---      ---       #1271
      00FF5254H   LINE      ---      ---       #1273
      00FF5254H   LINE      ---      ---       #1274
      00FF525AH   LINE      ---      ---       #1275
      00FF525AH   LINE      ---      ---       #1276
      00FF525AH   LINE      ---      ---       #1278
      0000B5CEH   SYMBOL    EDATA    BYTE      cmdCnfStatus
      0000B5CFH   SYMBOL    EDATA    BYTE      listidx
      ---         BLOCKEND  CODE     ---       LVL=1
      00FF5265H   LINE      ---      ---       #1279
      00FF5265H   LINE      CODE     ---       #1279

      00FF5063H   BLOCK     CODE     ---       LVL=0
      00FF5063H   LINE      ---      ---       #1296
      00FF5067H   LINE      ---      ---       #1298
      00FF506AH   LINE      ---      ---       #1300
      00FF5085H   LINE      ---      ---       #1301
      00FF5089H   LINE      ---      ---       #1303
      00FF5090H   LINE      ---      ---       #1304
      00FF5092H   LINE      ---      ---       #1306
      00FF509DH   LINE      ---      ---       #1307
      00FF50ABH   LINE      ---      ---       #1309
      00FF50B5H   LINE      ---      ---       #1311
      00FF50BBH   LINE      ---      ---       #1312
      00FF50CDH   LINE      ---      ---       #1314
      00FF50CFH   LINE      ---      ---       #1316
      REG=7       REGSYM    ---      ---       pCmdAddress
      ---         BLOCKEND  ---      ---       LVL=0

      00FF514DH   BLOCK     CODE     ---       LVL=0
L251 LINKER/LOCATER V4.66.93.0                                                        02/16/2024  15:12:23  PAGE 91


      00FF514DH   LINE      ---      ---       #1318
      00FF514DH   LINE      ---      ---       #1320
      00FF514DH   LINE      ---      ---       #1321
      00FF5157H   LINE      ---      ---       #1323
      ---         BLOCKEND  ---      ---       LVL=0

      00FF5183H   BLOCK     CODE     ---       LVL=0
      00FF5183H   LINE      ---      ---       #1326
      00FF5183H   LINE      ---      ---       #1328
      00FF5183H   LINE      ---      ---       #1329
      00FF518DH   LINE      ---      ---       #1331
      ---         BLOCKEND  ---      ---       LVL=0

      00FF5680H   BLOCK     CODE     ---       LVL=0
      00FF5680H   LINE      ---      ---       #1335
      00FF5684H   LINE      ---      ---       #1337
      00FF569FH   LINE      ---      ---       #1338
      00FF56A3H   LINE      ---      ---       #1340
      00FF56AEH   LINE      ---      ---       #1341
      00FF56B8H   LINE      ---      ---       #1343
      REG=7       REGSYM    ---      ---       pCmdAddress
      ---         BLOCKEND  ---      ---       LVL=0

      00FF2F80H   BLOCK     CODE     ---       LVL=0
      00FF2F80H   LINE      ---      ---       #1348
      00FF2F84H   LINE      ---      ---       #1349
      REG=7       REGSYM    ---      ---       pCmdAddress
      00FF2F84H   BLOCK     CODE     NEAR LAB  LVL=1
      00FF2F84H   LINE      ---      ---       #1362
      00FF2F86H   LINE      ---      ---       #1366
      00FF2F88H   LINE      ---      ---       #1367
      00FF2F90H   LINE      ---      ---       #1370
      00FF2F96H   LINE      ---      ---       #1372
      00FF2FAEH   LINE      ---      ---       #1379
      REG=3       REGSYM    ---      ---       pCmdIn
      R15         REGSYM    ---      BYTE      rfkBandType
      ---         BLOCKEND  CODE     ---       LVL=1
      00FF2FB7H   LINE      ---      ---       #1380
      00FF2FB7H   LINE      CODE     ---       #1380

      00FF8FAFH   BLOCK     CODE     ---       LVL=0
      00FF8FAFH   LINE      ---      ---       #1382
      00FF8FB3H   LINE      ---      ---       #1388
      00FF8FB6H   LINE      ---      ---       #1395
      00FF8FBAH   LINE      ---      ---       #1397
      00FF8FC1H   LINE      ---      ---       #1398
      00FF8FC7H   LINE      ---      ---       #1401
      00FF8FD3H   LINE      ---      ---       #1402
      00FF8FE5H   LINE      ---      ---       #1405
      00FF8FEAH   LINE      ---      ---       #1406
      REG=7       REGSYM    ---      ---       pCmdAddress
      ---         BLOCKEND  ---      ---       LVL=0

      00FF8FEDH   BLOCK     CODE     ---       LVL=0
      00FF8FEDH   LINE      ---      ---       #1407
      REG=7       REGSYM    ---      ---       pCmdAddress
      00FF8FF1H   BLOCK     CODE     NEAR LAB  LVL=1
      00FF8FF4H   LINE      ---      ---       #1423
      00FF8FF8H   LINE      ---      ---       #1425
      00FF8FFBH   LINE      ---      ---       #1442
      00FF8FFDH   LINE      ---      ---       #1443
      00FF9008H   LINE      ---      ---       #1444
      00FF900BH   LINE      ---      ---       #1445
      00FF9019H   LINE      ---      ---       #1447
      00FF901CH   LINE      ---      ---       #1448
L251 LINKER/LOCATER V4.66.93.0                                                        02/16/2024  15:12:23  PAGE 92


      00FF9020H   LINE      ---      ---       #1449
      00FF9023H   LINE      ---      ---       #1450
      00FF902AH   LINE      ---      ---       #1452
      00FF9034H   LINE      ---      ---       #1455
      R11         REGSYM    ---      BYTE      crcType
      R11         REGSYM    ---      BYTE      whiteningEn
      R13         REGSYM    ---      BYTE      result
      ---         BLOCKEND  CODE     ---       LVL=1
      00FF903EH   LINE      ---      ---       #1456
      00FF903EH   LINE      CODE     ---       #1456

      00FF2EF5H   BLOCK     CODE     ---       LVL=0
      00FF2EF5H   LINE      ---      ---       #1508
      00FF2EF5H   LINE      ---      ---       #1519
      00FF2EF7H   LINE      ---      ---       #1528
      00FF2F0DH   LINE      ---      ---       #1535
      ---         BLOCKEND  ---      ---       LVL=0

      00FF8BD6H   BLOCK     CODE     ---       LVL=0
      00FF8BD6H   LINE      ---      ---       #1538
      00FF8BDCH   LINE      ---      ---       #1539
      REG=7       REGSYM    ---      ---       pCmdAddress
      00FF8BDCH   BLOCK     CODE     NEAR LAB  LVL=1
      00FF8BDCH   LINE      ---      ---       #1546
      00FF8BDFH   LINE      ---      ---       #1553
      00FF8BDFH   LINE      ---      ---       #1555
      00FF8BE8H   LINE      ---      ---       #1557
      00FF8BF4H   LINE      ---      ---       #1558
      00FF8BFEH   LINE      ---      ---       #1560
      00FF8C0CH   LINE      ---      ---       #1561
      00FF8C20H   LINE      ---      ---       #1562
      00FF8C33H   LINE      ---      ---       #1567
      00FF8C35H   LINE      ---      ---       #1570
      00FF8C39H   LINE      ---      ---       #1572
      00FF8C3FH   LINE      ---      ---       #1574
      00FF8C48H   LINE      ---      ---       #1575
      00FF8C4FH   LINE      ---      ---       #1577
      00FF8C57H   LINE      ---      ---       #1578
      00FF8C57H   LINE      ---      ---       #1580
      00FF8C61H   LINE      ---      ---       #1582
      00FF8C6DH   LINE      ---      ---       #1583
      00FF8C7FH   LINE      ---      ---       #1588
      00FF8C7FH   LINE      ---      ---       #1590
      REG=7       REGSYM    ---      ---       pCmdIn
      ---         BLOCKEND  CODE     ---       LVL=1
      00FF8C84H   LINE      ---      ---       #1591
      00FF8C84H   LINE      CODE     ---       #1591

      00FF4524H   BLOCK     CODE     ---       LVL=0
      00FF4524H   LINE      ---      ---       #1593
      00FF4528H   LINE      ---      ---       #1594
      REG=7       REGSYM    ---      ---       pCmdAddress
      00FF4528H   BLOCK     CODE     NEAR LAB  LVL=1
      00FF4528H   LINE      ---      ---       #1601
      00FF452BH   LINE      ---      ---       #1605
      00FF4545H   LINE      ---      ---       #1608
      00FF4545H   LINE      ---      ---       #1611
      00FF454BH   LINE      ---      ---       #1612
      00FF454FH   LINE      ---      ---       #1614
      00FF4559H   LINE      ---      ---       #1616
      00FF4567H   LINE      ---      ---       #1617
      00FF4580H   LINE      ---      ---       #1618
      00FF4599H   LINE      ---      ---       #1626
      REG=7       REGSYM    ---      ---       pCmdIn
      ---         BLOCKEND  CODE     ---       LVL=1
L251 LINKER/LOCATER V4.66.93.0                                                        02/16/2024  15:12:23  PAGE 93


      00FF45A3H   LINE      ---      ---       #1627
      00FF45A3H   LINE      CODE     ---       #1627

      00FF8F0CH   BLOCK     CODE     ---       LVL=0
      00FF8F0CH   LINE      ---      ---       #1630
      00FF8F10H   LINE      ---      ---       #1631
      REG=7       REGSYM    ---      ---       pCmdAddress
      00FF8F10H   BLOCK     CODE     NEAR LAB  LVL=1
      00FF8F10H   LINE      ---      ---       #1634
      00FF8F16H   LINE      ---      ---       #1635
      00FF8F1EH   LINE      ---      ---       #1636
      00FF8F20H   LINE      ---      ---       #1637
      00FF8F20H   LINE      ---      ---       #1639
      00FF8F3BH   LINE      ---      ---       #1641
      00FF8F3DH   LINE      ---      ---       #1643
      00FF8F45H   LINE      ---      ---       #1644
      00FF8F4DH   LINE      ---      ---       #1645
      00FF8F55H   LINE      ---      ---       #1646
      00FF8F5DH   LINE      ---      ---       #1647
      00FF8F65H   LINE      ---      ---       #1648
      00FF8F6DH   LINE      ---      ---       #1649
      00FF8F75H   LINE      ---      ---       #1650
      00FF8F7DH   LINE      ---      ---       #1651
      00FF8F89H   LINE      ---      ---       #1652
      00FF8F95H   LINE      ---      ---       #1653
      00FF8FA2H   LINE      ---      ---       #1655
      REG=3       REGSYM    ---      ---       p_para
      ---         BLOCKEND  CODE     ---       LVL=1
      00FF8FACH   LINE      ---      ---       #1656
      00FF8FACH   LINE      CODE     ---       #1656

      00FF8D5BH   BLOCK     CODE     ---       LVL=0
      00FF8D5BH   LINE      ---      ---       #1658
      00FF8D5BH   LINE      ---      ---       #1659
      REG=3       REGSYM    ---      ---       pCmdAddress
      00FF8D5BH   BLOCK     CODE     NEAR LAB  LVL=1
      00FF8D5BH   LINE      ---      ---       #1660
      00FF8D5DH   LINE      ---      ---       #1663
      00FF8D63H   LINE      ---      ---       #1664
      00FF8D6BH   LINE      ---      ---       #1665
      00FF8D6DH   LINE      ---      ---       #1666
      00FF8D6DH   LINE      ---      ---       #1671
      00FF8D7FH   LINE      ---      ---       #1674
      REG=2       REGSYM    ---      ---       para
      R6          REGSYM    ---      BYTE      result
      ---         BLOCKEND  CODE     ---       LVL=1
      ---         BLOCKEND  CODE     ---       LVL=0

      00FF8D2BH   BLOCK     CODE     ---       LVL=0
      00FF8D2BH   LINE      ---      ---       #1677
      00FF8D2BH   LINE      ---      ---       #1678
      REG=3       REGSYM    ---      ---       pCmdAddress
      00FF8D2BH   BLOCK     CODE     NEAR LAB  LVL=1
      00FF8D2BH   LINE      ---      ---       #1679
      00FF8D2DH   LINE      ---      ---       #1681
      00FF8D33H   LINE      ---      ---       #1682
      00FF8D3BH   LINE      ---      ---       #1683
      00FF8D3DH   LINE      ---      ---       #1684
      00FF8D3DH   LINE      ---      ---       #1686
      00FF8D45H   LINE      ---      ---       #1688
      00FF8D47H   LINE      ---      ---       #1692
      00FF8D51H   LINE      ---      ---       #1694
      00FF8D51H   LINE      ---      ---       #1696
      REG=2       REGSYM    ---      ---       para
      ---         BLOCKEND  CODE     ---       LVL=1
L251 LINKER/LOCATER V4.66.93.0                                                        02/16/2024  15:12:23  PAGE 94


      ---         BLOCKEND  CODE     ---       LVL=0

      00FF8E9AH   BLOCK     CODE     ---       LVL=0
      00FF8E9AH   LINE      ---      ---       #1699
      00FF8E9AH   LINE      ---      ---       #1701
      00FF8E9AH   LINE      ---      ---       #1703
      00FF8EA0H   LINE      ---      ---       #1704
      00FF8EA8H   LINE      ---      ---       #1705
      00FF8EAAH   LINE      ---      ---       #1706
      00FF8EAAH   LINE      ---      ---       #1708
      00FF8EB0H   LINE      ---      ---       #1709
      00FF8EB5H   LINE      ---      ---       #1711
      ---         BLOCKEND  ---      ---       LVL=0

      00FF8D0DH   BLOCK     CODE     ---       LVL=0
      00FF8D0DH   LINE      ---      ---       #1714
      00FF8D0DH   LINE      ---      ---       #1716
      00FF8D0DH   LINE      ---      ---       #1718
      00FF8D13H   LINE      ---      ---       #1719
      00FF8D1EH   LINE      ---      ---       #1720
      00FF8D1EH   LINE      ---      ---       #1721
      00FF8D1EH   LINE      ---      ---       #1723
      00FF8D20H   LINE      ---      ---       #1724
      00FF8D26H   LINE      ---      ---       #1725
      ---         BLOCKEND  ---      ---       LVL=0

      00FF8CF0H   BLOCK     CODE     ---       LVL=0
      00FF8CF0H   LINE      ---      ---       #1728
      00FF8CF0H   LINE      ---      ---       #1730
      00FF8CF0H   LINE      ---      ---       #1732
      00FF8CFEH   LINE      ---      ---       #1733
      00FF8D09H   LINE      ---      ---       #1734
      00FF8D09H   LINE      ---      ---       #1735
      00FF8D09H   LINE      ---      ---       #1740
      ---         BLOCKEND  ---      ---       LVL=0

      00FF2FBAH   BLOCK     CODE     ---       LVL=0
      00FF2FBAH   LINE      ---      ---       #1744
      00FF2FBCH   LINE      ---      ---       #1745
      REG=3       REGSYM    ---      ---       pCmdAddress
      00FF2FBCH   BLOCK     CODE     NEAR LAB  LVL=1
      00FF2FBCH   LINE      ---      ---       #1746
      00FF2FBEH   LINE      ---      ---       #1747
      00FF2FC7H   LINE      ---      ---       #1749
      00FF2FCFH   LINE      ---      ---       #1750
      00FF2FD1H   LINE      ---      ---       #1751
      00FF2FD1H   LINE      ---      ---       #1756
      00FF2FD3H   LINE      ---      ---       #1762
      00FF2FEFH   LINE      ---      ---       #1764
      REG=7       REGSYM    ---      ---       para
      ---         BLOCKEND  CODE     ---       LVL=1
      00FF2FF8H   LINE      ---      ---       #1766
      00FF2FF8H   LINE      CODE     ---       #1766

      00FF5F17H   BLOCK     CODE     ---       LVL=0
      00FF5F17H   LINE      ---      ---       #1768
      00FF5F19H   LINE      ---      ---       #1769
      REG=3       REGSYM    ---      ---       pCmdAddress
      00FF5F19H   BLOCK     CODE     NEAR LAB  LVL=1
      00FF5F19H   LINE      ---      ---       #1770
      00FF5F1BH   LINE      ---      ---       #1772
      00FF5F24H   LINE      ---      ---       #1773
      00FF5F2FH   LINE      ---      ---       #1774
      00FF5F31H   LINE      ---      ---       #1775
      00FF5F31H   LINE      ---      ---       #1777
L251 LINKER/LOCATER V4.66.93.0                                                        02/16/2024  15:12:23  PAGE 95


      00FF5F3BH   LINE      ---      ---       #1779
      00FF5F4CH   LINE      ---      ---       #1781
      00FF5F4CH   LINE      ---      ---       #1782
      00FF5F4FH   LINE      ---      ---       #1783
      00FF5F51H   LINE      ---      ---       #1784
      00FF5F51H   LINE      ---      ---       #1785
      00FF5F54H   LINE      ---      ---       #1786
      00FF5F56H   LINE      ---      ---       #1787
      00FF5F56H   LINE      ---      ---       #1788
      00FF5F59H   LINE      ---      ---       #1789
      00FF5F5BH   LINE      ---      ---       #1790
      00FF5F5BH   LINE      ---      ---       #1791
      00FF5F5DH   LINE      ---      ---       #1792
      00FF5F5DH   LINE      ---      ---       #1793
      REG=7       REGSYM    ---      ---       para
      ---         BLOCKEND  CODE     ---       LVL=1
      00FF5F5DH   LINE      ---      ---       #1795
      00FF5F5DH   LINE      CODE     ---       #1795

      00FF2F16H   BLOCK     CODE     ---       LVL=0
      00FF2F16H   LINE      ---      ---       #1802
      00FF2F1AH   LINE      ---      ---       #1803
      REG=7       REGSYM    ---      ---       pCmdAddress
      00FF2F1AH   BLOCK     CODE     NEAR LAB  LVL=1
      00FF2F1AH   LINE      ---      ---       #1815
      00FF2F1CH   LINE      ---      ---       #1822
      00FF2F20H   LINE      ---      ---       #1824
      00FF2F25H   LINE      ---      ---       #1827
      00FF2F28H   LINE      ---      ---       #1828
      00FF2F28H   LINE      ---      ---       #1831
      00FF2F2CH   LINE      ---      ---       #1833
      00FF2F42H   LINE      ---      ---       #1839
      R15         REGSYM    ---      BYTE      rfkBandType
      ---         BLOCKEND  CODE     ---       LVL=1
      00FF2F4BH   LINE      ---      ---       #1840
      00FF2F4BH   LINE      CODE     ---       #1840

      00FF8B94H   BLOCK     CODE     ---       LVL=0
      00FF8B94H   LINE      ---      ---       #1842
      00FF8B98H   LINE      ---      ---       #1843
      REG=7       REGSYM    ---      ---       pCmdAddress
      00FF8B98H   BLOCK     CODE     NEAR LAB  LVL=1
      00FF8B98H   LINE      ---      ---       #1850
      00FF8B9BH   LINE      ---      ---       #1857
      00FF8B9FH   LINE      ---      ---       #1859
      00FF8BA6H   LINE      ---      ---       #1860
      00FF8BACH   LINE      ---      ---       #1861
      00FF8BB0H   LINE      ---      ---       #1862
      00FF8BBCH   LINE      ---      ---       #1863
      00FF8BCEH   LINE      ---      ---       #1865
      R15         REGSYM    ---      BYTE      modIdx
      ---         BLOCKEND  CODE     ---       LVL=1
      00FF8BD3H   LINE      ---      ---       #1866
      00FF8BD3H   LINE      CODE     ---       #1866

      00FF475DH   BLOCK     CODE     ---       LVL=0
      00FF475DH   LINE      ---      ---       #1868
      REG=7       REGSYM    ---      ---       pCmdAddress
      00FF4761H   BLOCK     CODE     NEAR LAB  LVL=1
      00FF4764H   LINE      ---      ---       #1884
      00FF4768H   LINE      ---      ---       #1886
      00FF476BH   LINE      ---      ---       #1887
      00FF476DH   LINE      ---      ---       #1888
      00FF4777H   LINE      ---      ---       #1889
      00FF477AH   LINE      ---      ---       #1890
L251 LINKER/LOCATER V4.66.93.0                                                        02/16/2024  15:12:23  PAGE 96


      00FF4786H   LINE      ---      ---       #1892
      00FF4789H   LINE      ---      ---       #1894
      00FF478DH   LINE      ---      ---       #1895
      00FF4790H   LINE      ---      ---       #1896
      00FF4796H   LINE      ---      ---       #1898
      00FF479EH   LINE      ---      ---       #1904
      R11         REGSYM    ---      BYTE      crcType
      R11         REGSYM    ---      BYTE      whiteningEn
      R13         REGSYM    ---      BYTE      result
      ---         BLOCKEND  CODE     ---       LVL=1
      00FF47A8H   LINE      ---      ---       #1905
      00FF47A8H   LINE      CODE     ---       #1905

      00FF2ED9H   BLOCK     CODE     ---       LVL=0
      00FF2ED9H   LINE      ---      ---       #1907
      00FF2EDDH   LINE      ---      ---       #1908
      REG=7       REGSYM    ---      ---       pCmdAddress
      00FF2EDDH   BLOCK     CODE     NEAR LAB  LVL=1
      00FF2EDDH   LINE      ---      ---       #1915
      00FF2EDFH   LINE      ---      ---       #1922
      00FF2EE3H   LINE      ---      ---       #1924
      00FF2EE6H   LINE      ---      ---       #1925
      00FF2EE9H   LINE      ---      ---       #1931
      R11         REGSYM    ---      BYTE      preambleLen
      ---         BLOCKEND  CODE     ---       LVL=1
      00FF2EF2H   LINE      ---      ---       #1932
      00FF2EF2H   LINE      CODE     ---       #1932

      00FF40EAH   BLOCK     CODE     ---       LVL=0
      00FF40EAH   LINE      ---      ---       #1934
      00FF40EEH   LINE      ---      ---       #1935
      REG=7       REGSYM    ---      ---       pCmdAddress
      00FF40EEH   BLOCK     CODE     NEAR LAB  LVL=1
      00FF40EEH   LINE      ---      ---       #1942
      00FF40F1H   LINE      ---      ---       #1946
      00FF410BH   LINE      ---      ---       #1947
      00FF410FH   LINE      ---      ---       #1949
      00FF4118H   LINE      ---      ---       #1950
      00FF4120H   LINE      ---      ---       #1951
      00FF4128H   LINE      ---      ---       #1957
      DR12        REGSYM    ---      DWORD     sfdContent
      ---         BLOCKEND  CODE     ---       LVL=1
      00FF4132H   LINE      ---      ---       #1958
      00FF4132H   LINE      CODE     ---       #1958

      00FF4709H   BLOCK     CODE     ---       LVL=0
      00FF4709H   LINE      ---      ---       #1960
      00FF4709H   LINE      ---      ---       #1961
      REG=3       REGSYM    ---      ---       pCmdAddress
      00FF4709H   BLOCK     CODE     NEAR LAB  LVL=1
      00FF4709H   LINE      ---      ---       #1970
      00FF4709H   LINE      ---      ---       #1972
      00FF4711H   LINE      ---      ---       #1978
      REG=3       REGSYM    ---      ---       pCmdIn
      ---         BLOCKEND  CODE     ---       LVL=1
      ---         BLOCKEND  CODE     ---       LVL=0

      00FF8831H   BLOCK     CODE     ---       LVL=0
      00FF8831H   LINE      ---      ---       #2067
      00FF8835H   LINE      ---      ---       #2068
      REG=7       REGSYM    ---      ---       pCmdAddress
      00FF8835H   BLOCK     CODE     NEAR LAB  LVL=1
      00FF8835H   LINE      ---      ---       #2079
      00FF8842H   LINE      ---      ---       #2089
      00FF8845H   LINE      ---      ---       #2094
L251 LINKER/LOCATER V4.66.93.0                                                        02/16/2024  15:12:23  PAGE 97


      00FF8860H   LINE      ---      ---       #2097
      00FF8862H   LINE      ---      ---       #2098
      00FF886AH   LINE      ---      ---       #2101
      00FF8870H   LINE      ---      ---       #2102
      00FF887DH   LINE      ---      ---       #2105
      00FF887DH   LINE      ---      ---       #2106
      00FF888DH   LINE      ---      ---       #2108
      00FF888DH   LINE      ---      ---       #2109
      00FF888DH   LINE      ---      ---       #2111
      00FF8899H   LINE      ---      ---       #2113
      00FF889BH   LINE      ---      ---       #2116
      00FF889BH   LINE      ---      ---       #2117
      00FF88B3H   LINE      ---      ---       #2119
      00FF88B3H   LINE      ---      ---       #2120
      00FF88B3H   LINE      ---      ---       #2122
      00FF88BBH   LINE      ---      ---       #2124
      00FF88BBH   LINE      ---      ---       #2126
      00FF88BBH   LINE      ---      ---       #2127
      00FF88BBH   LINE      ---      ---       #2129
      00FF88BBH   LINE      ---      ---       #2130
      00FF88C0H   LINE      ---      ---       #2132
      00FF88C4H   LINE      ---      ---       #2133
      00FF88C8H   LINE      ---      ---       #2135
      00FF88CFH   LINE      ---      ---       #2137
      00FF88E4H   LINE      ---      ---       #2139
      00FF8906H   LINE      ---      ---       #2140
      00FF8911H   LINE      ---      ---       #2141
      00FF8911H   LINE      ---      ---       #2147
      00FF8911H   LINE      ---      ---       #2148
      00FF8911H   SYMBOL    CODE     NEAR LAB  DONE?5341?mac_cmd_hdlr
      REG=3       REGSYM    ---      ---       pCmdIn
      DR12        REGSYM    ---      DWORD     freqTmp
      0000B589H   SYMBOL    EDATA    BYTE      result
      0000B58AH   SYMBOL    EDATA    WORD      bufferAddress_LOCAL
      REG=3       REGSYM    ---      ---       pOutput
      0000B58CH   SYMBOL    EDATA    BYTE      channelTmp
      00FF8923H   SYMBOL    CODE     NEAR LAB  DONE?5341
      ---         BLOCKEND  CODE     ---       LVL=1
      00FF891DH   LINE      ---      ---       #2149
      00FF891DH   LINE      CODE     ---       #2149

      00FF8920H   BLOCK     CODE     ---       LVL=0
      00FF8920H   LINE      ---      ---       #2153
      00FF8924H   LINE      ---      ---       #2158
      00FF8927H   LINE      ---      ---       #2161
      00FF8942H   LINE      ---      ---       #2162
      00FF8946H   LINE      ---      ---       #2164
      00FF8951H   LINE      ---      ---       #2171
      00FF8957H   LINE      ---      ---       #2172
      00FF895FH   LINE      ---      ---       #2174
      00FF8967H   LINE      ---      ---       #2175
      REG=7       REGSYM    ---      ---       pCmdAddress
      ---         BLOCKEND  ---      ---       LVL=0

      00FF7DEAH   BLOCK     CODE     ---       LVL=0
      00FF7DEAH   LINE      ---      ---       #2179
      00FF7DEEH   LINE      ---      ---       #2184
      00FF7DF2H   LINE      ---      ---       #2187
      00FF7E02H   LINE      ---      ---       #2188
      00FF7E06H   LINE      ---      ---       #2191
      00FF7E0DH   LINE      ---      ---       #2192
      00FF7E13H   LINE      ---      ---       #2196
      00FF7E1CH   LINE      ---      ---       #2197
      00FF7E24H   LINE      ---      ---       #2198
      REG=7       REGSYM    ---      ---       pCmdAddress
L251 LINKER/LOCATER V4.66.93.0                                                        02/16/2024  15:12:23  PAGE 98


      ---         BLOCKEND  ---      ---       LVL=0

      00FF28F1H   BLOCK     CODE     ---       LVL=0
      00FF28F5H   LINE      ---      ---       #2217
      00FF28F9H   LINE      ---      ---       #2218
      00FF28F1H   SYMBOL    CODE     NEAR LAB  ?L?COM004D
      00FF28F9H   BLOCK     CODE     NEAR LAB  LVL=1
      00FF28F9H   LINE      ---      ---       #2222
      00FF28F9H   LINE      ---      ---       #2224
      00FF28FBH   LINE      ---      ---       #2225
      00FF2901H   LINE      ---      ---       #2229
      00FF2905H   LINE      ---      ---       #2232
      00FF2907H   LINE      ---      ---       #2234
      00FF2918H   LINE      ---      ---       #2236
      00FF2918H   LINE      ---      ---       #2237
      00FF2918H   LINE      ---      ---       #2239
      00FF2918H   LINE      ---      ---       #2240
      00FF291BH   LINE      ---      ---       #2241
      00FF291EH   LINE      ---      ---       #2242
      00FF2920H   LINE      ---      ---       #2245
      00FF2920H   LINE      ---      ---       #2249
      00FF2922H   LINE      ---      ---       #2252
      00FF2925H   LINE      ---      ---       #2253
      00FF2930H   LINE      ---      ---       #2254
      00FF2933H   LINE      ---      ---       #2255
      00FF2938H   LINE      ---      ---       #2256
      00FF293DH   LINE      ---      ---       #2257
      00FF2942H   LINE      ---      ---       #2258
      00FF2960H   LINE      ---      ---       #2260
      00FF2963H   LINE      ---      ---       #2261
      00FF296EH   LINE      ---      ---       #2262
      00FF296EH   LINE      ---      ---       #2263
      00FF2971H   LINE      ---      ---       #2274
      00FF2973H   LINE      ---      ---       #2277
      00FF2973H   LINE      ---      ---       #2278
      00FF2978H   LINE      ---      ---       #2279
      00FF2978H   LINE      ---      ---       #2280
      00FF297CH   LINE      ---      ---       #2281
      00FF297CH   LINE      ---      ---       #2322
      00FF297CH   LINE      ---      ---       #2323
      00FF297CH   LINE      ---      ---       #2324
      00FF297CH   LINE      ---      ---       #2330
      00FF297FH   LINE      ---      ---       #2336
      00FF2981H   LINE      ---      ---       #2343
      00FF2986H   LINE      ---      ---       #2345
      00FF2988H   LINE      ---      ---       #2346
      00FF298AH   LINE      ---      ---       #2349
      00FF298DH   LINE      ---      ---       #2350
      00FF2992H   LINE      ---      ---       #2351
      00FF2996H   LINE      ---      ---       #2353
      00FF29ACH   LINE      ---      ---       #2358
      00FF29AFH   LINE      ---      ---       #2360
      00FF29B4H   LINE      ---      ---       #2361
      R10         REGSYM    ---      BYTE      MacState
      R13         REGSYM    ---      BYTE      queueClr
      WR14        REGSYM    ---      WORD      macFunEventQueue
      ---         BLOCKEND  CODE     ---       LVL=1
      00FF29B8H   LINE      ---      ---       #2372
      00FF29B8H   LINE      CODE     ---       #2372

      00FF7BB5H   BLOCK     CODE     ---       LVL=0
      00FF7BB5H   LINE      ---      ---       #2375
      00FF7BB7H   LINE      ---      ---       #2377
      00FF7C24H   LINE      ---      ---       #2379
      00FF7C24H   LINE      ---      ---       #2380
L251 LINKER/LOCATER V4.66.93.0                                                        02/16/2024  15:12:23  PAGE 99


      00FF7C29H   LINE      ---      ---       #2381
      00FF7C29H   LINE      ---      ---       #2383
      00FF7C29H   LINE      ---      ---       #2384
      00FF7C2EH   LINE      ---      ---       #2385
      00FF7C2EH   LINE      ---      ---       #2387
      00FF7C2EH   LINE      ---      ---       #2388
      00FF7C32H   LINE      ---      ---       #2389
      00FF7C32H   LINE      ---      ---       #2391
      00FF7C32H   LINE      ---      ---       #2392
      00FF7C37H   LINE      ---      ---       #2393
      00FF7C37H   LINE      ---      ---       #2396
      00FF7C37H   LINE      ---      ---       #2397
      00FF7C3BH   LINE      ---      ---       #2398
      00FF7C3BH   LINE      ---      ---       #2399
      00FF7C3BH   LINE      ---      ---       #2400
      00FF7C40H   LINE      ---      ---       #2401
      00FF7C40H   LINE      ---      ---       #2402
      00FF7C40H   LINE      ---      ---       #2403
      00FF7C44H   LINE      ---      ---       #2404
      00FF7C44H   LINE      ---      ---       #2405
      00FF7C44H   LINE      ---      ---       #2406
      00FF7C49H   LINE      ---      ---       #2407
      00FF7C49H   LINE      ---      ---       #2408
      00FF7C49H   LINE      ---      ---       #2409
      00FF7C4DH   LINE      ---      ---       #2410
      00FF7C4DH   LINE      ---      ---       #2411
      00FF7C4DH   LINE      ---      ---       #2412
      00FF7C51H   LINE      ---      ---       #2413
      00FF7C51H   LINE      ---      ---       #2416
      00FF7C51H   LINE      ---      ---       #2417
      00FF7C56H   LINE      ---      ---       #2418
      00FF7C56H   LINE      ---      ---       #2419
      00FF7C56H   LINE      ---      ---       #2420
      00FF7C5BH   LINE      ---      ---       #2421
      00FF7C5BH   LINE      ---      ---       #2422
      00FF7C5BH   LINE      ---      ---       #2423
      00FF7C5BH   LINE      ---      ---       #2424
      00FF7C5DH   LINE      ---      ---       #2426
      00FF7C5DH   LINE      ---      ---       #2427
      00FF7C61H   LINE      ---      ---       #2428
      00FF7C61H   LINE      ---      ---       #2429
      00FF7C61H   LINE      ---      ---       #2430
      00FF7C66H   LINE      ---      ---       #2431
      00FF7C66H   LINE      ---      ---       #2433
      00FF7C66H   LINE      ---      ---       #2434
      00FF7C6BH   LINE      ---      ---       #2435
      00FF7C6BH   LINE      ---      ---       #2436
      00FF7C6BH   LINE      ---      ---       #2437
      00FF7C6FH   LINE      ---      ---       #2438
      00FF7C6FH   LINE      ---      ---       #2439
      00FF7C6FH   LINE      ---      ---       #2440
      00FF7C73H   LINE      ---      ---       #2441
      00FF7C73H   LINE      ---      ---       #2444
      00FF7C73H   LINE      ---      ---       #2445
      00FF7C76H   LINE      ---      ---       #2446
      00FF7C7BH   LINE      ---      ---       #2447
      00FF7C7BH   LINE      ---      ---       #2449
      00FF7C7BH   LINE      ---      ---       #2450
      00FF7C80H   LINE      ---      ---       #2451
      00FF7C80H   LINE      ---      ---       #2452
      00FF7C80H   LINE      ---      ---       #2453
      R11         REGSYM    ---      BYTE      cmdId
      REG=4       REGSYM    ---      ---       pCmdAddress
      REG=2       REGSYM    ---      ---       pCmdCnfStatus
      ---         BLOCKEND  ---      ---       LVL=0
L251 LINKER/LOCATER V4.66.93.0                                                        02/16/2024  15:12:23  PAGE 100



      00FF50D2H   BLOCK     CODE     ---       LVL=0
      00FF50D2H   LINE      ---      ---       #2456
      00FF50D4H   LINE      ---      ---       #2458
      00FF5109H   LINE      ---      ---       #2460
      00FF5109H   LINE      ---      ---       #2461
      00FF510DH   LINE      ---      ---       #2462
      00FF510DH   LINE      ---      ---       #2463
      00FF510DH   LINE      ---      ---       #2464
      00FF5111H   LINE      ---      ---       #2465
      00FF5111H   LINE      ---      ---       #2466
      00FF5111H   LINE      ---      ---       #2467
      00FF5115H   LINE      ---      ---       #2468
      00FF5115H   LINE      ---      ---       #2469
      00FF5115H   LINE      ---      ---       #2470
      00FF5119H   LINE      ---      ---       #2471
      00FF5119H   LINE      ---      ---       #2472
      00FF5119H   LINE      ---      ---       #2473
      00FF511DH   LINE      ---      ---       #2474
      00FF511DH   LINE      ---      ---       #2475
      00FF511DH   LINE      ---      ---       #2476
      00FF5122H   LINE      ---      ---       #2477
      00FF5122H   LINE      ---      ---       #2479
      00FF5122H   LINE      ---      ---       #2480
      00FF5126H   LINE      ---      ---       #2481
      00FF5126H   LINE      ---      ---       #2482
      00FF5126H   LINE      ---      ---       #2483
      00FF512CH   LINE      ---      ---       #2484
      00FF512EH   LINE      ---      ---       #2485
      00FF512EH   LINE      ---      ---       #2486
      00FF5137H   LINE      ---      ---       #2487
      00FF5137H   LINE      ---      ---       #2491
      00FF5137H   LINE      ---      ---       #2492
      00FF513BH   LINE      ---      ---       #2493
      00FF513BH   LINE      ---      ---       #2494
      00FF513BH   LINE      ---      ---       #2495
      00FF513FH   LINE      ---      ---       #2496
      00FF513FH   LINE      ---      ---       #2497
      00FF513FH   LINE      ---      ---       #2498
      00FF5143H   LINE      ---      ---       #2499
      00FF5143H   LINE      ---      ---       #2500
      00FF5143H   LINE      ---      ---       #2501
      00FF5147H   LINE      ---      ---       #2502
      00FF5147H   LINE      ---      ---       #2505
      00FF5147H   LINE      ---      ---       #2506
      00FF514CH   LINE      ---      ---       #2507
      00FF514CH   LINE      ---      ---       #2508
      00FF514CH   LINE      ---      ---       #2509
      R11         REGSYM    ---      BYTE      cmdId
      REG=4       REGSYM    ---      ---       pCmdAddress
      REG=2       REGSYM    ---      ---       pCmdCnfStatus
      ---         BLOCKEND  ---      ---       LVL=0

      00FF8C89H   BLOCK     CODE     ---       LVL=0
      00FF8C89H   LINE      ---      ---       #2513
      00FF8C8BH   LINE      ---      ---       #2515
      00FF8CBAH   LINE      ---      ---       #2517
      00FF8CBAH   LINE      ---      ---       #2518
      00FF8CBFH   LINE      ---      ---       #2519
      00FF8CBFH   LINE      ---      ---       #2520
      00FF8CBFH   LINE      ---      ---       #2521
      00FF8CC3H   LINE      ---      ---       #2522
      00FF8CC3H   LINE      ---      ---       #2523
      00FF8CC3H   LINE      ---      ---       #2524
      00FF8CC8H   LINE      ---      ---       #2525
L251 LINKER/LOCATER V4.66.93.0                                                        02/16/2024  15:12:23  PAGE 101


      00FF8CC8H   LINE      ---      ---       #2561
      00FF8CC8H   LINE      ---      ---       #2562
      00FF8CCCH   LINE      ---      ---       #2563
      00FF8CCCH   LINE      ---      ---       #2565
      00FF8CCCH   LINE      ---      ---       #2566
      00FF8CD0H   LINE      ---      ---       #2567
      00FF8CD0H   LINE      ---      ---       #2569
      00FF8CD0H   LINE      ---      ---       #2570
      00FF8CD4H   LINE      ---      ---       #2571
      00FF8CD4H   LINE      ---      ---       #2573
      00FF8CD4H   LINE      ---      ---       #2574
      00FF8CD8H   LINE      ---      ---       #2575
      00FF8CD8H   LINE      ---      ---       #2577
      00FF8CD8H   LINE      ---      ---       #2578
      00FF8CDCH   LINE      ---      ---       #2579
      00FF8CDCH   LINE      ---      ---       #2581
      00FF8CDCH   LINE      ---      ---       #2582
      00FF8CE0H   LINE      ---      ---       #2583
      00FF8CE0H   LINE      ---      ---       #2585
      00FF8CE0H   LINE      ---      ---       #2586
      00FF8CE5H   LINE      ---      ---       #2587
      00FF8CE5H   LINE      ---      ---       #2589
      00FF8CE5H   LINE      ---      ---       #2590
      00FF8CEAH   LINE      ---      ---       #2591
      00FF8CEAH   LINE      ---      ---       #2596
      00FF8CEAH   LINE      ---      ---       #2597
      00FF8CEFH   LINE      ---      ---       #2598
      00FF8CEFH   LINE      ---      ---       #2599
      00FF8CEFH   LINE      ---      ---       #2601
      R11         REGSYM    ---      BYTE      cmdId
      REG=4       REGSYM    ---      ---       pCmdAddress
      REG=2       REGSYM    ---      ---       pCmdCnfStatus
      ---         BLOCKEND  ---      ---       LVL=0

      00FF46D9H   BLOCK     CODE     ---       LVL=0
      00FF46D9H   LINE      ---      ---       #2605
      00FF46DBH   LINE      ---      ---       #2607
      00FF46F4H   LINE      ---      ---       #2609
      00FF46F4H   LINE      ---      ---       #2610
      00FF46F7H   LINE      ---      ---       #2611
      00FF46F7H   LINE      ---      ---       #2612
      00FF46F7H   LINE      ---      ---       #2613
      00FF46FAH   LINE      ---      ---       #2614
      00FF46FAH   LINE      ---      ---       #2615
      00FF46FAH   LINE      ---      ---       #2616
      00FF46FCH   LINE      ---      ---       #2617
      00FF46FCH   LINE      ---      ---       #2618
      00FF46FCH   LINE      ---      ---       #2619
      00FF46FFH   LINE      ---      ---       #2620
      00FF46FFH   LINE      ---      ---       #2621
      00FF46FFH   LINE      ---      ---       #2622
      00FF4701H   LINE      ---      ---       #2623
      00FF4701H   LINE      ---      ---       #2624
      00FF4701H   LINE      ---      ---       #2625
      00FF4703H   LINE      ---      ---       #2626
      00FF4703H   LINE      ---      ---       #2627
      00FF4703H   LINE      ---      ---       #2628
      00FF4708H   LINE      ---      ---       #2629
      00FF4708H   LINE      ---      ---       #2630
      00FF4708H   LINE      ---      ---       #2632
      R3          REGSYM    ---      BYTE      cmdId
      REG=3       REGSYM    ---      ---       pCmdAddress
      REG=2       REGSYM    ---      ---       pCmdCnfStatus
      ---         BLOCKEND  ---      ---       LVL=0

L251 LINKER/LOCATER V4.66.93.0                                                        02/16/2024  15:12:23  PAGE 102


      00FF908FH   BLOCK     CODE     ---       LVL=0
      00FF908FH   LINE      ---      ---       #2636
      00FF9091H   LINE      ---      ---       #2638
      00FF909DH   LINE      ---      ---       #2640
      00FF909DH   LINE      ---      ---       #2641
      00FF90A0H   LINE      ---      ---       #2642
      00FF90A0H   LINE      ---      ---       #2643
      00FF90A0H   LINE      ---      ---       #2644
      00FF90A3H   LINE      ---      ---       #2645
      00FF90A3H   LINE      ---      ---       #2646
      00FF90A3H   LINE      ---      ---       #2647
      00FF90A6H   LINE      ---      ---       #2648
      00FF90A6H   LINE      ---      ---       #2649
      00FF90A6H   LINE      ---      ---       #2650
      00FF90ABH   LINE      ---      ---       #2651
      00FF90ABH   LINE      ---      ---       #2652
      00FF90ABH   LINE      ---      ---       #2654
      R3          REGSYM    ---      BYTE      cmdId
      REG=3       REGSYM    ---      ---       pCmdAddress
      REG=2       REGSYM    ---      ---       pCmdCnfStatus
      ---         BLOCKEND  ---      ---       LVL=0

      00FF3BD5H   BLOCK     CODE     ---       LVL=0
      00FF3BD5H   LINE      ---      ---       #2684
      00FF3BD7H   LINE      ---      ---       #2686
      00FF3BDBH   LINE      ---      ---       #2688
      00FF3BDBH   LINE      ---      ---       #2689
      00FF3BDDH   LINE      ---      ---       #2690
      00FF3BDDH   LINE      ---      ---       #2696
      00FF3BDDH   LINE      ---      ---       #2697
      00FF3BE2H   LINE      ---      ---       #2698
      00FF3BE2H   LINE      ---      ---       #2699
      00FF3BE2H   LINE      ---      ---       #2700
      R3          REGSYM    ---      BYTE      cmdId
      REG=3       REGSYM    ---      ---       pCmdAddress
      REG=2       REGSYM    ---      ---       pCmdCnfStatus
      ---         BLOCKEND  ---      ---       LVL=0

      00FF3D0EH   BLOCK     CODE     ---       LVL=0
      00FF3D0EH   LINE      ---      ---       #2703
      00FF3D10H   LINE      ---      ---       #2705
      00FF3D48H   LINE      ---      ---       #2707
      00FF3D48H   LINE      ---      ---       #2708
      00FF3D4DH   LINE      ---      ---       #2709
      00FF3D4DH   LINE      ---      ---       #2710
      00FF3D4DH   LINE      ---      ---       #2711
      00FF3D51H   LINE      ---      ---       #2712
      00FF3D51H   LINE      ---      ---       #2714
      00FF3D51H   LINE      ---      ---       #2715
      00FF3D56H   LINE      ---      ---       #2716
      00FF3D56H   LINE      ---      ---       #2717
      00FF3D56H   LINE      ---      ---       #2718
      00FF3D5BH   LINE      ---      ---       #2719
      00FF3D5BH   LINE      ---      ---       #2720
      00FF3D5BH   LINE      ---      ---       #2721
      00FF3D5FH   LINE      ---      ---       #2722
      00FF3D5FH   LINE      ---      ---       #2723
      00FF3D5FH   LINE      ---      ---       #2724
      00FF3D63H   LINE      ---      ---       #2725
      00FF3D63H   LINE      ---      ---       #2726
      00FF3D63H   LINE      ---      ---       #2727
      00FF3D67H   LINE      ---      ---       #2728
      00FF3D67H   LINE      ---      ---       #2729
      00FF3D67H   LINE      ---      ---       #2730
      00FF3D6BH   LINE      ---      ---       #2731
L251 LINKER/LOCATER V4.66.93.0                                                        02/16/2024  15:12:23  PAGE 103


      00FF3D6BH   LINE      ---      ---       #2732
      00FF3D6BH   LINE      ---      ---       #2733
      00FF3D6FH   LINE      ---      ---       #2734
      00FF3D6FH   LINE      ---      ---       #2735
      00FF3D6FH   LINE      ---      ---       #2736
      00FF3D73H   LINE      ---      ---       #2737
      00FF3D73H   LINE      ---      ---       #2739
      00FF3D73H   LINE      ---      ---       #2740
      00FF3D77H   LINE      ---      ---       #2741
      00FF3D77H   LINE      ---      ---       #2743
      00FF3D77H   LINE      ---      ---       #2744
      00FF3D7CH   LINE      ---      ---       #2745
      00FF3D7CH   LINE      ---      ---       #2746
      00FF3D7CH   LINE      ---      ---       #2747
      00FF3D80H   LINE      ---      ---       #2748
      00FF3D80H   LINE      ---      ---       #2749
      00FF3D80H   LINE      ---      ---       #2750
      00FF3D85H   LINE      ---      ---       #2751
      00FF3D85H   LINE      ---      ---       #2753
      00FF3D85H   LINE      ---      ---       #2754
      00FF3D8AH   LINE      ---      ---       #2755
      00FF3D8AH   LINE      ---      ---       #2756
      00FF3D8AH   LINE      ---      ---       #2757
      R11         REGSYM    ---      BYTE      cmdId
      REG=4       REGSYM    ---      ---       pCmdAddress
      REG=2       REGSYM    ---      ---       pCmdCnfStatus
      ---         BLOCKEND  ---      ---       LVL=0

      00FF3A48H   BLOCK     CODE     ---       LVL=0
      00FF3A48H   LINE      ---      ---       #2759
      00FF3A4CH   LINE      ---      ---       #2760
      00FF3A4CH   BLOCK     CODE     NEAR LAB  LVL=1
      00FF3A4CH   LINE      ---      ---       #2765
      00FF3A51H   LINE      ---      ---       #2770
      00FF3A54H   LINE      ---      ---       #2771
      00FF3A57H   LINE      ---      ---       #2774
      00FF3A5DH   LINE      ---      ---       #2775
      00FF3A5DH   LINE      ---      ---       #2776
      00FF3A63H   LINE      ---      ---       #2784
      00FF3A65H   LINE      ---      ---       #2785
      00FF3A68H   LINE      ---      ---       #2786
      00FF3A6CH   LINE      ---      ---       #2787
      00FF3A70H   LINE      ---      ---       #2788
      00FF3A84H   LINE      ---      ---       #2790
      00FF3A84H   LINE      ---      ---       #2792
      00FF3A9CH   LINE      ---      ---       #2794
      00FF3A9CH   LINE      ---      ---       #2795
      00FF3AB1H   LINE      ---      ---       #2796
      00FF3ABCH   LINE      ---      ---       #2798
      00FF3ABCH   LINE      ---      ---       #2799
      00FF3ABEH   LINE      ---      ---       #2802
      00FF3ABEH   LINE      ---      ---       #2803
      00FF3AD3H   LINE      ---      ---       #2804
      00FF3ADEH   LINE      ---      ---       #2806
      00FF3ADEH   LINE      ---      ---       #2807
      00FF3AE0H   LINE      ---      ---       #2811
      00FF3AE0H   LINE      ---      ---       #2812
      00FF3AF5H   LINE      ---      ---       #2813
      00FF3B00H   LINE      ---      ---       #2815
      00FF3B00H   LINE      ---      ---       #2816
      00FF3B02H   LINE      ---      ---       #2820
      00FF3B02H   LINE      ---      ---       #2821
      00FF3B15H   LINE      ---      ---       #2822
      00FF3B20H   LINE      ---      ---       #2824
      00FF3B20H   LINE      ---      ---       #2825
L251 LINKER/LOCATER V4.66.93.0                                                        02/16/2024  15:12:23  PAGE 104


      00FF3B22H   LINE      ---      ---       #2829
      00FF3B22H   LINE      ---      ---       #2830
      00FF3B35H   LINE      ---      ---       #2831
      00FF3B40H   LINE      ---      ---       #2833
      00FF3B40H   LINE      ---      ---       #2834
      00FF3B42H   LINE      ---      ---       #2846
      00FF3B42H   LINE      ---      ---       #2847
      00FF3B42H   LINE      ---      ---       #2848
      00FF3B42H   LINE      ---      ---       #2849
      00FF3B42H   LINE      ---      ---       #2850
      00FF3B44H   LINE      ---      ---       #2853
      00FF3B44H   LINE      ---      ---       #2855
      00FF3B4EH   LINE      ---      ---       #2858
      00FF3B4EH   LINE      ---      ---       #2859
      00FF3B61H   LINE      ---      ---       #2860
      00FF3B6BH   LINE      ---      ---       #2862
      00FF3B6BH   LINE      ---      ---       #2863
      00FF3B6DH   LINE      ---      ---       #2866
      00FF3B6DH   LINE      ---      ---       #2867
      00FF3B80H   LINE      ---      ---       #2868
      00FF3B8AH   LINE      ---      ---       #2870
      00FF3B8CH   LINE      ---      ---       #2871
      00FF3B8EH   LINE      ---      ---       #2873
      00FF3B8EH   LINE      ---      ---       #2874
      00FF3B90H   LINE      ---      ---       #2875
      00FF3B90H   LINE      ---      ---       #2876
      00FF3B90H   LINE      ---      ---       #2877
      00FF3B92H   LINE      ---      ---       #2880
      00FF3B92H   LINE      ---      ---       #2881
      00FF3B98H   LINE      ---      ---       #2882
      00FF3B98H   LINE      ---      ---       #2883
      00FF3B98H   LINE      ---      ---       #2886
      00FF3BA0H   LINE      ---      ---       #2888
      00FF3BA3H   LINE      ---      ---       #2889
      00FF3BA6H   LINE      ---      ---       #2890
      00FF3BA9H   LINE      ---      ---       #2892
      00FF3BAFH   LINE      ---      ---       #2893
      00FF3BAFH   LINE      ---      ---       #2895
      00FF3BB5H   LINE      ---      ---       #2900
      00FF3BC2H   LINE      ---      ---       #2902
      00FF3BC8H   LINE      ---      ---       #2903
      00FF3BD0H   LINE      ---      ---       #2904
      R4          REGSYM    ---      BYTE      cmdLen
      REG=3       REGSYM    ---      ---       pCmdAddress
      REG=1       REGSYM    ---      ---       pRuciHeader
      R14         REGSYM    ---      BYTE      ruciHeader
      R15         REGSYM    ---      BYTE      ruciSubheader
      0000B5E7H   SYMBOL    EDATA    BYTE      cmdCnfStatus
      ---         BLOCKEND  CODE     ---       LVL=1
      ---         BLOCKEND  CODE     ---       LVL=0
      00FF5B90H   LINE      ---      ---       #382

      ---         MODULE    ---      ---       mac_task_ctrl
      00FF2E14H   PUBLIC    CODE     ---       RxTask_AlwaysOn_Set
      00FF90ACH   PUBLIC    CODE     ---       R2tTask_Set
      00FF185DH   PUBLIC    CODE     ---       TrtTask_Set
      00FF9210H   PUBLIC    CODE     ---       RxTask_RxTimer_Set
      00FF91C3H   PUBLIC    CODE     ---       RxTask_Timeout_Set
      00FF1F39H   PUBLIC    CODE     ---       TxContTask_Set
      00FF921EH   PUBLIC    CODE     ---       TxTask_Set
      00FF19B5H   PUBLIC    CODE     ---       T2RTask_Set
      00FF9263H   PUBLIC    CODE     ---       TxRtcTask_Set
      00FF0008H   PUBLIC    CODE     ---       AllTask_Stop
      0000B58DH   PUBLIC    EDATA    DWORD     gMac_Frame_Pending_Rx_Time
      0000B380H   PUBLIC    EDATA    BYTE      ?T2RTask_Set?BYTE
L251 LINKER/LOCATER V4.66.93.0                                                        02/16/2024  15:12:23  PAGE 105



      00FF2E14H   BLOCK     CODE     ---       LVL=0
      00FF2E14H   LINE      ---      ---       #23
      00FF2E14H   LINE      ---      ---       #24
      00FF2E14H   BLOCK     CODE     NEAR LAB  LVL=1
      00FF2E14H   LINE      ---      ---       #28
      00FF2E1AH   LINE      ---      ---       #29
      00FF2E20H   LINE      ---      ---       #30
      00FF2E26H   LINE      ---      ---       #31
      00FF2E2BH   LINE      ---      ---       #32
      00FF2E31H   LINE      ---      ---       #33
      00FF2E35H   LINE      ---      ---       #34
      00FF2E39H   LINE      ---      ---       #36
      00FF2E42H   LINE      ---      ---       #38
      0000B442H   SYMBOL    EDATA    ---       taskControl
      ---         BLOCKEND  CODE     ---       LVL=1
      ---         BLOCKEND  CODE     ---       LVL=0

      00FF90ACH   BLOCK     CODE     ---       LVL=0
      00FF90ACH   LINE      ---      ---       #43
      00FF90ACH   LINE      ---      ---       #44
      WR6         REGSYM    ---      WORD      pktInterval
      DR0         REGSYM    ---      DWORD     rxWaitDuration
      00FF90ACH   BLOCK     CODE     NEAR LAB  LVL=1
      00FF90ACH   LINE      ---      ---       #48
      00FF90B2H   LINE      ---      ---       #49
      00FF90B7H   LINE      ---      ---       #50
      00FF90BDH   LINE      ---      ---       #51
      00FF90C3H   LINE      ---      ---       #52
      00FF90C7H   LINE      ---      ---       #53
      00FF90D5H   LINE      ---      ---       #54
      00FF90DBH   LINE      ---      ---       #56
      00FF90E4H   LINE      ---      ---       #58
      00FF90EAH   LINE      ---      ---       #59
      00FF90EFH   LINE      ---      ---       #60
      00FF90F3H   LINE      ---      ---       #61
      00FF90F7H   LINE      ---      ---       #62
      00FF90FDH   LINE      ---      ---       #63
      00FF9101H   LINE      ---      ---       #64
      00FF9105H   LINE      ---      ---       #66
      00FF910EH   LINE      ---      ---       #68
      0000B450H   SYMBOL    EDATA    ---       taskControl
      ---         BLOCKEND  CODE     ---       LVL=1
      ---         BLOCKEND  CODE     ---       LVL=0

      00FF185DH   BLOCK     CODE     ---       LVL=0
      00FF185DH   LINE      ---      ---       #72
      00FF1865H   LINE      ---      ---       #73
      WR14        REGSYM    ---      WORD      pktInterval
      0000B3ADH   SYMBOL    EDATA    DWORD     rxWaitDuration
      00FF1865H   BLOCK     CODE     NEAR LAB  LVL=1
      00FF1865H   LINE      ---      ---       #77
      00FF186AH   LINE      ---      ---       #78
      00FF186EH   LINE      ---      ---       #79
      00FF1874H   LINE      ---      ---       #80
      00FF187AH   LINE      ---      ---       #81
      00FF188CH   LINE      ---      ---       #82
      00FF1892H   LINE      ---      ---       #83
      00FF1898H   LINE      ---      ---       #84
      00FF189EH   LINE      ---      ---       #86
      00FF18A4H   LINE      ---      ---       #87
      00FF18A9H   LINE      ---      ---       #88
      00FF18AFH   LINE      ---      ---       #89
      00FF18B5H   LINE      ---      ---       #90
      00FF18BDH   LINE      ---      ---       #91
L251 LINKER/LOCATER V4.66.93.0                                                        02/16/2024  15:12:23  PAGE 106


      00FF18CDH   LINE      ---      ---       #92
      00FF18D3H   LINE      ---      ---       #93
      00FF18DBH   LINE      ---      ---       #95
      00FF18E1H   LINE      ---      ---       #96
      00FF18E6H   LINE      ---      ---       #97
      00FF18EAH   LINE      ---      ---       #98
      00FF18EEH   LINE      ---      ---       #99
      00FF18F4H   LINE      ---      ---       #100
      00FF18F8H   LINE      ---      ---       #101
      00FF18FCH   LINE      ---      ---       #102
      0000B3B1H   SYMBOL    EDATA    ---       taskControl
      ---         BLOCKEND  CODE     ---       LVL=1
      00FF1904H   LINE      ---      ---       #106
      00FF1904H   LINE      CODE     ---       #106

      00FF9210H   BLOCK     CODE     ---       LVL=0
      00FF9210H   LINE      ---      ---       #111
      00FF9212H   LINE      ---      ---       #114
      00FF921DH   LINE      ---      ---       #116
      DR8         REGSYM    ---      DWORD     ccaDuration
      ---         BLOCKEND  ---      ---       LVL=0

      00FF91C3H   BLOCK     CODE     ---       LVL=0
      00FF91C3H   LINE      ---      ---       #118
      00FF91C5H   LINE      ---      ---       #119
      DR28        REGSYM    ---      DWORD     rxOnTime
      00FF91C5H   BLOCK     CODE     NEAR LAB  LVL=1
      00FF91C5H   LINE      ---      ---       #123
      00FF91CBH   LINE      ---      ---       #124
      00FF91D0H   LINE      ---      ---       #125
      00FF91D6H   LINE      ---      ---       #126
      00FF91DBH   LINE      ---      ---       #127
      00FF91F3H   LINE      ---      ---       #128
      00FF91F9H   LINE      ---      ---       #129
      00FF91FFH   LINE      ---      ---       #131
      00FF9208H   LINE      ---      ---       #133
      0000B45EH   SYMBOL    EDATA    ---       taskControl
      ---         BLOCKEND  CODE     ---       LVL=1
      ---         BLOCKEND  CODE     ---       LVL=0

      00FF1F39H   BLOCK     CODE     ---       LVL=0
      00FF1F39H   LINE      ---      ---       #139
      00FF1F43H   LINE      ---      ---       #140
      WR6         REGSYM    ---      WORD      pktInterval
      R15         REGSYM    ---      BYTE      mode
      0000B3BFH   SYMBOL    EDATA    DWORD     rtcAnchor
      00FF1F43H   BLOCK     CODE     NEAR LAB  LVL=1
      00FF1F43H   LINE      ---      ---       #144
      00FF1F51H   LINE      ---      ---       #145
      00FF1F55H   LINE      ---      ---       #146
      00FF1F5BH   LINE      ---      ---       #149
      00FF1F61H   LINE      ---      ---       #150
      00FF1F65H   LINE      ---      ---       #151
      00FF1F69H   LINE      ---      ---       #153
      00FF1F71H   LINE      ---      ---       #155
      00FF1F77H   LINE      ---      ---       #156
      00FF1F7DH   LINE      ---      ---       #159
      00FF1F83H   LINE      ---      ---       #160
      00FF1F87H   LINE      ---      ---       #161
      00FF1F8CH   LINE      ---      ---       #162
      00FF1F90H   LINE      ---      ---       #164
      00FF1F98H   LINE      ---      ---       #166
      0000B3C3H   SYMBOL    EDATA    ---       taskControl
      WR12        REGSYM    ---      WORD      pktIntervalTemp
      ---         BLOCKEND  CODE     ---       LVL=1
L251 LINKER/LOCATER V4.66.93.0                                                        02/16/2024  15:12:23  PAGE 107


      00FF1FA0H   LINE      ---      ---       #168
      00FF1FA0H   LINE      CODE     ---       #168

      00FF921EH   BLOCK     CODE     ---       LVL=0
      00FF921EH   LINE      ---      ---       #172
      00FF9224H   LINE      ---      ---       #173
      R15         REGSYM    ---      BYTE      mode
      DR0         REGSYM    ---      DWORD     rtcAnchor
      00FF9224H   BLOCK     CODE     NEAR LAB  LVL=1
      00FF9224H   LINE      ---      ---       #176
      00FF9228H   LINE      ---      ---       #177
      00FF922DH   LINE      ---      ---       #178
      00FF9231H   LINE      ---      ---       #179
      00FF9235H   LINE      ---      ---       #180
      00FF923BH   LINE      ---      ---       #181
      00FF923FH   LINE      ---      ---       #182
      00FF9244H   LINE      ---      ---       #183
      00FF924CH   LINE      ---      ---       #185
      00FF9250H   LINE      ---      ---       #187
      00FF9259H   LINE      ---      ---       #188
      0000B46CH   SYMBOL    EDATA    ---       taskControl
      ---         BLOCKEND  CODE     ---       LVL=1
      00FF9260H   LINE      ---      ---       #189
      00FF9260H   LINE      CODE     ---       #189

      00FF19B5H   BLOCK     CODE     ---       LVL=0
      00FF19B5H   LINE      ---      ---       #193
      00FF19C1H   LINE      ---      ---       #194
      WR12        REGSYM    ---      WORD      interFrameSpace
      0000B383H   SYMBOL    EDATA    DWORD     rxWaitDuration
      R14         REGSYM    ---      BYTE      bRtcAutoEn
      0000B387H   SYMBOL    EDATA    DWORD     rtcValue
      R15         REGSYM    ---      BYTE      bRxFramePending
      00FF19C1H   BLOCK     CODE     NEAR LAB  LVL=1
      00FF19C1H   LINE      ---      ---       #198
      00FF19C7H   LINE      ---      ---       #199
      00FF19CCH   LINE      ---      ---       #200
      00FF19D2H   LINE      ---      ---       #202
      00FF19D6H   LINE      ---      ---       #204
      00FF19E8H   LINE      ---      ---       #205
      00FF19EAH   LINE      ---      ---       #206
      00FF19ECH   LINE      ---      ---       #210
      00FF19F2H   LINE      ---      ---       #211
      00FF19F7H   LINE      ---      ---       #212
      00FF19F7H   LINE      ---      ---       #213
      00FF19FFH   LINE      ---      ---       #214
      00FF1A05H   LINE      ---      ---       #215
      00FF1A0DH   LINE      ---      ---       #218
      00FF1A11H   LINE      ---      ---       #220
      00FF1A17H   LINE      ---      ---       #221
      00FF1A1CH   LINE      ---      ---       #222
      00FF1A22H   LINE      ---      ---       #223
      00FF1A28H   LINE      ---      ---       #224
      00FF1A2DH   LINE      ---      ---       #225
      00FF1A35H   LINE      ---      ---       #226
      00FF1A3BH   LINE      ---      ---       #227
      00FF1A43H   LINE      ---      ---       #228
      00FF1A43H   LINE      ---      ---       #231
      00FF1A48H   LINE      ---      ---       #232
      00FF1A4CH   LINE      ---      ---       #233
      00FF1A52H   LINE      ---      ---       #234
      00FF1A58H   LINE      ---      ---       #235
      00FF1A6AH   LINE      ---      ---       #236
      00FF1A8EH   LINE      ---      ---       #238
      00FF1A94H   LINE      ---      ---       #239
L251 LINKER/LOCATER V4.66.93.0                                                        02/16/2024  15:12:23  PAGE 108


      00FF1AAEH   LINE      ---      ---       #240
      00FF1AB6H   LINE      ---      ---       #241
      00FF1ABBH   LINE      ---      ---       #242
      00FF1ABDH   LINE      ---      ---       #245
      00FF1AC3H   LINE      ---      ---       #246
      00FF1AC9H   LINE      ---      ---       #247
      00FF1ACFH   LINE      ---      ---       #248
      00FF1AD6H   LINE      ---      ---       #249
      0000B38CH   SYMBOL    EDATA    ---       taskControl
      ---         BLOCKEND  CODE     ---       LVL=1
      00FF1AD6H   LINE      ---      ---       #253
      00FF1AD6H   LINE      CODE     ---       #253

      00FF9263H   BLOCK     CODE     ---       LVL=0
      00FF9263H   LINE      ---      ---       #255
      00FF9265H   LINE      ---      ---       #256
      DR0         REGSYM    ---      DWORD     rtcValue
      00FF9265H   BLOCK     CODE     NEAR LAB  LVL=1
      00FF9265H   LINE      ---      ---       #260
      00FF926BH   LINE      ---      ---       #261
      00FF9270H   LINE      ---      ---       #262
      00FF9274H   LINE      ---      ---       #263
      00FF9278H   LINE      ---      ---       #264
      00FF927EH   LINE      ---      ---       #265
      00FF9282H   LINE      ---      ---       #266
      00FF9286H   LINE      ---      ---       #268
      00FF928FH   LINE      ---      ---       #270
      0000B47AH   SYMBOL    EDATA    ---       taskControl
      ---         BLOCKEND  CODE     ---       LVL=1
      ---         BLOCKEND  CODE     ---       LVL=0

      00FF0008H   BLOCK     CODE     ---       LVL=0
      00FF0008H   LINE      ---      ---       #283
      00FF0008H   LINE      ---      ---       #286
      ---         BLOCKEND  ---      ---       LVL=0

      ---         MODULE    ---      ---       ruci_data_parse
      00FF9297H   PUBLIC    CODE     ---       PciDataControlFieldParse

      00FF9297H   BLOCK     CODE     ---       LVL=0
      00FF9297H   LINE      ---      ---       #39
      00FF929BH   LINE      ---      ---       #40
      REG=7       REGSYM    ---      ---       pCmdAddress
      00FF929BH   BLOCK     CODE     NEAR LAB  LVL=1
      00FF929BH   LINE      ---      ---       #43
      00FF92A2H   LINE      ---      ---       #44
      00FF92A8H   LINE      ---      ---       #45
      00FF92ACH   LINE      ---      ---       #46
      00FF92ACH   LINE      ---      ---       #47
      00FF92B6H   LINE      ---      ---       #48
      00FF92B8H   LINE      ---      ---       #50
      00FF92BBH   LINE      ---      ---       #51
      00FF92BDH   LINE      ---      ---       #53
      00FF92C7H   LINE      ---      ---       #54
      00FF92CFH   LINE      ---      ---       #55
      00FF92D6H   LINE      ---      ---       #59
      00FF92E2H   LINE      ---      ---       #60
      00FF92E4H   LINE      ---      ---       #61
      R10         REGSYM    ---      BYTE      tmp
      00FF92E4H   BLOCK     CODE     NEAR LAB  LVL=2
      00FF92E4H   LINE      ---      ---       #62
      00FF92EDH   LINE      ---      ---       #65
      00FF92EFH   LINE      ---      ---       #66
      00FF92F9H   LINE      ---      ---       #67
      00FF9300H   LINE      ---      ---       #68
L251 LINKER/LOCATER V4.66.93.0                                                        02/16/2024  15:12:23  PAGE 109


      00FF930BH   LINE      ---      ---       #69
      00FF932BH   LINE      ---      ---       #70
      WR12        REGSYM    ---      WORD      bufferAddress_LOCAL
      REG=3       REGSYM    ---      ---       pOutput
      ---         BLOCKEND  CODE     ---       LVL=2
      00FF9336H   LINE      ---      ---       #71
      00FF9336H   LINE      ---      ---       #73
      00FF9336H   LINE      CODE     ---       #73
      ---         BLOCKEND  CODE     ---       LVL=0

      ---         MODULE    ---      ---       mac_event_gen
      00FF2E90H   PUBLIC    CODE     ---       PciCnfEventSendtoMsgQueue
      00FF7C8DH   PUBLIC    CODE     ---       PciGetCrcEventSendtoMsgQueue
      00FF7D63H   PUBLIC    CODE     ---       PciGetPhyStatusEventSendtoMsgQueue
      00FF933AH   PUBLIC    CODE     ---       PciBurstTxdoneEventSendtoMsgQueue
      00FF7CF9H   PUBLIC    CODE     ---       PciGetRssiEventSendtoMsgQueue
      00FF936BH   PUBLIC    CODE     ---       PciHtrpConnToEventdoneEventSendtoMsgQueue
      00FF93A4H   PUBLIC    CODE     ---       PciHtrpPerEventdoneEventSendtoMsgQueue
      00FF93E9H   PUBLIC    CODE     ---       PciHtrpGetRssiEventSendtoMsgQueue
      00FF941BH   PUBLIC    CODE     ---       PciHtrpFwStatusEventdoneEventSendtoMsgQueue
      00FF5E9CH   PUBLIC    CODE     ---       PciHtrpHwStatusEventdoneEventSendtoMsgQueue
      00FF5159H   PUBLIC    CODE     ---       PciCslAccuracyEventSendtoMsgQueue
      00FF518FH   PUBLIC    CODE     ---       PciCslUncertaintyEventSendtoMsgQueue

      00FF2E8BH   BLOCK     CODE     ---       LVL=0
      00FF2E90H   LINE      ---      ---       #60
      00FF2E98H   LINE      ---      ---       #61
      00FF2E8BH   SYMBOL    CODE     NEAR LAB  ?L?COM0027
      R13         REGSYM    ---      BYTE      cmdHeader
      R14         REGSYM    ---      BYTE      cmdSubheader
      R15         REGSYM    ---      BYTE      cmdCnfStatus
      00FF2E98H   BLOCK     CODE     NEAR LAB  LVL=1
      00FF2E98H   LINE      ---      ---       #63
      00FF2E9DH   LINE      ---      ---       #64
      00FF2EA0H   LINE      ---      ---       #66
      00FF2EAAH   LINE      ---      ---       #67
      00FF2EB1H   LINE      ---      ---       #68
      00FF2EB7H   LINE      ---      ---       #69
      00FF2EBDH   LINE      ---      ---       #70
      00FF2EC1H   LINE      ---      ---       #71
      00FF2EC5H   LINE      ---      ---       #72
      00FF2EC9H   LINE      ---      ---       #78
      REG=3       REGSYM    ---      ---       pEventPayload
      R12         REGSYM    ---      BYTE      qIdx
      ---         BLOCKEND  CODE     ---       LVL=1
      00FF2ED6H   LINE      ---      ---       #80
      00FF2ED6H   LINE      CODE     ---       #80

      00FF7C8DH   BLOCK     CODE     ---       LVL=0
      00FF7C8DH   LINE      ---      ---       #84
      00FF7C91H   LINE      ---      ---       #85
      00FF7C91H   BLOCK     CODE     NEAR LAB  LVL=1
      00FF7C91H   LINE      ---      ---       #87
      00FF7C96H   LINE      ---      ---       #90
      00FF7CA0H   LINE      ---      ---       #91
      00FF7CA7H   LINE      ---      ---       #92
      00FF7CADH   LINE      ---      ---       #93
      00FF7CB3H   LINE      ---      ---       #95
      00FF7CC0H   LINE      ---      ---       #101
      00FF7CDBH   LINE      ---      ---       #103
      REG=6       REGSYM    ---      ---       pEventPayload
      R15         REGSYM    ---      BYTE      qIdx
      ---         BLOCKEND  CODE     ---       LVL=1
      00FF7CE8H   LINE      ---      ---       #105
      00FF7CE8H   LINE      CODE     ---       #105
L251 LINKER/LOCATER V4.66.93.0                                                        02/16/2024  15:12:23  PAGE 110



      00FF7D63H   BLOCK     CODE     ---       LVL=0
      00FF7D63H   LINE      ---      ---       #107
      00FF7D67H   LINE      ---      ---       #108
      00FF7D67H   BLOCK     CODE     NEAR LAB  LVL=1
      00FF7D67H   LINE      ---      ---       #111
      00FF7D6CH   LINE      ---      ---       #114
      00FF7D76H   LINE      ---      ---       #115
      00FF7D7DH   LINE      ---      ---       #116
      00FF7D83H   LINE      ---      ---       #117
      00FF7D87H   LINE      ---      ---       #118
      00FF7D8FH   LINE      ---      ---       #119
      00FF7D97H   LINE      ---      ---       #120
      00FF7DA1H   LINE      ---      ---       #121
      00FF7DACH   LINE      ---      ---       #122
      00FF7DB6H   LINE      ---      ---       #123
      00FF7DBEH   LINE      ---      ---       #124
      00FF7DD4H   LINE      ---      ---       #126
      00FF7DD8H   LINE      ---      ---       #132
      REG=6       REGSYM    ---      ---       pEventPayload
      R7          REGSYM    ---      BYTE      cpmputeRssi
      R15         REGSYM    ---      BYTE      qIdx
      ---         BLOCKEND  CODE     ---       LVL=1
      00FF7DE5H   LINE      ---      ---       #134
      00FF7DE5H   LINE      CODE     ---       #134

      00FF933AH   BLOCK     CODE     ---       LVL=0
      00FF933AH   LINE      ---      ---       #136
      00FF933CH   LINE      ---      ---       #137
      00FF933CH   BLOCK     CODE     NEAR LAB  LVL=1
      00FF933CH   LINE      ---      ---       #139
      00FF933FH   LINE      ---      ---       #142
      00FF9349H   LINE      ---      ---       #143
      00FF9350H   LINE      ---      ---       #144
      00FF9356H   LINE      ---      ---       #145
      00FF935BH   LINE      ---      ---       #150
      REG=3       REGSYM    ---      ---       pEventPayload
      R15         REGSYM    ---      BYTE      qIdx
      ---         BLOCKEND  CODE     ---       LVL=1
      00FF9368H   LINE      ---      ---       #152
      00FF9368H   LINE      CODE     ---       #152

      00FF7CF9H   BLOCK     CODE     ---       LVL=0
      00FF7CF9H   LINE      ---      ---       #154
      00FF7CFDH   LINE      ---      ---       #155
      00FF7CFDH   BLOCK     CODE     NEAR LAB  LVL=1
      00FF7CFDH   LINE      ---      ---       #159
      00FF7D02H   LINE      ---      ---       #162
      00FF7D09H   LINE      ---      ---       #163
      00FF7D15H   LINE      ---      ---       #164
      00FF7D1DH   LINE      ---      ---       #165
      00FF7D24H   LINE      ---      ---       #166
      00FF7D2EH   LINE      ---      ---       #168
      00FF7D38H   LINE      ---      ---       #169
      00FF7D3FH   LINE      ---      ---       #170
      00FF7D45H   LINE      ---      ---       #171
      00FF7D4BH   LINE      ---      ---       #172
      00FF7D4FH   LINE      ---      ---       #178
      REG=6       REGSYM    ---      ---       pEventPayload
      R5          REGSYM    ---      CHAR      ibRssi
      R10         REGSYM    ---      BYTE      cpmputeRssi
      R4          REGSYM    ---      BYTE      lnaGain
      R7          REGSYM    ---      BYTE      tiaGain
      R6          REGSYM    ---      BYTE      vgaGain
      R15         REGSYM    ---      BYTE      qIdx
L251 LINKER/LOCATER V4.66.93.0                                                        02/16/2024  15:12:23  PAGE 111


      ---         BLOCKEND  CODE     ---       LVL=1
      00FF7D52H   LINE      ---      ---       #180
      00FF7D52H   LINE      CODE     ---       #180

      00FF936BH   BLOCK     CODE     ---       LVL=0
      00FF936BH   LINE      ---      ---       #183
      00FF936FH   LINE      ---      ---       #184
      R15         REGSYM    ---      BYTE      status
      00FF936FH   BLOCK     CODE     NEAR LAB  LVL=1
      00FF936FH   LINE      ---      ---       #186
      00FF9374H   LINE      ---      ---       #187
      00FF9377H   LINE      ---      ---       #189
      00FF9381H   LINE      ---      ---       #190
      00FF9388H   LINE      ---      ---       #191
      00FF938EH   LINE      ---      ---       #192
      00FF9394H   LINE      ---      ---       #193
      00FF9398H   LINE      ---      ---       #198
      REG=3       REGSYM    ---      ---       pEventPayload
      R14         REGSYM    ---      BYTE      qIdx
      ---         BLOCKEND  CODE     ---       LVL=1
      00FF93A1H   LINE      ---      ---       #199
      00FF93A1H   LINE      CODE     ---       #199

      00FF93A4H   BLOCK     CODE     ---       LVL=0
      00FF93A4H   LINE      ---      ---       #201
      00FF93A6H   LINE      ---      ---       #202
      00FF93A6H   BLOCK     CODE     NEAR LAB  LVL=1
      00FF93A6H   LINE      ---      ---       #204
      00FF93ABH   LINE      ---      ---       #207
      00FF93B5H   LINE      ---      ---       #208
      00FF93BCH   LINE      ---      ---       #209
      00FF93C2H   LINE      ---      ---       #210
      00FF93C8H   LINE      ---      ---       #212
      00FF93D9H   LINE      ---      ---       #217
      REG=11      REGSYM    ---      ---       pEventPayload
      R15         REGSYM    ---      BYTE      qIdx
      ---         BLOCKEND  CODE     ---       LVL=1
      00FF93E6H   LINE      ---      ---       #218
      00FF93E6H   LINE      CODE     ---       #218

      00FF93E9H   BLOCK     CODE     ---       LVL=0
      00FF93E9H   LINE      ---      ---       #220
      00FF93EBH   LINE      ---      ---       #221
      00FF93EBH   BLOCK     CODE     NEAR LAB  LVL=1
      00FF93EBH   LINE      ---      ---       #223
      00FF93F0H   LINE      ---      ---       #226
      00FF93FAH   LINE      ---      ---       #227
      00FF9401H   LINE      ---      ---       #228
      00FF9407H   LINE      ---      ---       #229
      00FF940DH   LINE      ---      ---       #230
      00FF9415H   LINE      ---      ---       #235
      REG=2       REGSYM    ---      ---       pEventPayload
      R15         REGSYM    ---      BYTE      qIdx
      ---         BLOCKEND  CODE     ---       LVL=1
      00FF9418H   LINE      ---      ---       #236
      00FF9418H   LINE      CODE     ---       #236

      00FF941BH   BLOCK     CODE     ---       LVL=0
      00FF941BH   LINE      ---      ---       #238
      00FF941FH   LINE      ---      ---       #239
      00FF941FH   BLOCK     CODE     NEAR LAB  LVL=1
      00FF941FH   LINE      ---      ---       #241
      00FF9424H   LINE      ---      ---       #244
      00FF942EH   LINE      ---      ---       #245
      00FF9435H   LINE      ---      ---       #246
L251 LINKER/LOCATER V4.66.93.0                                                        02/16/2024  15:12:23  PAGE 112


      00FF943BH   LINE      ---      ---       #247
      00FF9441H   LINE      ---      ---       #248
      00FF9449H   LINE      ---      ---       #249
      00FF9450H   LINE      ---      ---       #250
      00FF9457H   LINE      ---      ---       #251
      00FF945FH   LINE      ---      ---       #252
      00FF9467H   LINE      ---      ---       #253
      00FF946FH   LINE      ---      ---       #254
      00FF9477H   LINE      ---      ---       #255
      00FF947FH   LINE      ---      ---       #256
      00FF9487H   LINE      ---      ---       #257
      00FF9498H   LINE      ---      ---       #258
      00FF94A9H   LINE      ---      ---       #264
      REG=6       REGSYM    ---      ---       pEventPayload
      R15         REGSYM    ---      BYTE      qIdx
      ---         BLOCKEND  CODE     ---       LVL=1
      00FF94B6H   LINE      ---      ---       #265
      00FF94B6H   LINE      CODE     ---       #265

      00FF5E9CH   BLOCK     CODE     ---       LVL=0
      00FF5E9CH   LINE      ---      ---       #267
      00FF5EA0H   LINE      ---      ---       #268
      00FF5EA0H   BLOCK     CODE     NEAR LAB  LVL=1
      00FF5EA0H   LINE      ---      ---       #270
      00FF5EA5H   LINE      ---      ---       #273
      00FF5EAFH   LINE      ---      ---       #274
      00FF5EB6H   LINE      ---      ---       #275
      00FF5EBCH   LINE      ---      ---       #276
      00FF5EC2H   LINE      ---      ---       #277
      00FF5ECDH   LINE      ---      ---       #278
      00FF5EDEH   LINE      ---      ---       #279
      00FF5EEBH   LINE      ---      ---       #280
      00FF5EF1H   LINE      ---      ---       #281
      00FF5EF8H   LINE      ---      ---       #282
      00FF5F05H   LINE      ---      ---       #288
      REG=6       REGSYM    ---      ---       pEventPayload
      R15         REGSYM    ---      BYTE      qIdx
      ---         BLOCKEND  CODE     ---       LVL=1
      00FF5F12H   LINE      ---      ---       #289
      00FF5F12H   LINE      CODE     ---       #289

      00FF5159H   BLOCK     CODE     ---       LVL=0
      00FF5159H   LINE      ---      ---       #293
      00FF515BH   LINE      ---      ---       #294
      00FF515BH   BLOCK     CODE     NEAR LAB  LVL=1
      00FF515BH   LINE      ---      ---       #296
      00FF515EH   LINE      ---      ---       #299
      00FF5168H   LINE      ---      ---       #300
      00FF516FH   LINE      ---      ---       #301
      00FF5175H   LINE      ---      ---       #302
      00FF517BH   LINE      ---      ---       #303
      REG=3       REGSYM    ---      ---       pEventPayload
      R15         REGSYM    ---      BYTE      qIdx
      ---         BLOCKEND  CODE     ---       LVL=1
      00FF5180H   LINE      ---      ---       #311
      00FF5180H   LINE      CODE     ---       #311

      00FF518FH   BLOCK     CODE     ---       LVL=0
      00FF518FH   LINE      ---      ---       #313
      00FF5191H   LINE      ---      ---       #314
      00FF5191H   BLOCK     CODE     NEAR LAB  LVL=1
      00FF5191H   LINE      ---      ---       #316
      00FF5194H   LINE      ---      ---       #319
      00FF519EH   LINE      ---      ---       #320
      00FF51A5H   LINE      ---      ---       #321
L251 LINKER/LOCATER V4.66.93.0                                                        02/16/2024  15:12:23  PAGE 113


      00FF51ABH   LINE      ---      ---       #322
      00FF51B1H   LINE      ---      ---       #323
      REG=3       REGSYM    ---      ---       pEventPayload
      R15         REGSYM    ---      BYTE      qIdx
      ---         BLOCKEND  CODE     ---       LVL=1
      00FF51B6H   LINE      ---      ---       #330
      00FF51B6H   LINE      CODE     ---       #330

      ---         MODULE    ---      ---       mac_RaaSchedule
      00FF94BBH   PUBLIC    CODE     ---       mac_Raa_SchInitHdlr
      00FF9116H   PUBLIC    CODE     ---       mac_Raa_SchConfigHdlr
      00FF94BCH   PUBLIC    CODE     ---       mac_Raa_SchWaitMHRHdlr
      00FF279CH   PUBLIC    CODE     ---       mac_Raa_SchWaitRxDoneHdlr
      00FF9556H   PUBLIC    CODE     ---       mac_Raa_SchWaitTxDoneHdlr
      00FF9587H   PUBLIC    CODE     ---       mac_Raa_SchWaitResumeHdlr
      00FF9588H   PUBLIC    CODE     ---       mac_Raa_SchEndHdlr
      00FF95A6H   PUBLIC    CODE     ---       mac_Raa_SchReservedHdlr
      00FF6D4FH   PUBLIC    CODE     ---       Mac_RaaRxDoneHandle?_
      00FF6FB7H   PUBLIC    CODE     ---       Mac_RaaClearAckQandGenRxData
      00FF8257H   PUBLIC    CODE     ---       MAC_RaaSchedule
      00FF95A7H   PUBLIC    CODE     ---       mac_org_mhr_done_handler
      00FF876FH   PUBLIC    CODE     ---       mac_org_rx_done_handler
      00FF8765H   PUBLIC    CODE     ---       MAC_MhrParse
      00FF6C38H   PUBLIC    CODE     ---       MAC_RxDoneEventGen?_
      00FF95C4H   PUBLIC    CODE     ---       MAC_RXQ_CPY?_
      00FF970EH   PUBLIC    CODE     ---       mac_genAck
      00FF44A3H   PUBLIC    CODE     ---       Mac_endianConvert
      00FF9753H   PUBLIC    CODE     ---       mac_genAckFrmCtrl
      00FF44F6H   PUBLIC    CODE     ---       mac_RssiInfoCalc
      00FF97BAH   PUBLIC    CODE     ---       mod_replace
      00FF97C5H   PUBLIC    CODE     ---       mac_getCslPhase
      00FF4151H   PUBLIC    CODE     ---       mac_genEnhAck
      00FF5B95H   PUBLIC    CODE     ---       MAC_AckSet
      00FF9806H   PUBLIC    CODE     ---       MAC_NonceGen
      00FF9877H   PUBLIC    CODE     ---       mac_Filter?_
      0000B2B4H   PUBLIC    EDATA    INT       gMacRaaState
      0000B2B6H   PUBLIC    EDATA    ---       gMacPib
      0000B2D5H   PUBLIC    EDATA    BYTE      rtc_q_cnt
      0000B2D6H   PUBLIC    EDATA    ---       gRaa_Sch_Handler_Entry
      00000080H   SFRSYM    DATA     BYTE      P0

      00FF8765H   BLOCK     CODE     ---       LVL=0
      00FF8765H   LINE      ---      ---       #80
      00FF8765H   LINE      ---      ---       #81
      00FF8765H   BLOCK     CODE     NEAR LAB  LVL=1
      00FF8765H   LINE      ---      ---       #82
      00FF8769H   LINE      ---      ---       #83
      REG=3       REGSYM    ---      ---       pMhr
      ---         BLOCKEND  CODE     ---       LVL=1
      ---         BLOCKEND  CODE     ---       LVL=0

      00FF6C38H   BLOCK     CODE     ---       LVL=0
      00FF6C38H   LINE      ---      ---       #121
      00FF6C40H   LINE      ---      ---       #122
      R10         REGSYM    ---      BYTE      isCrcPass
      00FF6C40H   BLOCK     CODE     NEAR LAB  LVL=1
      00FF6C40H   LINE      ---      ---       #125
      00FF6C49H   LINE      ---      ---       #132
      00FF6C55H   LINE      ---      ---       #133
      00FF6C5DH   LINE      ---      ---       #134
      00FF6C63H   LINE      ---      ---       #135
      00FF6C7BH   LINE      ---      ---       #136
      00FF6C8AH   LINE      ---      ---       #141
      00FF6C8CH   LINE      ---      ---       #153
      00FF6CB5H   LINE      ---      ---       #154
L251 LINKER/LOCATER V4.66.93.0                                                        02/16/2024  15:12:23  PAGE 114


      00FF6CC0H   LINE      ---      ---       #155
      00FF6CC0H   LINE      ---      ---       #156
      00FF6CD5H   LINE      ---      ---       #159
      00FF6CE4H   LINE      ---      ---       #163
      00FF6D0CH   LINE      ---      ---       #164
      00FF6D17H   LINE      ---      ---       #165
      00FF6D28H   LINE      ---      ---       #166
      00FF6D31H   LINE      ---      ---       #167
      00FF6D34H   LINE      ---      ---       #169
      00FF6D3BH   LINE      ---      ---       #173
      00FF6D43H   LINE      ---      ---       #180
      00FF6D45H   LINE      ---      ---       #182
      00FF6D48H   LINE      ---      ---       #183
      00FF6D48H   LINE      ---      ---       #187
      00FF6D48H   LINE      ---      ---       #189
      R11         REGSYM    ---      BYTE      retValue
      WR14        REGSYM    ---      WORD      bufferAddress_LOCAL
      FFFFFFFDH   STKSYM    ---      DWORD     currRtc
      REG=7       REGSYM    ---      ---       pOutput
      FFFFFFF6H   STKSYM    ---      ---       sRxControlField
      ---         BLOCKEND  CODE     ---       LVL=1
      00FF6D48H   LINE      ---      ---       #190
      00FF6D48H   LINE      CODE     ---       #190

      00FF95C4H   BLOCK     CODE     ---       LVL=0
      00FF95C4H   LINE      ---      ---       #193
      00FF95CCH   LINE      ---      ---       #194
      R10         REGSYM    ---      BYTE      isCrcPass
      00FF95CCH   BLOCK     CODE     NEAR LAB  LVL=1
      00FF95CCH   LINE      ---      ---       #195
      00FF95D9H   LINE      ---      ---       #196
      00FF95E2H   LINE      ---      ---       #197
      00FF95F8H   LINE      ---      ---       #204
      00FF9604H   LINE      ---      ---       #205
      00FF960CH   LINE      ---      ---       #206
      00FF9612H   LINE      ---      ---       #207
      00FF962AH   LINE      ---      ---       #208
      00FF9639H   LINE      ---      ---       #212
      00FF963CH   LINE      ---      ---       #224
      00FF9665H   LINE      ---      ---       #225
      00FF9670H   LINE      ---      ---       #226
      00FF9670H   LINE      ---      ---       #227
      00FF9685H   LINE      ---      ---       #230
      00FF9694H   LINE      ---      ---       #234
      00FF96B4H   LINE      ---      ---       #235
      00FF96BFH   LINE      ---      ---       #236
      00FF96D0H   LINE      ---      ---       #240
      00FF96ECH   LINE      ---      ---       #241
      00FF96FCH   LINE      ---      ---       #242
      00FF9705H   LINE      ---      ---       #244
      FFFFFFFFH   STKSYM    ---      WORD      bufferAddress_NORMAL
      WR12        REGSYM    ---      WORD      bufferAddress_LOCAL
      FFFFFFFDH   STKSYM    ---      WORD      bufferLength
      FFFFFFF9H   STKSYM    ---      DWORD     currRtc
      REG=2       REGSYM    ---      ---       pInput
      REG=7       REGSYM    ---      ---       pOutput
      FFFFFFF2H   STKSYM    ---      ---       sRxControlField
      ---         BLOCKEND  CODE     ---       LVL=1
      00FF9707H   LINE      ---      ---       #245
      00FF9707H   LINE      CODE     ---       #245

      00FF970EH   BLOCK     CODE     ---       LVL=0
      00FF970EH   LINE      ---      ---       #248
      00FF9718H   LINE      ---      ---       #249
      REG=7       REGSYM    ---      ---       pbuf
L251 LINKER/LOCATER V4.66.93.0                                                        02/16/2024  15:12:23  PAGE 115


      R5          REGSYM    ---      BYTE      framePending
      R13         REGSYM    ---      BYTE      dsn
      00FF9718H   BLOCK     CODE     NEAR LAB  LVL=1
      00FF9718H   LINE      ---      ---       #250
      00FF972AH   LINE      ---      ---       #251
      00FF9736H   LINE      ---      ---       #252
      00FF973DH   LINE      ---      ---       #254
      00FF9747H   LINE      ---      ---       #255
      0000B5D0H   SYMBOL    EDATA    WORD      fcf
      ---         BLOCKEND  CODE     ---       LVL=1
      00FF974EH   LINE      ---      ---       #256
      00FF974EH   LINE      CODE     ---       #256

      00FF4498H   BLOCK     CODE     ---       LVL=0
      00FF44A3H   LINE      ---      ---       #259
      00FF44A5H   LINE      ---      ---       #263
      00FF4498H   SYMBOL    CODE     NEAR LAB  ?L?COM0024
      REG=3       REGSYM    ---      ---       pDataIn
      R5          REGSYM    ---      BYTE      TypeMap
      00FF44A5H   BLOCK     CODE     NEAR LAB  LVL=1
      00FF44A5H   LINE      ---      ---       #266
      00FF44A5H   LINE      ---      ---       #268
      00FF44B1H   LINE      ---      ---       #270
      00FF44B1H   LINE      ---      ---       #274
      00FF44B3H   LINE      ---      ---       #275
      00FF44D2H   LINE      ---      ---       #277
      00FF44E6H   LINE      ---      ---       #280
      00FF44E7H   LINE      ---      ---       #282
      00FF44E7H   LINE      ---      ---       #285
      00FF44E9H   LINE      ---      ---       #286
      00FF44F2H   LINE      ---      ---       #288
      00FF44F2H   LINE      ---      ---       #290
      00FF44F2H   LINE      ---      ---       #292
      00FF44F2H   LINE      ---      ---       #293
      00FF44F2H   LINE      ---      ---       #294
      00FF44F5H   LINE      ---      ---       #295
      00FF44F5H   LINE      ---      ---       #298
      REG=1       REGSYM    ---      ---       pDwTemp
      REG=2       REGSYM    ---      ---       pWTemp
      REG=3       REGSYM    ---      ---       pData
      ---         BLOCKEND  CODE     ---       LVL=1
      00FF44F5H   LINE      ---      ---       #299
      00FF44F5H   LINE      CODE     ---       #299

      00FF9753H   BLOCK     CODE     ---       LVL=0
      00FF9753H   LINE      ---      ---       #308
      00FF9759H   LINE      ---      ---       #310
      00FF97B9H   LINE      ---      ---       #317
      REG=0       REGSYM    ---      ---       pbuf
      R10         REGSYM    ---      BYTE      framePending
      REG=1       REGSYM    ---      ---       hdr
      ---         BLOCKEND  ---      ---       LVL=0

      00FF44F6H   BLOCK     CODE     ---       LVL=0
      00FF44F6H   LINE      ---      ---       #319
      00FF44F8H   LINE      ---      ---       #321
      00FF4508H   LINE      ---      ---       #322
      R11         REGSYM    ---      BYTE      rssi
      R5          REGSYM    ---      BYTE      a
      R6          REGSYM    ---      BYTE      b
      ---         BLOCKEND  ---      ---       LVL=0

      00FF97BAH   BLOCK     CODE     ---       LVL=0
      00FF97BAH   LINE      ---      ---       #324
      00FF97BCH   LINE      ---      ---       #325
L251 LINKER/LOCATER V4.66.93.0                                                        02/16/2024  15:12:23  PAGE 116


      DR4         REGSYM    ---      DWORD     input1
      DR8         REGSYM    ---      DWORD     input2
      00FF97BCH   BLOCK     CODE     NEAR LAB  LVL=1
      00FF97BCH   LINE      ---      ---       #326
      00FF97BCH   LINE      ---      ---       #327
      00FF97BEH   LINE      ---      ---       #329
      00FF97C0H   LINE      ---      ---       #330
      00FF97C4H   LINE      ---      ---       #331
      DR4         REGSYM    ---      DWORD     rem
      ---         BLOCKEND  CODE     ---       LVL=1
      00FF97C4H   LINE      ---      ---       #332
      00FF97C4H   LINE      CODE     ---       #332

      00FF97C5H   BLOCK     CODE     ---       LVL=0
      00FF97C5H   LINE      ---      ---       #333
      00FF97CDH   LINE      ---      ---       #334
      0000B529H   SYMBOL    EDATA    DWORD     cslPeriodUs
      DR12        REGSYM    ---      DWORD     cslSampleTime
      00FF97CDH   BLOCK     CODE     NEAR LAB  LVL=1
      00FF97CDH   LINE      ---      ---       #337
      00FF97D2H   LINE      ---      ---       #343
      00FF97D6H   LINE      ---      ---       #344
      00FF97E0H   LINE      ---      ---       #347
      00FF97E4H   LINE      ---      ---       #348
      00FF97E7H   LINE      ---      ---       #349
      00FF97EAH   LINE      ---      ---       #350
      00FF97EAH   LINE      ---      ---       #352
      00FF97F4H   LINE      ---      ---       #353
      00FF97FAH   LINE      ---      ---       #355
      00FF97FCH   LINE      ---      ---       #357
      DR0         REGSYM    ---      DWORD     curTime
      DR4         REGSYM    ---      DWORD     diff
      0000B52DH   SYMBOL    EDATA    DWORD     diff1
      DR4         REGSYM    ---      DWORD     diff2
      DR4         REGSYM    ---      DWORD     diffPlusPeriod
      ---         BLOCKEND  CODE     ---       LVL=1
      00FF9803H   LINE      ---      ---       #358
      00FF9803H   LINE      CODE     ---       #358

      00FF4151H   BLOCK     CODE     ---       LVL=0
      00FF4151H   LINE      ---      ---       #367
      00FF415BH   LINE      ---      ---       #368
      REG=7       REGSYM    ---      ---       pbuf
      0000B591H   SYMBOL    EDATA    BYTE      framePending
      REG=6       REGSYM    ---      ---       hdr
      00FF415BH   BLOCK     CODE     NEAR LAB  LVL=1
      00FF415BH   LINE      ---      ---       #372
      00FF4160H   LINE      ---      ---       #374
      00FF4169H   LINE      ---      ---       #375
      00FF4170H   LINE      ---      ---       #376
      00FF4176H   LINE      ---      ---       #378
      00FF417CH   LINE      ---      ---       #379
      00FF4181H   LINE      ---      ---       #381
      00FF4188H   LINE      ---      ---       #382
      00FF4197H   LINE      ---      ---       #385
      00FF419CH   LINE      ---      ---       #387
      00FF41AFH   LINE      ---      ---       #388
      00FF41B1H   LINE      ---      ---       #392
      00FF41B9H   LINE      ---      ---       #393
      00FF41B9H   LINE      ---      ---       #395
      00FF41C4H   LINE      ---      ---       #397
      00FF41C6H   LINE      ---      ---       #398
      00FF41CEH   LINE      ---      ---       #400
      00FF41D8H   LINE      ---      ---       #401
      00FF41E0H   LINE      ---      ---       #402
L251 LINKER/LOCATER V4.66.93.0                                                        02/16/2024  15:12:23  PAGE 117


      00FF41E6H   LINE      ---      ---       #405
      00FF41EFH   LINE      ---      ---       #407
      00FF41F6H   LINE      ---      ---       #410
      00FF4200H   LINE      ---      ---       #412
      00FF4208H   LINE      ---      ---       #413
      00FF420EH   LINE      ---      ---       #414
      00FF420EH   LINE      ---      ---       #416
      00FF4215H   LINE      ---      ---       #419
      00FF421FH   LINE      ---      ---       #421
      00FF4227H   LINE      ---      ---       #422
      00FF422DH   LINE      ---      ---       #423
      00FF422FH   LINE      ---      ---       #427
      00FF423CH   LINE      ---      ---       #429
      00FF4244H   LINE      ---      ---       #430
      00FF4251H   LINE      ---      ---       #432
      00FF4259H   LINE      ---      ---       #433
      00FF4263H   LINE      ---      ---       #434
      00FF4263H   LINE      ---      ---       #435
      00FF4263H   LINE      ---      ---       #437
      00FF426CH   LINE      ---      ---       #439
      00FF427AH   LINE      ---      ---       #440
      00FF4282H   LINE      ---      ---       #442
      00FF428BH   LINE      ---      ---       #443
      00FF4292H   LINE      ---      ---       #444
      00FF429AH   LINE      ---      ---       #446
      00FF42A2H   LINE      ---      ---       #447
      00FF42AAH   LINE      ---      ---       #449
      00FF42B4H   LINE      ---      ---       #480
      00FF42B4H   LINE      ---      ---       #482
      00FF42BAH   LINE      ---      ---       #485
      00FF42C2H   LINE      ---      ---       #486
      00FF42CAH   LINE      ---      ---       #487
      00FF42D2H   LINE      ---      ---       #488
      00FF42DAH   LINE      ---      ---       #490
      00FF42E0H   LINE      ---      ---       #492
      00FF42E8H   LINE      ---      ---       #493
      00FF42EEH   LINE      ---      ---       #495
      00FF42F6H   LINE      ---      ---       #497
      00FF4300H   LINE      ---      ---       #498
      00FF4300H   LINE      ---      ---       #500
      00FF4309H   LINE      ---      ---       #502
      00FF430FH   LINE      ---      ---       #503
      00FF4317H   LINE      ---      ---       #504
      0000B592H   SYMBOL    EDATA    BYTE      hdrSize
      0000B593H   SYMBOL    EDATA    BYTE      LmIesize
      00FF4317H   BLOCK     CODE     NEAR LAB  LVL=2
      00FF4317H   LINE      ---      ---       #508
      00FF431FH   LINE      ---      ---       #509
      00FF4326H   LINE      ---      ---       #510
      00FF432EH   LINE      ---      ---       #512
      00FF4336H   LINE      ---      ---       #513
      00FF433FH   LINE      ---      ---       #514
      00FF4348H   LINE      ---      ---       #515
      00FF4350H   LINE      ---      ---       #516
      00FF4358H   LINE      ---      ---       #526
      00FF4381H   LINE      ---      ---       #529
      00FF4387H   LINE      ---      ---       #533
      00FF4399H   LINE      ---      ---       #534
      00FF43A1H   LINE      ---      ---       #535
      00FF43A7H   LINE      ---      ---       #536
      00FF43A7H   LINE      ---      ---       #537
      00FF43ADH   LINE      ---      ---       #541
      00FF43BFH   LINE      ---      ---       #542
      00FF43C7H   LINE      ---      ---       #543
      00FF43D0H   LINE      ---      ---       #544
L251 LINKER/LOCATER V4.66.93.0                                                        02/16/2024  15:12:23  PAGE 118


      00FF43D0H   LINE      ---      ---       #545
      00FF43DFH   LINE      ---      ---       #549
      00FF43F1H   LINE      ---      ---       #550
      00FF43F9H   LINE      ---      ---       #551
      00FF4402H   LINE      ---      ---       #552
      00FF4402H   LINE      ---      ---       #554
      00FF4412H   LINE      ---      ---       #555
      00FF441CH   LINE      ---      ---       #556
      00FF442CH   LINE      ---      ---       #558
      0000B594H   SYMBOL    EDATA    BYTE      rssi
      ---         BLOCKEND  CODE     ---       LVL=2
      00FF443CH   LINE      ---      ---       #559
      00FF443CH   LINE      ---      ---       #562
      00FF4442H   LINE      ---      ---       #564
      00FF444BH   LINE      ---      ---       #567
      00FF4453H   LINE      ---      ---       #568
      00FF445BH   LINE      ---      ---       #569
      00FF4463H   LINE      ---      ---       #570
      00FF446BH   LINE      ---      ---       #571
      00FF4475H   LINE      ---      ---       #572
      00FF4475H   LINE      ---      ---       #576
      00FF4487H   LINE      ---      ---       #579
      00FF4487H   LINE      CODE     ---       #579
      ---         BLOCKEND  CODE     ---       LVL=0

      00FF5B95H   BLOCK     CODE     ---       LVL=0
      00FF5B95H   LINE      ---      ---       #583
      00FF5B97H   LINE      ---      ---       #584
      00FF5B97H   BLOCK     CODE     NEAR LAB  LVL=1
      00FF5B97H   LINE      ---      ---       #587
      00FF5BA2H   LINE      ---      ---       #589
      00FF5BADH   LINE      ---      ---       #591
      00FF5BB0H   LINE      ---      ---       #594
      00FF5BB9H   LINE      ---      ---       #597
      00FF5BCEH   LINE      ---      ---       #601
      00FF5BD6H   LINE      ---      ---       #602
      00FF5BD8H   LINE      ---      ---       #604
      00FF5BDDH   LINE      ---      ---       #607
      00FF5BE7H   LINE      ---      ---       #609
      00FF5C05H   LINE      ---      ---       #610
      00FF5C0DH   LINE      ---      ---       #611
      00FF5C0DH   LINE      ---      ---       #612
      00FF5C22H   LINE      ---      ---       #616
      00FF5C22H   LINE      ---      ---       #620
      00FF5C30H   LINE      ---      ---       #621
      00FF5C38H   LINE      ---      ---       #624
      00FF5C3FH   LINE      ---      ---       #627
      00FF5C55H   LINE      ---      ---       #628
      00FF5C57H   LINE      ---      ---       #629
      00FF5C59H   LINE      ---      ---       #630
      00FF5C5CH   LINE      ---      ---       #631
      00FF5C5CH   LINE      ---      ---       #632
      R11         REGSYM    ---      BYTE      retValue
      ---         BLOCKEND  CODE     ---       LVL=1
      00FF5C5CH   LINE      ---      ---       #633
      00FF5C5CH   LINE      CODE     ---       #633

      00FF9806H   BLOCK     CODE     ---       LVL=0
      00FF9806H   LINE      ---      ---       #635
      00FF980AH   LINE      ---      ---       #636
      00FF980AH   BLOCK     CODE     NEAR LAB  LVL=1
      00FF980AH   LINE      ---      ---       #637
      00FF9813H   LINE      ---      ---       #642
      00FF9815H   LINE      ---      ---       #644
      00FF9829H   LINE      ---      ---       #645
L251 LINKER/LOCATER V4.66.93.0                                                        02/16/2024  15:12:23  PAGE 119


      00FF9830H   LINE      ---      ---       #649
      00FF983DH   LINE      ---      ---       #651
      00FF9847H   LINE      ---      ---       #652
      00FF9847H   LINE      ---      ---       #653
      00FF9867H   LINE      ---      ---       #654
      WR14        REGSYM    ---      WORD      bufferAddress_LOCAL
      REG=3       REGSYM    ---      ---       pOutput
      R13         REGSYM    ---      BYTE      i
      ---         BLOCKEND  CODE     ---       LVL=1
      00FF9872H   LINE      ---      ---       #655
      00FF9872H   LINE      CODE     ---       #655

      00FF9877H   BLOCK     CODE     ---       LVL=0
      00FF9877H   LINE      ---      ---       #661
      00FF987BH   LINE      ---      ---       #662
      00FF987BH   BLOCK     CODE     NEAR LAB  LVL=1
      00FF987BH   LINE      ---      ---       #664
      00FF9882H   LINE      ---      ---       #667
      00FF9884H   LINE      ---      ---       #672
      00FF9886H   LINE      ---      ---       #674
      00FF9892H   LINE      ---      ---       #675
      00FF9898H   LINE      ---      ---       #680
      00FF98A4H   LINE      ---      ---       #681
      00FF98ADH   LINE      ---      ---       #683
      00FF98B9H   LINE      ---      ---       #689
      00FF98C3H   LINE      ---      ---       #692
      00FF98CEH   LINE      ---      ---       #696
      00FF98D8H   LINE      ---      ---       #698
      00FF98DBH   LINE      ---      ---       #699
      00FF98DDH   LINE      ---      ---       #702
      00FF98DFH   LINE      ---      ---       #704
      00FF9906H   LINE      ---      ---       #706
      00FF9913H   LINE      ---      ---       #707
      00FF9916H   LINE      ---      ---       #708
      00FF991CH   LINE      ---      ---       #710
      00FF991CH   LINE      ---      ---       #711
      00FF9920H   LINE      ---      ---       #713
      00FF9923H   LINE      ---      ---       #714
      00FF9926H   LINE      ---      ---       #715
      00FF9926H   LINE      ---      ---       #734
      00FF9928H   LINE      ---      ---       #736
      00FF9941H   LINE      ---      ---       #737
      00FF994EH   LINE      ---      ---       #738
      00FF9954H   LINE      ---      ---       #739
      00FF9954H   LINE      ---      ---       #744
      00FF9958H   LINE      ---      ---       #747
      00FF995AH   LINE      ---      ---       #748
      00FF9964H   LINE      ---      ---       #750
      00FF9967H   LINE      ---      ---       #751
      00FF9969H   LINE      ---      ---       #754
      00FF996BH   LINE      ---      ---       #756
      00FF9986H   LINE      ---      ---       #758
      00FF9989H   LINE      ---      ---       #759
      00FF998DH   LINE      ---      ---       #760
      00FF9990H   LINE      ---      ---       #761
      00FF9996H   LINE      ---      ---       #763
      00FF9996H   LINE      ---      ---       #764
      00FF999EH   LINE      ---      ---       #766
      00FF99A1H   LINE      ---      ---       #767
      00FF99A4H   LINE      ---      ---       #768
      00FF99A4H   LINE      ---      ---       #784
      00FF99A8H   LINE      ---      ---       #787
      00FF99AAH   LINE      ---      ---       #788
      00FF99BEH   LINE      ---      ---       #790
      00FF99C1H   LINE      ---      ---       #791
L251 LINKER/LOCATER V4.66.93.0                                                        02/16/2024  15:12:23  PAGE 120


      00FF99C3H   LINE      ---      ---       #794
      00FF99C5H   LINE      ---      ---       #796
      00FF99F2H   LINE      ---      ---       #799
      00FF99F6H   LINE      ---      ---       #800
      00FF99F9H   LINE      ---      ---       #801
      00FF99FFH   LINE      ---      ---       #803
      00FF99FFH   LINE      ---      ---       #804
      00FF9A03H   LINE      ---      ---       #806
      00FF9A06H   LINE      ---      ---       #807
      00FF9A09H   LINE      ---      ---       #808
      00FF9A09H   LINE      ---      ---       #840
      00FF9A0CH   LINE      ---      ---       #842
      00FF9A0CH   LINE      ---      ---       #846
      00FF9A0EH   LINE      ---      ---       #847
      00FF9A10H   LINE      ---      ---       #849
      00FF9A18H   LINE      ---      ---       #851
      00FF9A1BH   LINE      ---      ---       #852
      00FF9A21H   LINE      ---      ---       #854
      00FF9A29H   LINE      ---      ---       #856
      00FF9A2CH   LINE      ---      ---       #857
      00FF9A2FH   LINE      ---      ---       #858
      00FF9A2FH   LINE      ---      ---       #869
      00FF9A35H   LINE      ---      ---       #872
      00FF9A39H   LINE      ---      ---       #873
      00FF9A3DH   LINE      ---      ---       #874
      00FF9A43H   LINE      ---      ---       #875
      00FF9A47H   LINE      ---      ---       #880
      00FF9A49H   LINE      ---      ---       #881
      00FF9A57H   LINE      ---      ---       #883
      00FF9A59H   LINE      ---      ---       #885
      00FF9A70H   LINE      ---      ---       #887
      00FF9A73H   LINE      ---      ---       #888
      00FF9A79H   LINE      ---      ---       #890
      00FF9A7DH   LINE      ---      ---       #892
      00FF9A80H   LINE      ---      ---       #893
      00FF9A83H   LINE      ---      ---       #894
      00FF9A83H   LINE      ---      ---       #914
      00FF9A83H   LINE      ---      ---       #915
      00FF9A83H   LINE      ---      ---       #917
      00000000H   STKSYM    ---      BYTE      frameType
      R6          REGSYM    ---      BYTE      i
      R7          REGSYM    ---      BYTE      match_found
      FFFFFFFEH   STKSYM    ---      ---       is_pan_num
      ---         BLOCKEND  CODE     ---       LVL=1
      00FF9A85H   LINE      ---      ---       #918
      00FF9A85H   LINE      CODE     ---       #918

      00FF6D4FH   BLOCK     CODE     ---       LVL=0
      00FF6D4FH   LINE      ---      ---       #951
      00FF6D53H   LINE      ---      ---       #952
      00FF6D53H   BLOCK     CODE     NEAR LAB  LVL=1
      00FF6D53H   LINE      ---      ---       #953
      00FF6D53H   LINE      ---      ---       #954
      00FF6D56H   LINE      ---      ---       #959
      00FF6D59H   LINE      ---      ---       #960
      00FF6D5CH   LINE      ---      ---       #968
      00FF6D68H   LINE      ---      ---       #969
      00FF6D6CH   LINE      ---      ---       #970
      00FF6D6EH   LINE      ---      ---       #971
      00FF6D6EH   LINE      ---      ---       #976
      00FF6D75H   LINE      ---      ---       #979
      00FF6D8EH   LINE      ---      ---       #981
      00FF6D95H   LINE      ---      ---       #984
      00FF6D98H   LINE      ---      ---       #986
      00FF6D9CH   LINE      ---      ---       #987
L251 LINKER/LOCATER V4.66.93.0                                                        02/16/2024  15:12:23  PAGE 121


      00FF6D9EH   LINE      ---      ---       #988
      00FF6D9EH   LINE      ---      ---       #997
      00FF6DA8H   LINE      ---      ---       #998
      00FF6DC6H   LINE      ---      ---       #999
      00FF6DC8H   LINE      ---      ---       #1000
      00FF6DD8H   LINE      ---      ---       #1001
      00FF6DDBH   LINE      ---      ---       #1002
      00FF6DDBH   LINE      ---      ---       #1008
      00FF6DE7H   LINE      ---      ---       #1011
      00FF6DECH   LINE      ---      ---       #1017
      00FF6DF6H   LINE      ---      ---       #1019
      00FF6DFAH   LINE      ---      ---       #1020
      00FF6DFCH   LINE      ---      ---       #1022
      00FF6E00H   LINE      ---      ---       #1023
      00FF6E02H   LINE      ---      ---       #1026
      00FF6E09H   LINE      ---      ---       #1028
      00FF6E0CH   LINE      ---      ---       #1029
      00FF6E16H   LINE      ---      ---       #1031
      00FF6E19H   LINE      ---      ---       #1033
      00FF6E2FH   LINE      ---      ---       #1035
      00FF6E32H   LINE      ---      ---       #1037
      00FF6E38H   LINE      ---      ---       #1041
      00FF6E3EH   LINE      ---      ---       #1043
      00FF6E48H   LINE      ---      ---       #1044
      R10         REGSYM    ---      BYTE      macRxInfo
      R14         REGSYM    ---      BYTE      isCrcPass
      R14         REGSYM    ---      BYTE      srcAddrType
      R5          REGSYM    ---      BYTE      listidx
      00FF6E48H   BLOCK     CODE     NEAR LAB  LVL=2
      00FF6E48H   LINE      ---      ---       #1047
      00FF6E56H   LINE      ---      ---       #1049
      00FF6E61H   LINE      ---      ---       #1050
      00FF6E65H   LINE      ---      ---       #1052
      00FF6E67H   LINE      ---      ---       #1053
      00FF6E69H   LINE      ---      ---       #1055
      00FF6E6DH   LINE      ---      ---       #1057
      00FF6E7EH   LINE      ---      ---       #1058
      00FF6E80H   LINE      ---      ---       #1061
      00FF6E91H   LINE      ---      ---       #1062
      00FF6E91H   LINE      ---      ---       #1063
      00FF6E9FH   LINE      ---      ---       #1075
      00FF6EB2H   LINE      ---      ---       #1076
      00FF6EBAH   LINE      ---      ---       #1077
      00FF6EC2H   LINE      ---      ---       #1078
      R15         REGSYM    ---      BYTE      status
      ---         BLOCKEND  CODE     ---       LVL=2
      00FF6ECAH   LINE      ---      ---       #1079
      00FF6ECAH   LINE      ---      ---       #1084
      00FF6ECDH   LINE      ---      ---       #1086
      00FF6ED2H   LINE      ---      ---       #1090
      00FF6EDAH   LINE      ---      ---       #1092
      00FF6EDDH   LINE      ---      ---       #1094
      00FF6EEDH   LINE      ---      ---       #1098
      00FF6F05H   LINE      ---      ---       #1100
      00FF6F0CH   LINE      ---      ---       #1102
      00FF6F0FH   LINE      ---      ---       #1104
      00FF6F13H   LINE      ---      ---       #1105
      00FF6F13H   LINE      ---      ---       #1108
      00FF6F16H   LINE      ---      ---       #1110
      00FF6F19H   LINE      ---      ---       #1113
      00FF6F34H   LINE      ---      ---       #1114
      00FF6F3DH   LINE      ---      ---       #1117
      00FF6F47H   LINE      ---      ---       #1119
      00FF6F4BH   LINE      ---      ---       #1120
      00FF6F4DH   LINE      ---      ---       #1122
L251 LINKER/LOCATER V4.66.93.0                                                        02/16/2024  15:12:23  PAGE 122


      00FF6F51H   LINE      ---      ---       #1124
      00FF6F53H   LINE      ---      ---       #1128
      00FF6F58H   LINE      ---      ---       #1131
      00FF6F62H   LINE      ---      ---       #1133
      00FF6F66H   LINE      ---      ---       #1134
      00FF6F68H   LINE      ---      ---       #1136
      00FF6F6CH   LINE      ---      ---       #1137
      00FF6F6CH   LINE      ---      ---       #1139
      00FF6F6CH   LINE      ---      ---       #1140
      00FF6F6EH   LINE      ---      ---       #1143
      00FF6F71H   LINE      ---      ---       #1145
      00FF6F76H   LINE      ---      ---       #1149
      00FF6F79H   LINE      ---      ---       #1152
      00FF6F83H   LINE      ---      ---       #1154
      00FF6F87H   LINE      ---      ---       #1155
      00FF6F89H   LINE      ---      ---       #1157
      00FF6F8DH   LINE      ---      ---       #1159
      00FF6F8DH   LINE      ---      ---       #1160
      00FF6F8FH   LINE      ---      ---       #1163
      00FF6F92H   LINE      ---      ---       #1165
      00FF6F97H   LINE      ---      ---       #1169
      00FF6F9AH   LINE      ---      ---       #1172
      00FF6FA4H   LINE      ---      ---       #1174
      00FF6FA8H   LINE      ---      ---       #1175
      00FF6FAAH   LINE      ---      ---       #1177
      00FF6FB1H   LINE      ---      ---       #1178
      00FF6FB1H   LINE      ---      ---       #1179
      00FF6FB1H   LINE      ---      ---       #1181
      00FF6FB1H   LINE      CODE     ---       #1181
      ---         BLOCKEND  CODE     ---       LVL=0

      00FF6FB7H   BLOCK     CODE     ---       LVL=0
      00FF6FB7H   LINE      ---      ---       #1184
      00FF6FB7H   LINE      ---      ---       #1187
      00FF6FBEH   LINE      ---      ---       #1190
      ---         BLOCKEND  ---      ---       LVL=0

      00FF94BBH   BLOCK     CODE     ---       LVL=0
      00FF94BBH   LINE      ---      ---       #1195
      00FF94BBH   LINE      ---      ---       #1197
      ---         BLOCKEND  ---      ---       LVL=0

      00FF9116H   BLOCK     CODE     ---       LVL=0
      00FF9116H   LINE      ---      ---       #1199
      00FF9118H   LINE      ---      ---       #1201
      00FF911BH   LINE      ---      ---       #1202
      00FF911EH   LINE      ---      ---       #1205
      00FF912CH   LINE      ---      ---       #1207
      00FF9136H   LINE      ---      ---       #1209
      00FF9136H   LINE      ---      ---       #1210
      00FF9136H   LINE      ---      ---       #1240
      00FF9136H   BLOCK     CODE     NEAR LAB  LVL=1
      00FF9136H   LINE      ---      ---       #1242
      00FF913EH   LINE      ---      ---       #1243
      00FF9146H   LINE      ---      ---       #1244
      00FF914EH   LINE      ---      ---       #1245
      00FF9156H   LINE      ---      ---       #1246
      0000B531H   SYMBOL    EDATA    ---       cb
      ---         BLOCKEND  CODE     ---       LVL=1
      00FF915DH   LINE      ---      ---       #1247
      00FF915DH   LINE      ---      ---       #1257
      00FF9162H   LINE      ---      ---       #1259
      00FF9165H   LINE      ---      ---       #1262
      00FF9165H   LINE      ---      ---       #1264
      00FF916FH   LINE      ---      ---       #1266
L251 LINKER/LOCATER V4.66.93.0                                                        02/16/2024  15:12:23  PAGE 123


      00FF9172H   LINE      ---      ---       #1267
      00FF9175H   LINE      ---      ---       #1278
      00FF9175H   LINE      ---      ---       #1282
      00FF917BH   LINE      ---      ---       #1286
      00FF9181H   LINE      ---      ---       #1288
      00FF9191H   LINE      ---      ---       #1291
      00FF9197H   LINE      ---      ---       #1292
      00FF9199H   LINE      ---      ---       #1295
      00FF919DH   LINE      ---      ---       #1296
      00FF919FH   LINE      ---      ---       #1300
      00FF91A7H   LINE      ---      ---       #1304
      00FF91A7H   LINE      ---      ---       #1305
      00FF91A9H   LINE      ---      ---       #1308
      00FF91ACH   LINE      ---      ---       #1309
      00FF91ACH   LINE      ---      ---       #1311
      00FF91B8H   LINE      ---      ---       #1313
      00FF91C0H   LINE      ---      ---       #1314
      00FF91C0H   LINE      CODE     ---       #1314

      00FF94BCH   BLOCK     CODE     ---       LVL=0
      00FF94BCH   LINE      ---      ---       #1316
      00FF94BCH   LINE      ---      ---       #1317
      00FF94BCH   BLOCK     CODE     NEAR LAB  LVL=1
      00FF94BCH   LINE      ---      ---       #1318
      00FF94BCH   LINE      ---      ---       #1323
      00FF94BFH   LINE      ---      ---       #1338
      00FF94C5H   LINE      ---      ---       #1340
      00FF94C8H   LINE      ---      ---       #1342
      00FF94CEH   LINE      ---      ---       #1344
      00FF94D3H   LINE      ---      ---       #1345
      00FF94D9H   LINE      ---      ---       #1346
      00FF94D9H   LINE      ---      ---       #1362
      00FF94E0H   LINE      ---      ---       #1374
      00FF94E4H   LINE      ---      ---       #1375
      00FF94E6H   LINE      ---      ---       #1377
      00FF94ECH   LINE      ---      ---       #1379
      00FF94EFH   LINE      ---      ---       #1380
      00FF94F9H   LINE      ---      ---       #1382
      00FF94FCH   LINE      ---      ---       #1383
      00FF94FDH   LINE      ---      ---       #1384
      00FF94FDH   LINE      ---      ---       #1386
      00FF9507H   LINE      ---      ---       #1388
      00FF950AH   LINE      ---      ---       #1389
      00FF9512H   LINE      ---      ---       #1390
      00FF9513H   LINE      ---      ---       #1391
      00FF9513H   LINE      ---      ---       #1393
      00FF9519H   LINE      ---      ---       #1395
      00FF9528H   LINE      ---      ---       #1396
      00FF953AH   LINE      ---      ---       #1397
      00FF9544H   LINE      ---      ---       #1398
      00FF9544H   LINE      ---      ---       #1400
      00FF954CH   LINE      ---      ---       #1401
      00FF9555H   LINE      ---      ---       #1402
      WR6         REGSYM    ---      WORD      macFunEventQueue
      ---         BLOCKEND  CODE     ---       LVL=1
      ---         BLOCKEND  CODE     ---       LVL=0

      00FF279CH   BLOCK     CODE     ---       LVL=0
      00FF279CH   LINE      ---      ---       #1446
      00FF279CH   LINE      ---      ---       #1447
      00FF279CH   BLOCK     CODE     NEAR LAB  LVL=1
      00FF279CH   LINE      ---      ---       #1448
      00FF279CH   LINE      ---      ---       #1450
      00FF279EH   LINE      ---      ---       #1451
      00FF27BCH   LINE      ---      ---       #1453
L251 LINKER/LOCATER V4.66.93.0                                                        02/16/2024  15:12:23  PAGE 124


      00FF27BCH   LINE      ---      ---       #1454
      00FF27BCH   LINE      ---      ---       #1456
      00FF27BEH   LINE      ---      ---       #1461
      00FF27C2H   LINE      ---      ---       #1462
      00FF27C4H   LINE      ---      ---       #1463
      00FF27C4H   LINE      ---      ---       #1465
      00FF27C6H   LINE      ---      ---       #1470
      00FF27CAH   LINE      ---      ---       #1471
      00FF27CCH   LINE      ---      ---       #1472
      00FF27CCH   LINE      ---      ---       #1473
      00FF27D0H   LINE      ---      ---       #1474
      00FF27D2H   LINE      ---      ---       #1475
      00FF27D2H   LINE      ---      ---       #1476
      00FF27D2H   LINE      ---      ---       #1477
      00FF27DAH   LINE      ---      ---       #1478
      00FF27DCH   LINE      ---      ---       #1479
      00FF27DCH   LINE      ---      ---       #1480
      00FF27DEH   LINE      ---      ---       #1481
      00FF27DEH   LINE      ---      ---       #1482
      00FF27DEH   LINE      ---      ---       #1483
      WR6         REGSYM    ---      WORD      macFunEventQueue
      ---         BLOCKEND  CODE     ---       LVL=1
      ---         BLOCKEND  CODE     ---       LVL=0

      00FF9556H   BLOCK     CODE     ---       LVL=0
      00FF9556H   LINE      ---      ---       #1487
      00FF9556H   LINE      ---      ---       #1488
      00FF9556H   BLOCK     CODE     NEAR LAB  LVL=1
      00FF9556H   LINE      ---      ---       #1506
      00FF9559H   LINE      ---      ---       #1507
      00FF955FH   LINE      ---      ---       #1509
      00FF9562H   LINE      ---      ---       #1510
      00FF9565H   LINE      ---      ---       #1517
      00FF9568H   LINE      ---      ---       #1520
      00FF9572H   LINE      ---      ---       #1522
      00FF957AH   LINE      ---      ---       #1524
      00FF957EH   LINE      ---      ---       #1530
      00FF957EH   LINE      ---      ---       #1532
      00FF9586H   LINE      ---      ---       #1533
      WR6         REGSYM    ---      WORD      macFunEventQueue
      ---         BLOCKEND  CODE     ---       LVL=1
      ---         BLOCKEND  CODE     ---       LVL=0

      00FF9587H   BLOCK     CODE     ---       LVL=0
      00FF9587H   LINE      ---      ---       #1537
      00FF9587H   LINE      ---      ---       #1561
      ---         BLOCKEND  ---      ---       LVL=0

      00FF9588H   BLOCK     CODE     ---       LVL=0
      00FF9588H   LINE      ---      ---       #1563
      00FF9588H   LINE      ---      ---       #1565
      00FF958BH   LINE      ---      ---       #1566
      00FF958EH   LINE      ---      ---       #1574
      00FF9591H   LINE      ---      ---       #1579
      00FF9597H   LINE      ---      ---       #1580
      00FF959DH   LINE      ---      ---       #1584
      00FF95A0H   LINE      ---      ---       #1595
      00FF95A5H   LINE      ---      ---       #1598
      ---         BLOCKEND  ---      ---       LVL=0

      00FF95A6H   BLOCK     CODE     ---       LVL=0
      00FF95A6H   LINE      ---      ---       #1600
      00FF95A6H   LINE      ---      ---       #1602
      ---         BLOCKEND  ---      ---       LVL=0

L251 LINKER/LOCATER V4.66.93.0                                                        02/16/2024  15:12:23  PAGE 125


      00FF8257H   BLOCK     CODE     ---       LVL=0
      00FF8257H   LINE      ---      ---       #1604
      00FF8257H   LINE      ---      ---       #1607
      00FF825EH   LINE      ---      ---       #1609
      00FF825EH   LINE      ---      ---       #1610
      00FF825EH   LINE      ---      ---       #1615
      00FF826AH   LINE      ---      ---       #1616
      ---         BLOCKEND  ---      ---       LVL=0

      00FF95A7H   BLOCK     CODE     ---       LVL=0
      00FF95A7H   LINE      ---      ---       #1620
      00FF95A7H   LINE      ---      ---       #1622
      00FF95AEH   LINE      ---      ---       #1624
      00FF95BCH   LINE      ---      ---       #1629
      00FF95C3H   LINE      ---      ---       #1630
      ---         BLOCKEND  ---      ---       LVL=0

      00FF876FH   BLOCK     CODE     ---       LVL=0
      00FF876FH   LINE      ---      ---       #1648
      00FF876FH   LINE      ---      ---       #1660
      00FF877FH   LINE      ---      ---       #1665
      00FF8781H   LINE      ---      ---       #1668
      00FF8787H   LINE      ---      ---       #1675
      00FF878AH   LINE      ---      ---       #1692
      00FF878AH   LINE      ---      ---       #1696
      00FF8793H   LINE      ---      ---       #1697
      00FF8793H   LINE      ---      ---       #1698
      ---         BLOCKEND  ---      ---       LVL=0
      00FF6FB2H   LINE      ---      ---       #1182
      00FF4495H   LINE      ---      ---       #580

      ---         MODULE    ---      ---       mac_TarSchedule
      00FF9A8AH   PUBLIC    CODE     ---       mac_Tar_SchInitHdlr
      00FF5C88H   PUBLIC    CODE     ---       mac_Tar_SchConfigHdlr
      00FF5D27H   PUBLIC    CODE     ---       mac_Tar_SchWaitCCADoneHdlr
      00FF9A8BH   PUBLIC    CODE     ---       mac_Tar_SchWaitTxDoneHdlr
      00FF9AFDH   PUBLIC    CODE     ---       mac_Tar_SchWaitAckRxMHRHdlr
      00FF29BDH   PUBLIC    CODE     ---       mac_Tar_SchWaitAckRxDoneHdlr
      00FF9B50H   PUBLIC    CODE     ---       mac_Tar_SchWaitNormalRxMsgHdlr
      00FF9C48H   PUBLIC    CODE     ---       mac_Tar_SchWaitNormalAckDoneHdlr
      00FF9C7AH   PUBLIC    CODE     ---       mac_Tar_SchEndHdlr
      00FF9CAAH   PUBLIC    CODE     ---       mac_Tar_SchReservedHdlr
      00FF826BH   PUBLIC    CODE     ---       MAC_TarSchedule
      00FF5F68H   PUBLIC    CODE     ---       MAC_TarParInit
      00FF25A9H   PUBLIC    CODE     ---       MacTxFreeBmuData
      00FF25FDH   PUBLIC    CODE     ---       Mac_TxGetBmuData
      00FF27EFH   PUBLIC    CODE     ---       mac_org_tx_done_handler
      00FF9CABH   PUBLIC    CODE     ---       mac_org_cca_done_handler
      00FF5A59H   PUBLIC    CODE     ---       MAC_TxHwSet
      00FF33FBH   PUBLIC    CODE     ---       MAC_RxHwSet
      00FF36E7H   PUBLIC    CODE     ---       MAC_BackoffTimeCal
      00FF9CC4H   PUBLIC    CODE     ---       MAC_AckFrameCheck
      00FF26AEH   PUBLIC    CODE     ---       MAC_TxDoneEventGen
      00FF5D0BH   PUBLIC    CODE     ---       MAC_TxTaskSet
      00FF9DF2H   PUBLIC    CODE     ---       mac_tar_check_data_requst
      00FF3645H   PUBLIC    CODE     ---       MAC_SecLbHwSet
      00FF5CFAH   PUBLIC    CODE     ---       MAC_TxStart
      00FF361CH   PUBLIC    CODE     ---       MAC_WaitforRxTaskReady
      00FF35D1H   PUBLIC    CODE     ---       MAC_CcaStart
      00FF5DFBH   PUBLIC    CODE     ---       MAC_CcaStatusGet
      00FF35CDH   PUBLIC    CODE     ---       mac_tar_cca_setup
      0000A000H   PUBLIC    EDATA    INT       gMacTarState
      0000A002H   PUBLIC    EDATA    ---       gMacTxPar
      0000A024H   PUBLIC    EDATA    ---       gMacRxPar
      0000A08FH   PUBLIC    EDATA    ---       gMacHdr
L251 LINKER/LOCATER V4.66.93.0                                                        02/16/2024  15:12:23  PAGE 126


      0000A0D2H   PUBLIC    EDATA    ---       gMacBuf
      0000A90AH   PUBLIC    EDATA    ---       gPhyStatus
      0000A90FH   PUBLIC    EDATA    BYTE      gRetransmissionCount
      0000A910H   PUBLIC    EDATA    BYTE      gCsmacaRetry
      0000A911H   PUBLIC    EDATA    BYTE      gBackoffExpIdx
      0000A912H   PUBLIC    EDATA    ---       gTar_ScheHandler_Entry
      000000A8H.7 SFRSYM    DATA     BIT       EA
      00000080H   SFRSYM    DATA     BYTE      P0

      00FF5A45H   BLOCK     CODE     ---       LVL=0
      00FF5A59H   LINE      ---      ---       #83
      00FF5A65H   LINE      ---      ---       #84
      00FF5A45H   SYMBOL    CODE     NEAR LAB  ?L?COM0016
      R11         REGSYM    ---      BYTE      bLocalTxQueue
      R10         REGSYM    ---      BYTE      txQueueIdx
      0000B5BDH   SYMBOL    EDATA    INT       aesLv
      WR12        REGSYM    ---      WORD      aDataLen
      WR14        REGSYM    ---      WORD      mDataLen
      00FF5A65H   BLOCK     CODE     NEAR LAB  LVL=1
      00FF5A65H   LINE      ---      ---       #88
      00FF5A67H   LINE      ---      ---       #90
      00FF5A6DH   LINE      ---      ---       #91
      00FF5A6EH   LINE      ---      ---       #92
      00FF5A70H   LINE      ---      ---       #95
      00FF5A7CH   LINE      ---      ---       #97
      00FF5A82H   LINE      ---      ---       #98
      00FF5A86H   LINE      ---      ---       #101
      00FF5A8FH   LINE      ---      ---       #102
      00FF5A8FH   LINE      ---      ---       #111
      00FF5A95H   LINE      ---      ---       #113
      00FF5A98H   LINE      ---      ---       #114
      00FF5A98H   LINE      ---      ---       #117
      00FF5AB0H   LINE      ---      ---       #125
      0000B5BFH   SYMBOL    EDATA    BYTE      retValue
      ---         BLOCKEND  CODE     ---       LVL=1
      00FF5AB2H   LINE      ---      ---       #126
      00FF5AB2H   LINE      CODE     ---       #126

      00FF33F8H   BLOCK     CODE     ---       LVL=0
      00FF33FBH   LINE      ---      ---       #128
      00FF3403H   LINE      ---      ---       #129
      00FF33F8H   SYMBOL    CODE     NEAR LAB  ?L?COM0032
      R7          REGSYM    ---      BYTE      bLocalRxQueue
      WR14        REGSYM    ---      INT       aesLv
      00FF3403H   BLOCK     CODE     NEAR LAB  LVL=1
      00FF3403H   LINE      ---      ---       #133
      00FF3407H   LINE      ---      ---       #135
      00FF340FH   LINE      ---      ---       #136
      00FF3410H   LINE      ---      ---       #137
      00FF3412H   LINE      ---      ---       #140
      00FF3418H   LINE      ---      ---       #141
      00FF3421H   LINE      ---      ---       #142
      00FF3421H   LINE      ---      ---       #150
      00FF3425H   LINE      ---      ---       #152
      00FF3428H   LINE      ---      ---       #153
      00FF3428H   LINE      ---      ---       #156
      00FF342DH   LINE      ---      ---       #160
      00FF3444H   LINE      ---      ---       #161
      00FF3446H   LINE      ---      ---       #166
      00FF3464H   LINE      ---      ---       #167
      00FF3464H   LINE      ---      ---       #175
      R13         REGSYM    ---      BYTE      retValue
      ---         BLOCKEND  CODE     ---       LVL=1
      00FF3466H   LINE      ---      ---       #176
      00FF3466H   LINE      CODE     ---       #176
L251 LINKER/LOCATER V4.66.93.0                                                        02/16/2024  15:12:23  PAGE 127



      00FF36E7H   BLOCK     CODE     ---       LVL=0
      00FF36E7H   LINE      ---      ---       #179
      00FF36EBH   LINE      ---      ---       #180
      REG=7       REGSYM    ---      ---       backoffDuration
      00FF36EBH   BLOCK     CODE     NEAR LAB  LVL=1
      00FF36EBH   LINE      ---      ---       #183
      00FF36F6H   LINE      ---      ---       #184
      00FF370BH   LINE      ---      ---       #185
      0000B5E8H   SYMBOL    EDATA    BYTE      randValue
      R7          REGSYM    ---      BYTE      backoffExp
      ---         BLOCKEND  CODE     ---       LVL=1
      00FF371DH   LINE      ---      ---       #186
      00FF371DH   LINE      CODE     ---       #186

      00FF9CC4H   BLOCK     CODE     ---       LVL=0
      00FF9CC4H   LINE      ---      ---       #191
      00FF9CC6H   LINE      ---      ---       #192
      R5          REGSYM    ---      BYTE      dsn
      00FF9CC6H   BLOCK     CODE     NEAR LAB  LVL=1
      00FF9CC6H   LINE      ---      ---       #193
      00FF9CC8H   LINE      ---      ---       #197
      00FF9CCAH   LINE      ---      ---       #202
      00FF9CCCH   LINE      ---      ---       #204
      00FF9CD3H   LINE      ---      ---       #205
      00FF9CD9H   LINE      ---      ---       #209
      00FF9CE4H   LINE      ---      ---       #211
      00FF9CEAH   LINE      ---      ---       #213
      00FF9CEDH   LINE      ---      ---       #214
      00FF9CEDH   LINE      ---      ---       #216
      00FF9D00H   LINE      ---      ---       #219
      00FF9D06H   LINE      ---      ---       #221
      00FF9D08H   LINE      ---      ---       #223
      00FF9D2DH   LINE      ---      ---       #225
      00FF9D35H   LINE      ---      ---       #226
      00FF9D38H   LINE      ---      ---       #227
      00FF9D3EH   LINE      ---      ---       #229
      00FF9D42H   LINE      ---      ---       #231
      00FF9D45H   LINE      ---      ---       #232
      00FF9D47H   LINE      ---      ---       #233
      00FF9D47H   LINE      ---      ---       #237
      00FF9D49H   LINE      ---      ---       #239
      00FF9D60H   LINE      ---      ---       #240
      00FF9D68H   LINE      ---      ---       #241
      00FF9D6EH   LINE      ---      ---       #242
      00FF9D6EH   LINE      ---      ---       #244
      00FF9D77H   LINE      ---      ---       #246
      00FF9D7EH   LINE      ---      ---       #248
      00FF9D80H   LINE      ---      ---       #249
      00FF9D82H   LINE      ---      ---       #251
      00FF9D98H   LINE      ---      ---       #252
      00FF9D9BH   LINE      ---      ---       #253
      00FF9DA1H   LINE      ---      ---       #254
      00FF9DA5H   LINE      ---      ---       #256
      00FF9DA8H   LINE      ---      ---       #257
      00FF9DAAH   LINE      ---      ---       #258
      00FF9DACH   LINE      ---      ---       #262
      00FF9DAEH   LINE      ---      ---       #263
      00FF9DB0H   LINE      ---      ---       #265
      00FF9DDDH   LINE      ---      ---       #267
      00FF9DE0H   LINE      ---      ---       #268
      00FF9DE6H   LINE      ---      ---       #269
      00FF9DEAH   LINE      ---      ---       #271
      00FF9DEDH   LINE      ---      ---       #272
      00FF9DEFH   LINE      ---      ---       #273
L251 LINKER/LOCATER V4.66.93.0                                                        02/16/2024  15:12:23  PAGE 128


      00FF9DEFH   LINE      ---      ---       #275
      00FF9DEFH   LINE      ---      ---       #306
      00FF9DEFH   LINE      ---      ---       #307
      R4          REGSYM    ---      BYTE      retValue
      R6          REGSYM    ---      BYTE      i
      R7          REGSYM    ---      BYTE      match_found
      0000B5D2H   SYMBOL    EDATA    ---       is_pan_num
      ---         BLOCKEND  CODE     ---       LVL=1
      00FF9DF1H   LINE      ---      ---       #308
      00FF9DF1H   LINE      CODE     ---       #308

      00FF26A6H   BLOCK     CODE     ---       LVL=0
      00FF26AEH   LINE      ---      ---       #312
      00FF26B2H   LINE      ---      ---       #313
      00FF26A6H   SYMBOL    CODE     NEAR LAB  ?L?COM0004
      R15         REGSYM    ---      BYTE      txState
      R7          REGSYM    ---      BYTE      localTxQueue
      R6          REGSYM    ---      BYTE      txQueueIdx
      00FF26B2H   BLOCK     CODE     NEAR LAB  LVL=1
      00FF26B2H   LINE      ---      ---       #315
      00FF26B2H   LINE      ---      ---       #316
      00FF26B5H   LINE      ---      ---       #318
      00FF26B9H   LINE      ---      ---       #320
      00FF26BDH   LINE      ---      ---       #321
      00FF26BFH   LINE      ---      ---       #324
      00FF26C6H   LINE      ---      ---       #325
      00FF26C6H   LINE      ---      ---       #328
      00FF26DFH   LINE      ---      ---       #330
      00FF26DFH   LINE      ---      ---       #331
      00FF26E8H   LINE      ---      ---       #332
      00FF26EAH   LINE      ---      ---       #333
      00FF26EAH   LINE      ---      ---       #334
      00FF26F3H   LINE      ---      ---       #335
      00FF26F5H   LINE      ---      ---       #336
      00FF26F5H   LINE      ---      ---       #337
      00FF26FEH   LINE      ---      ---       #338
      00FF2700H   LINE      ---      ---       #339
      00FF2700H   LINE      ---      ---       #340
      00FF2709H   LINE      ---      ---       #341
      00FF270BH   LINE      ---      ---       #342
      00FF270BH   LINE      ---      ---       #343
      00FF2717H   LINE      ---      ---       #344
      00FF2717H   LINE      ---      ---       #346
      00FF2717H   LINE      ---      ---       #348
      00FF2720H   LINE      ---      ---       #352
      00FF2722H   LINE      ---      ---       #355
      R14         REGSYM    ---      BYTE      retValue
      ---         BLOCKEND  CODE     ---       LVL=1
      00FF2724H   LINE      ---      ---       #356
      00FF2724H   LINE      CODE     ---       #356

      00FF5D0BH   BLOCK     CODE     ---       LVL=0
      00FF5D0BH   LINE      ---      ---       #362
      00FF5D0FH   LINE      ---      ---       #365
      00FF5D13H   LINE      ---      ---       #368
      00FF5D18H   LINE      ---      ---       #377
      00FF5D1AH   LINE      ---      ---       #381
      00FF5D21H   LINE      ---      ---       #382
      00FF5D21H   LINE      ---      ---       #384
      R5          REGSYM    ---      BYTE      ackRequest
      WR6         REGSYM    ---      WORD      interFrameSpace
      DR28        REGSYM    ---      DWORD     ackWaitDuration
      ---         BLOCKEND  ---      ---       LVL=0

      00FF9DF2H   BLOCK     CODE     ---       LVL=0
L251 LINKER/LOCATER V4.66.93.0                                                        02/16/2024  15:12:23  PAGE 129


      00FF9DF2H   LINE      ---      ---       #388
      00FF9DF6H   LINE      ---      ---       #389
      R10         REGSYM    ---      BYTE      qId
      00FF9DF6H   BLOCK     CODE     NEAR LAB  LVL=1
      00FF9DF6H   LINE      ---      ---       #391
      00FF9DF9H   LINE      ---      ---       #393
      00FF9DFFH   LINE      ---      ---       #394
      00FF9E0BH   LINE      ---      ---       #396
      00FF9E1CH   LINE      ---      ---       #398
      00FF9E29H   LINE      ---      ---       #399
      00FF9E33H   LINE      ---      ---       #401
      00FF9E40H   LINE      ---      ---       #402
      00FF9E43H   LINE      ---      ---       #403
      00FF9E43H   LINE      ---      ---       #405
      00FF9E47H   LINE      ---      ---       #406
      00FF9E4AH   LINE      ---      ---       #407
      00FF9E50H   LINE      ---      ---       #408
      00FF9E53H   LINE      ---      ---       #409
      00FF9E53H   LINE      ---      ---       #411
      00FF9E57H   LINE      ---      ---       #412
      00FF9E5CH   LINE      ---      ---       #413
      00FF9E5EH   LINE      ---      ---       #414
      00FF9E60H   LINE      ---      ---       #415
      00FF9E62H   LINE      ---      ---       #416
      00FF9E62H   LINE      ---      ---       #417
      00FF9E68H   LINE      ---      ---       #418
      00FF9E6DH   LINE      ---      ---       #419
      00FF9E70H   LINE      ---      ---       #420
      00FF9E72H   LINE      ---      ---       #421
      00FF9E75H   LINE      ---      ---       #422
      00FF9E75H   LINE      ---      ---       #423
      00FF9E75H   LINE      ---      ---       #426
      00FF9E7AH   LINE      ---      ---       #427
      00FF9E7DH   LINE      ---      ---       #428
      00FF9E92H   LINE      ---      ---       #430
      00FF9E92H   LINE      ---      ---       #431
      00FF9E92H   LINE      ---      ---       #432
      00FF9E92H   LINE      ---      ---       #433
      00FF9E94H   LINE      ---      ---       #434
      00FF9E96H   LINE      ---      ---       #435
      00FF9E96H   LINE      ---      ---       #436
      00FF9E98H   LINE      ---      ---       #437
      00FF9E9AH   LINE      ---      ---       #438
      00FF9E9AH   LINE      ---      ---       #439
      00FF9E9DH   LINE      ---      ---       #440
      00FF9E9DH   LINE      ---      ---       #441
      00FF9E9DH   LINE      ---      ---       #442
      00FF9E9DH   LINE      ---      ---       #443
      00FF9E9DH   LINE      ---      ---       #444
      00FF9E9DH   LINE      ---      ---       #447
      0000B2E6H   SYMBOL    EDATA    ---       mhr
      R15         REGSYM    ---      BYTE      offset
      R6          REGSYM    ---      BYTE      dest_mode
      R7          REGSYM    ---      BYTE      src_mode
      ---         BLOCKEND  CODE     ---       LVL=1
      00FF9EABH   LINE      ---      ---       #448
      00FF9EABH   LINE      CODE     ---       #448

      00FF3645H   BLOCK     CODE     ---       LVL=0
      00FF3645H   LINE      ---      ---       #452
      00FF3651H   LINE      ---      ---       #453
      0000B595H   SYMBOL    EDATA    INT       aesLv
      0000B597H   SYMBOL    EDATA    WORD      aDataLen
      WR12        REGSYM    ---      WORD      mDataLen
      00FF3651H   BLOCK     CODE     NEAR LAB  LVL=1
L251 LINKER/LOCATER V4.66.93.0                                                        02/16/2024  15:12:23  PAGE 130


      00FF3651H   LINE      ---      ---       #457
      00FF3657H   LINE      ---      ---       #458
      00FF3662H   LINE      ---      ---       #459
      00FF3664H   LINE      ---      ---       #462
      00FF366CH   LINE      ---      ---       #463
      00FF3673H   LINE      ---      ---       #467
      00FF369EH   LINE      ---      ---       #468
      00FF36A2H   LINE      ---      ---       #469
      00FF36A2H   LINE      ---      ---       #471
      R15         REGSYM    ---      BYTE      retValue
      ---         BLOCKEND  CODE     ---       LVL=1
      00FF36A3H   LINE      ---      ---       #472
      00FF36A3H   LINE      CODE     ---       #472

      00FF5CFAH   BLOCK     CODE     ---       LVL=0
      00FF5CFAH   LINE      ---      ---       #475
      00FF5CFAH   LINE      ---      ---       #477
      00FF5CFDH   LINE      ---      ---       #494
      ---         BLOCKEND  ---      ---       LVL=0

      00FF361CH   BLOCK     CODE     ---       LVL=0
      00FF361CH   LINE      ---      ---       #498
      00FF361CH   LINE      ---      ---       #499
      00FF361CH   BLOCK     CODE     NEAR LAB  LVL=1
      00FF361CH   LINE      ---      ---       #503
      00FF361CH   LINE      ---      ---       #504
      00FF3626H   LINE      ---      ---       #506
      R10         REGSYM    ---      BYTE      rfStateTmp
      ---         BLOCKEND  CODE     ---       LVL=1
      00FF362BH   LINE      ---      ---       #508
      00FF362BH   LINE      CODE     ---       #508

      00FF35D1H   BLOCK     CODE     ---       LVL=0
      00FF35D1H   LINE      ---      ---       #511
      00FF35D1H   LINE      ---      ---       #512
      00FF35D1H   BLOCK     CODE     NEAR LAB  LVL=1
      00FF35D1H   LINE      ---      ---       #514
      00FF35D7H   LINE      ---      ---       #516
      00FF35DAH   LINE      ---      ---       #518
      00FF35E0H   LINE      ---      ---       #521
      00FF35E6H   LINE      ---      ---       #523
      00FF35EFH   LINE      ---      ---       #524
      00FF3607H   LINE      ---      ---       #527
      00FF3613H   LINE      ---      ---       #529
      00FF361AH   LINE      ---      ---       #531
      DR0         REGSYM    ---      DWORD     ccaTime
      0000B599H   SYMBOL    EDATA    DWORD     backoffDuration
      ---         BLOCKEND  CODE     ---       LVL=1
      ---         BLOCKEND  CODE     ---       LVL=0

      00FF5DFBH   BLOCK     CODE     ---       LVL=0
      00FF5DFBH   LINE      ---      ---       #540
      00FF5DFFH   LINE      ---      ---       #541
      00FF5DFFH   BLOCK     CODE     NEAR LAB  LVL=1
      00FF5DFFH   LINE      ---      ---       #545
      00FF5E01H   LINE      ---      ---       #546
      00FF5E03H   LINE      ---      ---       #547
      00FF5E05H   LINE      ---      ---       #549
      00FF5E0CH   LINE      ---      ---       #550
      00FF5E18H   LINE      ---      ---       #551
      00FF5E20H   LINE      ---      ---       #552
      00FF5E27H   LINE      ---      ---       #553
      00FF5E31H   LINE      ---      ---       #558
      00FF5E37H   LINE      ---      ---       #559
      00FF5E3AH   LINE      ---      ---       #564
L251 LINKER/LOCATER V4.66.93.0                                                        02/16/2024  15:12:23  PAGE 131


      00FF5E4AH   LINE      ---      ---       #567
      00FF5E4DH   LINE      ---      ---       #568
      00FF5E4DH   LINE      ---      ---       #572
      00FF5E5EH   LINE      ---      ---       #574
      00FF5E5EH   LINE      ---      ---       #575
      00FF5E60H   LINE      ---      ---       #576
      00FF5E62H   LINE      ---      ---       #577
      00FF5E62H   LINE      ---      ---       #578
      00FF5E64H   LINE      ---      ---       #579
      00FF5E66H   LINE      ---      ---       #580
      00FF5E66H   LINE      ---      ---       #581
      00FF5E6AH   LINE      ---      ---       #582
      00FF5E6CH   LINE      ---      ---       #583
      00FF5E6CH   LINE      ---      ---       #584
      00FF5E70H   LINE      ---      ---       #585
      00FF5E70H   LINE      ---      ---       #586
      00FF5E70H   LINE      ---      ---       #587
      R5          REGSYM    ---      CHAR      ibRssi
      R7          REGSYM    ---      BYTE      cpmputeRssi
      R4          REGSYM    ---      BYTE      lnaGain
      R7          REGSYM    ---      BYTE      tiaGain
      R6          REGSYM    ---      BYTE      vgaGain
      R13         REGSYM    ---      BYTE      edState
      R14         REGSYM    ---      BYTE      csState
      R15         REGSYM    ---      BYTE      ccaStatus
      ---         BLOCKEND  CODE     ---       LVL=1
      00FF5E72H   LINE      ---      ---       #588
      00FF5E72H   LINE      CODE     ---       #588

      00FF5F68H   BLOCK     CODE     ---       LVL=0
      00FF5F68H   LINE      ---      ---       #592
      00FF5F68H   LINE      ---      ---       #595
      00FF5F6DH   LINE      ---      ---       #596
      00FF5F71H   LINE      ---      ---       #597
      ---         BLOCKEND  ---      ---       LVL=0

      00FF25A9H   BLOCK     CODE     ---       LVL=0
      00FF25A9H   LINE      ---      ---       #638
      00FF25A9H   LINE      ---      ---       #643
      00FF25B0H   LINE      ---      ---       #645
      00FF25B6H   LINE      ---      ---       #646
      00FF25BCH   LINE      ---      ---       #647
      00FF25C0H   LINE      ---      ---       #648
      ---         BLOCKEND  ---      ---       LVL=0

      00FF25FDH   BLOCK     CODE     ---       LVL=0
      00FF25FDH   LINE      ---      ---       #650
      00FF25FDH   LINE      ---      ---       #651
      00FF25FDH   BLOCK     CODE     NEAR LAB  LVL=1
      00FF25FDH   LINE      ---      ---       #654
      00FF2605H   LINE      ---      ---       #655
      00FF260BH   LINE      ---      ---       #659
      00FF260BH   LINE      ---      ---       #661
      00FF260BH   LINE      ---      ---       #663
      00FF260DH   LINE      ---      ---       #664
      00FF2613H   LINE      ---      ---       #665
      00FF2624H   LINE      ---      ---       #666
      00FF262AH   LINE      ---      ---       #670
      00FF2645H   LINE      ---      ---       #673
      00FF2647H   LINE      ---      ---       #674
      00FF264AH   LINE      ---      ---       #675
      00FF264CH   LINE      ---      ---       #676
      00FF264FH   LINE      ---      ---       #677
      00FF2650H   LINE      ---      ---       #678
      00FF2650H   LINE      ---      ---       #684
L251 LINKER/LOCATER V4.66.93.0                                                        02/16/2024  15:12:23  PAGE 132


      00FF2653H   LINE      ---      ---       #689
      00FF2656H   LINE      ---      ---       #691
      00FF2656H   LINE      ---      ---       #697
      00FF265BH   LINE      ---      ---       #701
      00FF265EH   LINE      ---      ---       #702
      00FF265EH   LINE      ---      ---       #704
      00FF2669H   LINE      ---      ---       #706
      00FF266CH   LINE      ---      ---       #707
      00FF2670H   LINE      ---      ---       #708
      00FF2672H   LINE      ---      ---       #709
      00FF2673H   LINE      ---      ---       #710
      00FF2673H   LINE      ---      ---       #713
      00FF267EH   LINE      ---      ---       #715
      00FF2680H   LINE      ---      ---       #717
      00FF2683H   LINE      ---      ---       #718
      00FF2686H   LINE      ---      ---       #720
      00FF2694H   LINE      ---      ---       #724
      00FF269AH   LINE      ---      ---       #727
      00FF26A2H   LINE      ---      ---       #730
      00FF26A5H   LINE      ---      ---       #731
      R10         REGSYM    ---      BYTE      raaState
      ---         BLOCKEND  CODE     ---       LVL=1
      ---         BLOCKEND  CODE     ---       LVL=0

      00FF35CDH   BLOCK     CODE     ---       LVL=0
      00FF35CDH   LINE      ---      ---       #736
      00FF35CDH   LINE      ---      ---       #739
      00FF35CFH   LINE      ---      ---       #750
      ---         BLOCKEND  ---      ---       LVL=0

      00FF9A8AH   BLOCK     CODE     ---       LVL=0
      00FF9A8AH   LINE      ---      ---       #762
      00FF9A8AH   LINE      ---      ---       #764
      ---         BLOCKEND  ---      ---       LVL=0

      00FF5C88H   BLOCK     CODE     ---       LVL=0
      00FF5C88H   LINE      ---      ---       #766
      00FF5C88H   LINE      ---      ---       #773
      00FF5C8BH   LINE      ---      ---       #774
      00FF5C8EH   LINE      ---      ---       #792
      00FF5C8EH   BLOCK     CODE     NEAR LAB  LVL=1
      00FF5C8EH   LINE      ---      ---       #794
      00FF5C96H   LINE      ---      ---       #795
      00FF5C9EH   LINE      ---      ---       #796
      00FF5CA6H   LINE      ---      ---       #797
      00FF5CAEH   LINE      ---      ---       #798
      0000B539H   SYMBOL    EDATA    ---       cb
      ---         BLOCKEND  CODE     ---       LVL=1
      00FF5CB4H   LINE      ---      ---       #799
      00FF5CB4H   LINE      ---      ---       #810
      00FF5CBAH   LINE      ---      ---       #813
      00FF5CBEH   LINE      ---      ---       #820
      00FF5CC1H   LINE      ---      ---       #823
      00FF5CC3H   LINE      ---      ---       #826
      00FF5CC7H   LINE      ---      ---       #827
      00FF5CC9H   LINE      ---      ---       #831
      00FF5CD0H   LINE      ---      ---       #834
      00FF5CD3H   LINE      ---      ---       #837
      00FF5CD8H   LINE      ---      ---       #842
      00FF5CDCH   LINE      ---      ---       #844
      00FF5CDEH   LINE      ---      ---       #847
      00FF5CE1H   LINE      ---      ---       #850
      00FF5CE8H   LINE      ---      ---       #855
      00FF5CEBH   LINE      ---      ---       #856
      00FF5CEBH   LINE      ---      ---       #858
L251 LINKER/LOCATER V4.66.93.0                                                        02/16/2024  15:12:23  PAGE 133


      00FF5CF3H   LINE      ---      ---       #859
      00FF5CF3H   LINE      ---      ---       #862
      00FF5CF3H   LINE      CODE     ---       #862

      00FF5D27H   BLOCK     CODE     ---       LVL=0
      00FF5D27H   LINE      ---      ---       #869
      00FF5D2BH   LINE      ---      ---       #870
      00FF5D2BH   BLOCK     CODE     NEAR LAB  LVL=1
      00FF5D2BH   LINE      ---      ---       #871
      00FF5D2BH   LINE      ---      ---       #872
      00FF5D2BH   LINE      ---      ---       #875
      00FF5D30H   LINE      ---      ---       #876
      00FF5D38H   LINE      ---      ---       #878
      00FF5D3AH   LINE      ---      ---       #882
      00FF5D49H   LINE      ---      ---       #884
      00FF5D4BH   LINE      ---      ---       #886
      00FF5D51H   LINE      ---      ---       #888
      00FF5D54H   LINE      ---      ---       #890
      00FF5D57H   LINE      ---      ---       #891
      00FF5D59H   LINE      ---      ---       #892
      00FF5D59H   LINE      ---      ---       #895
      00FF5D5DH   LINE      ---      ---       #896
      00FF5D62H   LINE      ---      ---       #898
      00FF5D65H   LINE      ---      ---       #899
      00FF5D6FH   LINE      ---      ---       #901
      00FF5D72H   LINE      ---      ---       #905
      00FF5D77H   LINE      ---      ---       #910
      00FF5D7AH   LINE      ---      ---       #911
      00FF5D7AH   LINE      ---      ---       #914
      00FF5D7DH   LINE      ---      ---       #915
      00FF5D81H   LINE      ---      ---       #916
      00FF5D83H   LINE      ---      ---       #917
      00FF5D83H   LINE      ---      ---       #919
      00FF5D86H   LINE      ---      ---       #922
      00FF5D89H   LINE      ---      ---       #925
      00FF5D91H   LINE      ---      ---       #927
      00FF5D9AH   LINE      ---      ---       #928
      00FF5D9CH   LINE      ---      ---       #929
      00FF5DA0H   LINE      ---      ---       #931
      00FF5DA3H   LINE      ---      ---       #934
      00FF5DA6H   LINE      ---      ---       #935
      00FF5DAAH   LINE      ---      ---       #942
      00FF5DADH   LINE      ---      ---       #945
      00FF5DAFH   LINE      ---      ---       #947
      00FF5DB7H   LINE      ---      ---       #948
      00FF5DBCH   LINE      ---      ---       #951
      00FF5DC4H   LINE      ---      ---       #952
      00FF5DC6H   LINE      ---      ---       #954
      00FF5DCCH   LINE      ---      ---       #956
      00FF5DCFH   LINE      ---      ---       #957
      00FF5DD2H   LINE      ---      ---       #960
      00FF5DD8H   LINE      ---      ---       #961
      00FF5DE1H   LINE      ---      ---       #974
      00FF5DE7H   LINE      ---      ---       #975
      00FF5DECH   LINE      ---      ---       #978
      00FF5DF4H   LINE      ---      ---       #979
      00FF5DF6H   LINE      ---      ---       #980
      WR14        REGSYM    ---      WORD      macFunEventQueue
      R13         REGSYM    ---      BYTE      ccaStatus
      0000B5E9H   SYMBOL    EDATA    BYTE      checkCCADrop
      ---         BLOCKEND  CODE     ---       LVL=1
      ---         BLOCKEND  CODE     ---       LVL=0

      00FF9A8BH   BLOCK     CODE     ---       LVL=0
      00FF9A8BH   LINE      ---      ---       #984
L251 LINKER/LOCATER V4.66.93.0                                                        02/16/2024  15:12:23  PAGE 134


      00FF9A8BH   LINE      ---      ---       #985
      00FF9A8BH   BLOCK     CODE     NEAR LAB  LVL=1
      00FF9A8BH   LINE      ---      ---       #997
      00FF9A8EH   LINE      ---      ---       #998
      00FF9A94H   LINE      ---      ---       #1000
      00FF9A97H   LINE      ---      ---       #1001
      00FF9A9AH   LINE      ---      ---       #1003
      00FF9AB2H   LINE      ---      ---       #1010
      00FF9ABAH   LINE      ---      ---       #1012
      00FF9ABDH   LINE      ---      ---       #1015
      00FF9ABDH   LINE      ---      ---       #1018
      00FF9AC3H   LINE      ---      ---       #1020
      00FF9AC7H   LINE      ---      ---       #1022
      00FF9AC9H   LINE      ---      ---       #1026
      00FF9ACCH   LINE      ---      ---       #1033
      00FF9AD3H   LINE      ---      ---       #1034
      00FF9AD6H   LINE      ---      ---       #1035
      00FF9AD6H   LINE      ---      ---       #1038
      00FF9AF1H   LINE      ---      ---       #1042
      00FF9AF4H   LINE      ---      ---       #1045
      00FF9AFCH   LINE      ---      ---       #1046
      00FF9AFCH   LINE      ---      ---       #1048
      WR6         REGSYM    ---      WORD      macFunEventQueue
      ---         BLOCKEND  CODE     ---       LVL=1
      ---         BLOCKEND  CODE     ---       LVL=0

      00FF9AFDH   BLOCK     CODE     ---       LVL=0
      00FF9AFDH   LINE      ---      ---       #1051
      00FF9AFDH   LINE      ---      ---       #1052
      00FF9AFDH   BLOCK     CODE     NEAR LAB  LVL=1
      00FF9AFDH   LINE      ---      ---       #1053
      00FF9AFDH   LINE      ---      ---       #1055
      00FF9B00H   LINE      ---      ---       #1056
      00FF9B06H   LINE      ---      ---       #1058
      00FF9B09H   LINE      ---      ---       #1060
      00FF9B11H   LINE      ---      ---       #1061
      00FF9B12H   LINE      ---      ---       #1062
      00FF9B18H   LINE      ---      ---       #1064
      00FF9B1BH   LINE      ---      ---       #1067
      00FF9B25H   LINE      ---      ---       #1069
      00FF9B28H   LINE      ---      ---       #1071
      00FF9B2CH   LINE      ---      ---       #1072
      00FF9B2EH   LINE      ---      ---       #1075
      00FF9B31H   LINE      ---      ---       #1079
      00FF9B38H   LINE      ---      ---       #1083
      00FF9B3BH   LINE      ---      ---       #1086
      00FF9B3EH   LINE      ---      ---       #1088
      00FF9B46H   LINE      ---      ---       #1089
      00FF9B46H   LINE      ---      ---       #1090
      00FF9B4FH   LINE      ---      ---       #1091
      WR6         REGSYM    ---      WORD      macFunEventQueue
      ---         BLOCKEND  CODE     ---       LVL=1
      ---         BLOCKEND  CODE     ---       LVL=0

      00FF29BDH   BLOCK     CODE     ---       LVL=0
      00FF29BDH   LINE      ---      ---       #1094
      00FF29BDH   LINE      ---      ---       #1095
      00FF29BDH   BLOCK     CODE     NEAR LAB  LVL=1
      00FF29BDH   LINE      ---      ---       #1096
      00FF29BDH   LINE      ---      ---       #1098
      00FF29C0H   LINE      ---      ---       #1099
      00FF29D0H   LINE      ---      ---       #1100
      WR6         REGSYM    ---      WORD      macFunEventQueue
      00FF29D0H   BLOCK     CODE     NEAR LAB  LVL=2
      00FF29D0H   LINE      ---      ---       #1103
L251 LINKER/LOCATER V4.66.93.0                                                        02/16/2024  15:12:23  PAGE 135


      00FF29D3H   LINE      ---      ---       #1108
      00FF29DCH   LINE      ---      ---       #1109
      00FF29E0H   LINE      ---      ---       #1111
      00FF29EAH   LINE      ---      ---       #1112
      R11         REGSYM    ---      BYTE      macRxInfo
      00FF29EAH   BLOCK     CODE     NEAR LAB  LVL=3
      00FF29EAH   LINE      ---      ---       #1115
      00FF29EDH   LINE      ---      ---       #1119
      00FF29F2H   LINE      ---      ---       #1120
      00FF29F7H   LINE      ---      ---       #1125
      00FF2A04H   LINE      ---      ---       #1126
      00FF2A09H   LINE      ---      ---       #1131
      00FF2A0CH   LINE      ---      ---       #1134
      00FF2A1EH   LINE      ---      ---       #1135
      00FF2A24H   LINE      ---      ---       #1137
      00FF2A2FH   LINE      ---      ---       #1147
      00FF2A33H   LINE      ---      ---       #1148
      00FF2A35H   LINE      ---      ---       #1149
      00FF2A3DH   LINE      ---      ---       #1150
      00FF2A3DH   LINE      ---      ---       #1151
      00FF2A3FH   LINE      ---      ---       #1155
      00FF2A44H   LINE      ---      ---       #1158
      00FF2A4CH   LINE      ---      ---       #1159
      00FF2A4FH   LINE      ---      ---       #1160
      00FF2A4FH   LINE      ---      ---       #1162
      00FF2A5BH   LINE      ---      ---       #1163
      R11         REGSYM    ---      BYTE      trx_state
      ---         BLOCKEND  CODE     ---       LVL=3
      00FF2A5BH   LINE      ---      ---       #1164
      00FF2A5BH   LINE      ---      ---       #1167
      00FF2A60H   LINE      ---      ---       #1170
      00FF2A63H   LINE      ---      ---       #1171
      00FF2A63H   LINE      ---      ---       #1172
      00FF2A65H   LINE      ---      ---       #1176
      00FF2A6AH   LINE      ---      ---       #1178
      00FF2A6DH   LINE      ---      ---       #1179
      00FF2A6DH   LINE      ---      ---       #1180
      00FF2A70H   LINE      ---      ---       #1181
      00FF2A7CH   LINE      ---      ---       #1185
      00FF2A86H   LINE      ---      ---       #1188
      00FF2A8AH   LINE      ---      ---       #1189
      00FF2A8CH   LINE      ---      ---       #1192
      00FF2A8FH   LINE      ---      ---       #1196
      00FF2A96H   LINE      ---      ---       #1200
      00FF2A99H   LINE      ---      ---       #1202
      00FF2AA1H   LINE      ---      ---       #1203
      00FF2AA1H   LINE      ---      ---       #1204
      00FF2AA1H   LINE      CODE     ---       #1204
      ---         BLOCKEND  CODE     ---       LVL=1
      00FF2AAAH   LINE      ---      ---       #1205
      00FF2AAAH   LINE      CODE     ---       #1205

      00FF9B50H   BLOCK     CODE     ---       LVL=0
      00FF9B50H   LINE      ---      ---       #1208
      00FF9B50H   LINE      ---      ---       #1209
      00FF9B50H   BLOCK     CODE     NEAR LAB  LVL=1
      00FF9B50H   LINE      ---      ---       #1210
      00FF9B50H   LINE      ---      ---       #1212
      00FF9B53H   LINE      ---      ---       #1213
      00FF9B56H   LINE      ---      ---       #1214
      00FF9B5AH   LINE      ---      ---       #1215
      00FF9B5DH   LINE      ---      ---       #1216
      00FF9BE4H   LINE      ---      ---       #1218
      00FF9BE4H   LINE      ---      ---       #1219
      00FF9BE4H   LINE      ---      ---       #1220
L251 LINKER/LOCATER V4.66.93.0                                                        02/16/2024  15:12:23  PAGE 136


      00FF9BE4H   LINE      ---      ---       #1221
      00FF9BE4H   LINE      ---      ---       #1222
      00FF9BE4H   LINE      ---      ---       #1223
      00FF9BE8H   LINE      ---      ---       #1224
      00FF9BEAH   LINE      ---      ---       #1225
      00FF9BEAH   LINE      ---      ---       #1226
      00FF9BEDH   LINE      ---      ---       #1227
      00FF9BEFH   LINE      ---      ---       #1228
      00FF9BEFH   LINE      ---      ---       #1229
      00FF9BEFH   LINE      ---      ---       #1241
      00FF9BF2H   LINE      ---      ---       #1244
      00FF9BF9H   LINE      ---      ---       #1245
      00FF9BFCH   LINE      ---      ---       #1247
      00FF9C00H   LINE      ---      ---       #1248
      00FF9C02H   LINE      ---      ---       #1252
      00FF9C09H   LINE      ---      ---       #1254
      00FF9C0CH   LINE      ---      ---       #1258
      00FF9C0CH   LINE      ---      ---       #1260
      00FF9C10H   LINE      ---      ---       #1261
      00FF9C10H   LINE      ---      ---       #1264
      00FF9C12H   LINE      ---      ---       #1266
      00FF9C12H   LINE      ---      ---       #1267
      00FF9C12H   LINE      ---      ---       #1268
      00FF9C12H   LINE      ---      ---       #1269
      00FF9C15H   LINE      ---      ---       #1272
      00FF9C1CH   LINE      ---      ---       #1273
      00FF9C1FH   LINE      ---      ---       #1275
      00FF9C23H   LINE      ---      ---       #1276
      00FF9C25H   LINE      ---      ---       #1280
      00FF9C2CH   LINE      ---      ---       #1282
      00FF9C2FH   LINE      ---      ---       #1286
      00FF9C2FH   LINE      ---      ---       #1288
      00FF9C37H   LINE      ---      ---       #1289
      00FF9C37H   LINE      ---      ---       #1291
      00FF9C39H   LINE      ---      ---       #1292
      00FF9C39H   LINE      ---      ---       #1293
      00FF9C3CH   LINE      ---      ---       #1294
      00FF9C3CH   LINE      ---      ---       #1295
      00FF9C3CH   LINE      ---      ---       #1296
      WR6         REGSYM    ---      WORD      macFunEventQueue
      ---         BLOCKEND  CODE     ---       LVL=1
      ---         BLOCKEND  CODE     ---       LVL=0

      00FF9C48H   BLOCK     CODE     ---       LVL=0
      00FF9C48H   LINE      ---      ---       #1299
      00FF9C48H   LINE      ---      ---       #1300
      00FF9C48H   BLOCK     CODE     NEAR LAB  LVL=1
      00FF9C48H   LINE      ---      ---       #1303
      00FF9C4BH   LINE      ---      ---       #1304
      00FF9C4EH   LINE      ---      ---       #1305
      00FF9C54H   LINE      ---      ---       #1307
      00FF9C57H   LINE      ---      ---       #1310
      00FF9C5EH   LINE      ---      ---       #1311
      00FF9C61H   LINE      ---      ---       #1313
      00FF9C65H   LINE      ---      ---       #1314
      00FF9C67H   LINE      ---      ---       #1318
      00FF9C6EH   LINE      ---      ---       #1320
      00FF9C71H   LINE      ---      ---       #1325
      00FF9C71H   LINE      ---      ---       #1327
      00FF9C79H   LINE      ---      ---       #1328
      00FF9C79H   LINE      ---      ---       #1330
      WR6         REGSYM    ---      WORD      macFunEventQueue
      ---         BLOCKEND  CODE     ---       LVL=1
      ---         BLOCKEND  CODE     ---       LVL=0

L251 LINKER/LOCATER V4.66.93.0                                                        02/16/2024  15:12:23  PAGE 137


      00FF9C7AH   BLOCK     CODE     ---       LVL=0
      00FF9C7AH   LINE      ---      ---       #1333
      00FF9C7AH   LINE      ---      ---       #1335
      00FF9C7DH   LINE      ---      ---       #1366
      00FF9C82H   LINE      ---      ---       #1370
      00FF9C88H   LINE      ---      ---       #1371
      00FF9C8EH   LINE      ---      ---       #1374
      00FF9C93H   LINE      ---      ---       #1375
      00FF9C95H   LINE      ---      ---       #1379
      00FF9C9BH   LINE      ---      ---       #1380
      00FF9CA3H   LINE      ---      ---       #1381
      00FF9CA3H   LINE      ---      ---       #1384
      ---         BLOCKEND  ---      ---       LVL=0

      00FF9CAAH   BLOCK     CODE     ---       LVL=0
      00FF9CAAH   LINE      ---      ---       #1393
      00FF9CAAH   LINE      ---      ---       #1395
      ---         BLOCKEND  ---      ---       LVL=0

      00FF826BH   BLOCK     CODE     ---       LVL=0
      00FF826BH   LINE      ---      ---       #1397
      00FF826BH   LINE      ---      ---       #1401
      00FF8272H   LINE      ---      ---       #1403
      00FF8272H   LINE      ---      ---       #1404
      00FF8272H   LINE      ---      ---       #1409
      00FF827EH   LINE      ---      ---       #1411
      ---         BLOCKEND  ---      ---       LVL=0

      00FF9CABH   BLOCK     CODE     ---       LVL=0
      00FF9CABH   LINE      ---      ---       #1413
      00FF9CABH   LINE      ---      ---       #1415
      00FF9CBCH   LINE      ---      ---       #1416
      00FF9CC3H   LINE      ---      ---       #1417
      ---         BLOCKEND  ---      ---       LVL=0

      00FF27EFH   BLOCK     CODE     ---       LVL=0
      00FF27EFH   LINE      ---      ---       #1421
      00FF27EFH   LINE      ---      ---       #1423
      ---         BLOCKEND  ---      ---       LVL=0

      ---         MODULE    ---      ---       mac_cad

      ---         MODULE    ---      ---       mac_scheduler

      ---         MODULE    ---      ---       mac_RfeRx
      00FF2DCDH   PUBLIC    CODE     ---       MAC_RfeRxDisable
      00FF9EAEH   PUBLIC    CODE     ---       MAC_RfeRxRptGet
      00FF7F61H   PUBLIC    CODE     ---       MAC_RfeRxParInit
      00FF2AABH   PUBLIC    CODE     ---       MAC_RfeRxSchedule
      00FF2DBFH   PUBLIC    CODE     ---       MAC_RfeRxAonTaskDisable
      00FF9EC1H   PUBLIC    CODE     ---       MAC_RfeSecLbHwSet
      00FF71B7H   PUBLIC    CODE     ---       MAC_RfeRxDataConfirm
      0000B36AH   PUBLIC    EDATA    INT       gMacRfeRxState
      0000B36CH   PUBLIC    EDATA    ---       gMacRfeRxCtrl
      0000B37BH   PUBLIC    EDATA    ---       gMacRfeRpt
      000000A8H.7 SFRSYM    DATA     BIT       EA
      00000080H   SFRSYM    DATA     BYTE      P0

      00FF2DCDH   BLOCK     CODE     ---       LVL=0
      00FF2DCDH   LINE      ---      ---       #55
      00FF2DD1H   LINE      ---      ---       #57
      00FF2DD3H   LINE      ---      ---       #61
      00FF2DD6H   LINE      ---      ---       #62
      00FF2DF1H   LINE      ---      ---       #63
      00FF2DF4H   LINE      ---      ---       #64
L251 LINKER/LOCATER V4.66.93.0                                                        02/16/2024  15:12:23  PAGE 138


      00FF2DFAH   LINE      ---      ---       #65
      00FF2DFFH   LINE      ---      ---       #66
      00FF2E06H   LINE      ---      ---       #67
      00FF2E0AH   LINE      ---      ---       #68
      00FF2E11H   LINE      ---      ---       #69
      R15         REGSYM    ---      BYTE      bTxSecClr
      ---         BLOCKEND  ---      ---       LVL=0

      00FF2DBFH   BLOCK     CODE     ---       LVL=0
      00FF2DBFH   LINE      ---      ---       #71
      00FF2DBFH   LINE      ---      ---       #73
      00FF2DC1H   LINE      ---      ---       #74
      00FF2DC7H   LINE      ---      ---       #75
      00FF2DCAH   LINE      ---      ---       #76
      00FF2DCCH   LINE      ---      ---       #77
      ---         BLOCKEND  ---      ---       LVL=0

      00FF9EAEH   BLOCK     CODE     ---       LVL=0
      00FF9EAEH   LINE      ---      ---       #79
      00FF9EAEH   LINE      ---      ---       #81
      00FF9EB5H   LINE      ---      ---       #82
      00FF9EC0H   LINE      ---      ---       #83
      REG=3       REGSYM    ---      ---       pPassCnt
      REG=2       REGSYM    ---      ---       pFailCnt
      ---         BLOCKEND  ---      ---       LVL=0

      00FF9EC1H   BLOCK     CODE     ---       LVL=0
      00FF9EC1H   LINE      ---      ---       #85
      00FF9EC3H   LINE      ---      ---       #86
      WR8         REGSYM    ---      WORD      pktLen
      00FF9EC3H   BLOCK     CODE     NEAR LAB  LVL=1
      00FF9EC3H   LINE      ---      ---       #90
      00FF9EC7H   LINE      ---      ---       #91
      00FF9ECBH   LINE      ---      ---       #92
      00FF9EECH   LINE      ---      ---       #93
      00FF9EF2H   LINE      ---      ---       #94
      00FF9EF4H   LINE      ---      ---       #95
      00FF9EFAH   LINE      ---      ---       #96
      00FF9F00H   LINE      ---      ---       #98
      00FF9F04H   LINE      ---      ---       #99
      00FF9F06H   LINE      ---      ---       #101
      00FF9F0AH   LINE      ---      ---       #102
      00FF9F0CH   LINE      ---      ---       #103
      00FF9F12H   LINE      ---      ---       #105
      00FF9F16H   LINE      ---      ---       #106
      00FF9F18H   LINE      ---      ---       #108
      00FF9F1CH   LINE      ---      ---       #109
      00FF9F1CH   LINE      ---      ---       #111
      WR4         REGSYM    ---      WORD      aDataLen
      WR2         REGSYM    ---      WORD      mDataLen
      WR6         REGSYM    ---      WORD      payloadLen
      R7          REGSYM    ---      BYTE      micLen
      ---         BLOCKEND  CODE     ---       LVL=1
      ---         BLOCKEND  CODE     ---       LVL=0

      00FF71B7H   BLOCK     CODE     ---       LVL=0
      00FF71B7H   LINE      ---      ---       #114
      00FF71B9H   LINE      ---      ---       #115
      00FF71B9H   BLOCK     CODE     NEAR LAB  LVL=1
      00FF71B9H   LINE      ---      ---       #120
      00FF71CBH   LINE      ---      ---       #122
      00FF71F0H   LINE      ---      ---       #123
      00FF71F7H   LINE      ---      ---       #126
      00FF71FDH   LINE      ---      ---       #127
      00FF7212H   LINE      ---      ---       #129
L251 LINKER/LOCATER V4.66.93.0                                                        02/16/2024  15:12:23  PAGE 139


      00FF7220H   LINE      ---      ---       #131
      00FF7228H   LINE      ---      ---       #133
      00FF722CH   LINE      ---      ---       #135
      00FF7249H   LINE      ---      ---       #136
      00FF724CH   LINE      ---      ---       #137
      00FF7252H   LINE      ---      ---       #138
      00FF7254H   LINE      ---      ---       #141
      00FF7263H   LINE      ---      ---       #142
      00FF7267H   LINE      ---      ---       #144
      00FF7273H   LINE      ---      ---       #145
      00FF7276H   LINE      ---      ---       #146
      00FF727CH   LINE      ---      ---       #147
      00FF727CH   LINE      ---      ---       #148
      00FF727CH   LINE      ---      ---       #149
      R7          REGSYM    ---      BYTE      dataTemp
      0000B5EAH   SYMBOL    EDATA    BYTE      phrLenTemp
      WR12        REGSYM    ---      WORD      dataLenTemp
      WR14        REGSYM    ---      WORD      idx
      ---         BLOCKEND  CODE     ---       LVL=1
      00FF727EH   LINE      ---      ---       #150
      00FF727EH   LINE      CODE     ---       #150

      00FF7F61H   BLOCK     CODE     ---       LVL=0
      00FF7F61H   LINE      ---      ---       #152
      00FF7F6BH   LINE      ---      ---       #154
      00FF7F70H   LINE      ---      ---       #155
      00FF7F76H   LINE      ---      ---       #156
      00FF7F7CH   LINE      ---      ---       #157
      00FF7F80H   LINE      ---      ---       #158
      00FF7F84H   LINE      ---      ---       #159
      00FF7F88H   LINE      ---      ---       #160
      00FF7F92H   LINE      ---      ---       #161
      00FF7F9CH   LINE      ---      ---       #163
      00FF7FA0H   LINE      ---      ---       #164
      00FF7FA4H   LINE      ---      ---       #165
      00FF7FA8H   LINE      ---      ---       #171
      00FF7FACH   LINE      ---      ---       #173
      00FF7FB4H   LINE      ---      ---       #174
      00FF7FC3H   LINE      ---      ---       #175
      00FF7FD1H   LINE      ---      ---       #176
      R1          REGSYM    ---      BYTE      pktType
      R2          REGSYM    ---      BYTE      queueType
      R3          REGSYM    ---      BYTE      rxType
      R10         REGSYM    ---      BYTE      ackEnable
      WR8         REGSYM    ---      WORD      ackInterval
      ---         BLOCKEND  ---      ---       LVL=0

      00FF2AABH   BLOCK     CODE     ---       LVL=0
      00FF2AABH   LINE      ---      ---       #179
      00FF2AADH   LINE      ---      ---       #180
      00FF2AADH   BLOCK     CODE     NEAR LAB  LVL=1
      00FF2AADH   LINE      ---      ---       #181
      00FF2AADH   LINE      ---      ---       #185
      00FF2AB8H   LINE      ---      ---       #187
      00FF2AB8H   LINE      ---      ---       #188
      00FF2AB8H   LINE      ---      ---       #191
      00FF2AE8H   LINE      ---      ---       #193
      00FF2AE8H   LINE      ---      ---       #194
      00FF2AEBH   LINE      ---      ---       #196
      WR6         REGSYM    ---      WORD      macFunEventQueue
      R15         REGSYM    ---      BYTE      retValue
      00FF2AEBH   BLOCK     CODE     NEAR LAB  LVL=2
      00FF2AEBH   LINE      ---      ---       #198
      00FF2AF3H   LINE      ---      ---       #199
      00FF2AFBH   LINE      ---      ---       #200
L251 LINKER/LOCATER V4.66.93.0                                                        02/16/2024  15:12:23  PAGE 140


      00FF2B03H   LINE      ---      ---       #201
      00FF2B0BH   LINE      ---      ---       #202
      0000B541H   SYMBOL    EDATA    ---       cb
      ---         BLOCKEND  CODE     ---       LVL=2
      00FF2B12H   LINE      ---      ---       #203
      00FF2B12H   LINE      ---      ---       #206
      00FF2B15H   LINE      ---      ---       #209
      00FF2B2BH   LINE      ---      ---       #211
      00FF2B2FH   LINE      ---      ---       #214
      00FF2B2FH   LINE      ---      ---       #215
      00FF2B31H   LINE      ---      ---       #218
      00FF2B37H   LINE      ---      ---       #219
      00FF2B3DH   LINE      ---      ---       #221
      00FF2B42H   LINE      ---      ---       #240
      00FF2B48H   LINE      ---      ---       #243
      00FF2B4EH   LINE      ---      ---       #245
      00FF2B50H   LINE      ---      ---       #246
      00FF2B55H   LINE      ---      ---       #247
      00FF2B55H   LINE      ---      ---       #251
      00FF2B5BH   LINE      ---      ---       #252
      00FF2B64H   LINE      ---      ---       #253
      00FF2B6AH   LINE      ---      ---       #255
      00FF2B6CH   LINE      ---      ---       #256
      00FF2B71H   LINE      ---      ---       #257
      00FF2B71H   LINE      ---      ---       #260
      00FF2B75H   LINE      ---      ---       #261
      00FF2B75H   LINE      ---      ---       #286
      00FF2B77H   LINE      ---      ---       #288
      00FF2B77H   LINE      ---      ---       #289
      00FF2B7AH   LINE      ---      ---       #290
      00FF2B80H   LINE      ---      ---       #292
      00FF2B83H   LINE      ---      ---       #293
      00FF2B87H   LINE      ---      ---       #296
      00FF2B87H   LINE      ---      ---       #297
      00FF2B89H   LINE      ---      ---       #298
      00FF2B8FH   LINE      ---      ---       #300
      00FF2B96H   LINE      ---      ---       #301
      00FF2B99H   LINE      ---      ---       #302
      00FF2B9DH   LINE      ---      ---       #303
      00FF2B9FH   LINE      ---      ---       #304
      00FF2BA7H   LINE      ---      ---       #306
      00FF2BAAH   LINE      ---      ---       #307
      00FF2BAEH   LINE      ---      ---       #310
      00FF2BAEH   LINE      ---      ---       #311
      00FF2BAEH   LINE      ---      ---       #330
      00FF2BB0H   LINE      ---      ---       #332
      00FF2BB0H   LINE      ---      ---       #333
      00FF2BB3H   LINE      ---      ---       #334
      00FF2BBBH   LINE      ---      ---       #336
      00FF2BBEH   LINE      ---      ---       #339
      00FF2BDFH   LINE      ---      ---       #342
      00FF2BF0H   LINE      ---      ---       #343
      00FF2BF3H   LINE      ---      ---       #346
      00FF2BFAH   LINE      ---      ---       #348
      00FF2C0EH   LINE      ---      ---       #352
      00FF2C15H   LINE      ---      ---       #355
      00FF2C1BH   LINE      ---      ---       #357
      00FF2C1DH   LINE      ---      ---       #358
      00FF2C23H   LINE      ---      ---       #359
      00FF2C23H   LINE      ---      ---       #362
      00FF2C2EH   LINE      ---      ---       #365
      00FF2C30H   LINE      ---      ---       #366
      00FF2C36H   LINE      ---      ---       #369
      00FF2C3AH   LINE      ---      ---       #372
      00FF2C3AH   LINE      ---      ---       #373
L251 LINKER/LOCATER V4.66.93.0                                                        02/16/2024  15:12:23  PAGE 141


      00FF2C3AH   LINE      ---      ---       #374
      00FF2C3CH   LINE      ---      ---       #378
      00FF2C40H   LINE      ---      ---       #381
      00FF2C40H   LINE      ---      ---       #382
      00FF2C40H   LINE      ---      ---       #383
      00FF2C40H   LINE      ---      ---       #384
      00FF2C42H   LINE      ---      ---       #386
      00FF2C42H   LINE      ---      ---       #387
      00FF2C45H   LINE      ---      ---       #388
      00FF2C4DH   LINE      ---      ---       #390
      00FF2C50H   LINE      ---      ---       #393
      00FF2C57H   LINE      ---      ---       #396
      00FF2C5BH   LINE      ---      ---       #399
      00FF2C5BH   LINE      ---      ---       #400
      00FF2C5BH   LINE      ---      ---       #401
      00FF2C5DH   LINE      ---      ---       #403
      00FF2C5DH   LINE      ---      ---       #406
      00FF2C60H   LINE      ---      ---       #408
      00FF2C6FH   LINE      ---      ---       #410
      00FF2C75H   LINE      ---      ---       #411
      00FF2C7AH   LINE      ---      ---       #413
      00FF2C7DH   LINE      ---      ---       #414
      00FF2C87H   LINE      ---      ---       #415
      00FF2CA0H   LINE      ---      ---       #416
      00FF2CA2H   LINE      ---      ---       #417
      00FF2CA7H   LINE      ---      ---       #420
      00FF2CADH   LINE      ---      ---       #421
      00FF2CB0H   LINE      ---      ---       #423
      00FF2CB5H   LINE      ---      ---       #424
      00FF2CB8H   LINE      ---      ---       #425
      00FF2CC2H   LINE      ---      ---       #426
      00FF2CC4H   LINE      ---      ---       #429
      00FF2CC7H   LINE      ---      ---       #430
      00FF2CD1H   LINE      ---      ---       #431
      00FF2CD1H   LINE      ---      ---       #434
      00FF2CD7H   LINE      ---      ---       #435
      00FF2CDAH   LINE      ---      ---       #437
      00FF2CE0H   LINE      ---      ---       #440
      00FF2CE6H   LINE      ---      ---       #443
      00FF2CF2H   LINE      ---      ---       #445
      00FF2CF4H   LINE      ---      ---       #446
      00FF2CFAH   LINE      ---      ---       #447
      00FF2CFAH   LINE      ---      ---       #450
      00FF2CFDH   LINE      ---      ---       #453
      00FF2D03H   LINE      ---      ---       #456
      00FF2D06H   LINE      ---      ---       #457
      00FF2D18H   LINE      ---      ---       #458
      00FF2D1CH   LINE      ---      ---       #461
      00FF2D30H   LINE      ---      ---       #462
      00FF2D38H   LINE      ---      ---       #464
      00FF2D3FH   LINE      ---      ---       #467
      00FF2D43H   LINE      ---      ---       #468
      00FF2D45H   LINE      ---      ---       #472
      00FF2D49H   LINE      ---      ---       #473
      00FF2D49H   LINE      ---      ---       #474
      00FF2D4BH   LINE      ---      ---       #478
      00FF2D53H   LINE      ---      ---       #481
      00FF2D5AH   LINE      ---      ---       #482
      00FF2D5AH   LINE      ---      ---       #483
      00FF2D5CH   LINE      ---      ---       #485
      00FF2D5CH   LINE      ---      ---       #486
      00FF2D5FH   LINE      ---      ---       #487
      00FF2D65H   LINE      ---      ---       #489
      00FF2D68H   LINE      ---      ---       #492
      00FF2D79H   LINE      ---      ---       #493
L251 LINKER/LOCATER V4.66.93.0                                                        02/16/2024  15:12:23  PAGE 142


      00FF2D7CH   LINE      ---      ---       #496
      00FF2D89H   LINE      ---      ---       #499
      00FF2D91H   LINE      ---      ---       #502
      00FF2D95H   LINE      ---      ---       #505
      00FF2D9BH   LINE      ---      ---       #506
      00FF2D9BH   LINE      ---      ---       #507
      00FF2D9DH   LINE      ---      ---       #509
      00FF2D9DH   LINE      ---      ---       #511
      00FF2DA0H   LINE      ---      ---       #514
      00FF2DA2H   LINE      ---      ---       #519
      00FF2DAAH   LINE      ---      ---       #520
      00FF2DAAH   LINE      ---      ---       #522
      00FF2DAAH   LINE      ---      ---       #523
      00FF2DAAH   LINE      ---      ---       #525
      00FF2DAAH   LINE      ---      ---       #527
      00FF2DAAH   LINE      CODE     ---       #527
      ---         BLOCKEND  CODE     ---       LVL=0
      00FF2DADH   LINE      ---      ---       #528

      ---         MODULE    ---      ---       mac_RfeTx
      00FF7999H   PUBLIC    CODE     ---       MAC_RfeTxParInit
      00FF14ACH   PUBLIC    CODE     ---       MAC_RfeTxSchedule
      00FF9F25H   PUBLIC    CODE     ---       MAC_RfeTxTaskSet
      00FF9F6CH   PUBLIC    CODE     ---       MAC_RfeTxPktLenUpdate
      00FF5AB5H   PUBLIC    CODE     ---       MAC_RfeTxHwSecSet
      00FF9FDFH   PUBLIC    CODE     ---       MAC_RfeDataGen
      0000B3E3H   PUBLIC    EDATA    INT       gMacRfeTxState
      0000B3E5H   PUBLIC    EDATA    ---       gMacRfeTxCtrl
      00FF0F91H   PUBLIC    HCONST   ---       MACRfeDataType
      00FF0F97H   PUBLIC    HCONST   ---       MACRfePrbs9
      00000080H   SFRSYM    DATA     BYTE      P0

      00FF9F25H   BLOCK     CODE     ---       LVL=0
      00FF9F25H   LINE      ---      ---       #58
      00FF9F27H   LINE      ---      ---       #60
      00FF9F2DH   LINE      ---      ---       #63
      00FF9F31H   LINE      ---      ---       #64
      00FF9F4DH   LINE      ---      ---       #66
      00FF9F61H   LINE      ---      ---       #67
      00FF9F61H   LINE      ---      ---       #71
      R10         REGSYM    ---      BYTE      bRtcAutoEn
      ---         BLOCKEND  ---      ---       LVL=0

      00FF9F6CH   BLOCK     CODE     ---       LVL=0
      00FF9F6CH   LINE      ---      ---       #75
      00FF9F6CH   LINE      ---      ---       #77
      00FF9F78H   LINE      ---      ---       #78
      00FF9FA9H   LINE      ---      ---       #80
      00FF9FB8H   LINE      ---      ---       #81
      00FF9FBAH   LINE      ---      ---       #84
      00FF9FD2H   LINE      ---      ---       #85
      00FF9FD6H   LINE      ---      ---       #86
      00FF9FDEH   LINE      ---      ---       #87
      00FF9FDEH   LINE      ---      ---       #88
      ---         BLOCKEND  ---      ---       LVL=0

      00FF5AB5H   BLOCK     CODE     ---       LVL=0
      00FF5AB5H   LINE      ---      ---       #91
      00FF5AB7H   LINE      ---      ---       #92
      00FF5AB7H   BLOCK     CODE     NEAR LAB  LVL=1
      00FF5AB7H   LINE      ---      ---       #95
      00FF5AC5H   LINE      ---      ---       #97
      00FF5AC7H   LINE      ---      ---       #98
      00FF5ACBH   LINE      ---      ---       #99
      00FF5ACDH   LINE      ---      ---       #102
L251 LINKER/LOCATER V4.66.93.0                                                        02/16/2024  15:12:23  PAGE 143


      00FF5AD1H   LINE      ---      ---       #103
      00FF5AD5H   LINE      ---      ---       #104
      00FF5ADBH   LINE      ---      ---       #105
      00FF5AE3H   LINE      ---      ---       #106
      00FF5AE9H   LINE      ---      ---       #107
      00FF5AEFH   LINE      ---      ---       #108
      00FF5AEFH   LINE      ---      ---       #110
      WR12        REGSYM    ---      WORD      aDataLen
      WR14        REGSYM    ---      WORD      mDataLen
      ---         BLOCKEND  CODE     ---       LVL=1
      00FF5B00H   LINE      ---      ---       #111
      00FF5B00H   LINE      CODE     ---       #111

      00FF9FDFH   BLOCK     CODE     ---       LVL=0
      00FF9FDFH   LINE      ---      ---       #113
      00FF9FE9H   LINE      ---      ---       #114
      REG=6       REGSYM    ---      ---       pbuf
      WR14        REGSYM    ---      WORD      len
      0000B5D4H   SYMBOL    EDATA    BYTE      dataType
      00FF9FE9H   BLOCK     CODE     NEAR LAB  LVL=1
      00FF9FE9H   LINE      ---      ---       #117
      00FF9FEFH   LINE      ---      ---       #120
      00FF9FF2H   LINE      ---      ---       #121
      00FFA028H   LINE      ---      ---       #122
      00FFA030H   LINE      ---      ---       #123
      00FFA049H   LINE      ---      ---       #124
      00FFA04DH   LINE      ---      ---       #125
      00FFA04DH   LINE      ---      ---       #126
      00FFA056H   LINE      ---      ---       #128
      00FFA070H   LINE      ---      ---       #129
      00FFA074H   LINE      ---      ---       #130
      00FFA074H   LINE      ---      ---       #135
      0000B5D5H   SYMBOL    EDATA    BYTE      idx
      ---         BLOCKEND  CODE     ---       LVL=1
      00FFA075H   LINE      ---      ---       #136
      00FFA075H   LINE      CODE     ---       #136

      00FF7999H   BLOCK     CODE     ---       LVL=0
      00FF7999H   LINE      ---      ---       #138
      00FF79A1H   LINE      ---      ---       #140
      00FF79A6H   LINE      ---      ---       #141
      00FF79ACH   LINE      ---      ---       #142
      00FF79B0H   LINE      ---      ---       #143
      00FF79B4H   LINE      ---      ---       #144
      00FF79BAH   LINE      ---      ---       #145
      00FF79BFH   LINE      ---      ---       #146
      00FF79C5H   LINE      ---      ---       #147
      00FF79C9H   LINE      ---      ---       #148
      00FF79CFH   LINE      ---      ---       #149
      00FF79D3H   LINE      ---      ---       #152
      00FF79DBH   LINE      ---      ---       #153
      00FF7A0FH   LINE      ---      ---       #154
      00FF7A1EH   LINE      ---      ---       #155
      00FF7A2CH   LINE      ---      ---       #158
      00FF7A2EH   LINE      ---      ---       #159
      WR2         REGSYM    ---      WORD      txTarget
      WR4         REGSYM    ---      WORD      txStepSize
      R14         REGSYM    ---      BYTE      pktType
      R15         REGSYM    ---      BYTE      pktPhrType
      ---         BLOCKEND  ---      ---       LVL=0

      00FF14ACH   BLOCK     CODE     ---       LVL=0
      00FF14ACH   LINE      ---      ---       #161
      00FF14ACH   LINE      ---      ---       #162
      00FF14ACH   BLOCK     CODE     NEAR LAB  LVL=1
L251 LINKER/LOCATER V4.66.93.0                                                        02/16/2024  15:12:23  PAGE 144


      00FF14ACH   LINE      ---      ---       #163
      00FF14ACH   LINE      ---      ---       #167
      00FF14B7H   LINE      ---      ---       #169
      00FF14B7H   LINE      ---      ---       #170
      00FF14B7H   LINE      ---      ---       #173
      00FF14D9H   LINE      ---      ---       #175
      00FF14D9H   LINE      ---      ---       #177
      00FF14DCH   LINE      ---      ---       #179
      WR6         REGSYM    ---      WORD      macFunEventQueue
      R11         REGSYM    ---      BYTE      retValue
      00FF14DCH   BLOCK     CODE     NEAR LAB  LVL=2
      00FF14DCH   LINE      ---      ---       #181
      00FF14E4H   LINE      ---      ---       #182
      00FF14ECH   LINE      ---      ---       #183
      00FF14F4H   LINE      ---      ---       #184
      00FF14FCH   LINE      ---      ---       #185
      0000B4C8H   SYMBOL    EDATA    ---       cb
      ---         BLOCKEND  CODE     ---       LVL=2
      00FF1503H   BLOCK     CODE     NEAR LAB  LVL=2
      00FF1503H   LINE      ---      ---       #186
      00FF1503H   LINE      ---      ---       #188
      00FF1513H   LINE      ---      ---       #192
      00FF1516H   LINE      ---      ---       #196
      00FF1516H   LINE      ---      ---       #197
      00FF1518H   LINE      ---      ---       #201
      00FF1542H   LINE      ---      ---       #204
      00FF1545H   LINE      ---      ---       #207
      00FF1548H   LINE      ---      ---       #210
      00FF1557H   LINE      ---      ---       #212
      00FF1559H   LINE      ---      ---       #215
      00FF155DH   LINE      ---      ---       #216
      00FF155FH   LINE      ---      ---       #219
      00FF1565H   LINE      ---      ---       #221
      00FF156AH   LINE      ---      ---       #240
      00FF1570H   LINE      ---      ---       #243
      00FF1571H   LINE      ---      ---       #244
      00FF1573H   LINE      ---      ---       #245
      00FF1579H   LINE      ---      ---       #247
      00FF157EH   LINE      ---      ---       #250
      00FF1584H   LINE      ---      ---       #253
      00FF1589H   LINE      ---      ---       #254
      00FF158BH   LINE      ---      ---       #255
      00FF1597H   LINE      ---      ---       #258
      00FF1599H   LINE      ---      ---       #259
      00FF1599H   LINE      ---      ---       #262
      00FF159FH   LINE      ---      ---       #263
      00FF15A6H   LINE      ---      ---       #266
      00FF15AAH   LINE      ---      ---       #267
      00FF15AAH   LINE      ---      ---       #268
      00FF15AAH   LINE      ---      ---       #269
      00FF15ACH   LINE      ---      ---       #271
      00FF15ACH   LINE      ---      ---       #272
      00FF15AFH   LINE      ---      ---       #273
      00FF15B7H   LINE      ---      ---       #276
      00FF15BAH   LINE      ---      ---       #279
      00FF15CBH   LINE      ---      ---       #280
      00FF15CDH   LINE      ---      ---       #282
      00FF15D3H   LINE      ---      ---       #285
      00FF15D9H   LINE      ---      ---       #288
      00FF15E0H   LINE      ---      ---       #291
      00FF15EEH   LINE      ---      ---       #294
      00FF15F1H   LINE      ---      ---       #295
      00FF15F1H   LINE      ---      ---       #298
      00FF15FBH   LINE      ---      ---       #301
      00FF1608H   LINE      ---      ---       #304
L251 LINKER/LOCATER V4.66.93.0                                                        02/16/2024  15:12:23  PAGE 145


      00FF160BH   LINE      ---      ---       #307
      00FF1611H   LINE      ---      ---       #308
      00FF1617H   LINE      ---      ---       #310
      00FF161BH   LINE      ---      ---       #311
      00FF161BH   LINE      ---      ---       #312
      00FF161DH   LINE      ---      ---       #314
      00FF161DH   LINE      ---      ---       #315
      00FF1620H   LINE      ---      ---       #316
      00FF1628H   LINE      ---      ---       #319
      00FF162FH   LINE      ---      ---       #322
      00FF1640H   LINE      ---      ---       #323
      00FF1642H   LINE      ---      ---       #327
      00FF164DH   LINE      ---      ---       #329
      00FF1657H   LINE      ---      ---       #330
      00FF165AH   LINE      ---      ---       #331
      00FF165CH   LINE      ---      ---       #333
      0000B4D0H   SYMBOL    EDATA    ---       ackContent
      ---         BLOCKEND  CODE     ---       LVL=2
      00FF165CH   LINE      ---      ---       #337
      00FF166CH   LINE      ---      ---       #338
      00FF167CH   LINE      ---      ---       #340
      00FF1686H   LINE      ---      ---       #341
      00FF1689H   LINE      ---      ---       #342
      00FF168BH   LINE      ---      ---       #345
      00FF1695H   LINE      ---      ---       #346
      00FF1698H   LINE      ---      ---       #347
      00FF1698H   LINE      CODE     ---       #347
      ---         BLOCKEND  CODE     ---       LVL=0
      00FF1698H   LINE      ---      ---       #348
      00FF1698H   LINE      ---      ---       #352
      00FF169FH   LINE      ---      ---       #354
      00FF16A5H   LINE      ---      ---       #357
      00FF16A9H   LINE      ---      ---       #358
      00FF16ABH   LINE      ---      ---       #359
      00FF16B1H   LINE      ---      ---       #362
      00FF16B8H   LINE      ---      ---       #364
      00FF16BBH   LINE      ---      ---       #367
      00FF16BDH   LINE      ---      ---       #371
      00FF16C3H   LINE      ---      ---       #374
      00FF16C7H   LINE      ---      ---       #375
      00FF16C7H   LINE      ---      ---       #376
      00FF16C9H   LINE      ---      ---       #378
      00FF16C9H   LINE      ---      ---       #380
      00FF16CCH   LINE      ---      ---       #385
      00FF16D4H   LINE      ---      ---       #386
      00FF16D6H   LINE      ---      ---       #388
      00FF16D6H   LINE      ---      ---       #390
      00FF16D9H   LINE      ---      ---       #399
      00FF16D9H   LINE      ---      ---       #401
      00FF16D9H   LINE      ---      ---       #402
      00FF16D9H   LINE      ---      ---       #403
      00FF16D9H   LINE      ---      ---       #405
      00FF16DCH   LINE      ---      ---       #406

      ---         MODULE    ---      ---       mac_DtmRx

      ---         MODULE    ---      ---       mac_DtmTx

      ---         MODULE    ---      ---       mac_htrp_control
      00FF8EBFH   PUBLIC    CODE     ---       mac_htrp_ctrl_set_channel_map_from_bmu
      00FFA078H   PUBLIC    CODE     ---       mac_htrp_ctrl_get_channel
      00FF1FC3H   PUBLIC    CODE     ---       mac_htrp_ctrl_increase_channel_index
      00FFA090H   PUBLIC    CODE     ---       mac_htrp_ctrl_clear_pkt_cnt
      00FFA0B5H   PUBLIC    CODE     ---       mac_htrp_ctrl_increase_pkt_cnt
      00FF732EH   PUBLIC    CODE     ---       mac_htrp_ctrl_increase_slot_index
L251 LINKER/LOCATER V4.66.93.0                                                        02/16/2024  15:12:23  PAGE 146


      00FFA117H   PUBLIC    CODE     ---       mac_htrp_ctrl_slot_sync
      00FF1DADH   PUBLIC    CODE     ---       mac_htrp_ctrl_channel_set
      00FF759EH   PUBLIC    CODE     ---       mac_htrp_ctrl_increase_cur_block
      00FF8E79H   PUBLIC    CODE     ---       mac_htrp_set_sec_para
      00FF8E70H   PUBLIC    CODE     ---       mac_htrp_set_disable
      00FFA141H   PUBLIC    CODE     ---       mac_htrp_send_tx_done
      00FF2482H   PUBLIC    CODE     ---       mac_htrp_reg_isr_cb
      00FF2727H   PUBLIC    CODE     ---       mac_htrp_isr_tx_done_handler
      00FFA161H   PUBLIC    CODE     ---       mac_htrp_isr_rx_done_handler
      00FF7675H   PUBLIC    CODE     ---       mac_htrp_check_rx_valid
      00FF3558H   PUBLIC    CODE     ---       mac_htrp_set_rx_sw_queue
      00FF7282H   PUBLIC    CODE     ---       mac_htrp_update_lrx_buf_status
      00FF6AF2H   PUBLIC    CODE     ---       mac_htrp_relay_data_to_sw_rxq
      00FF6B76H   PUBLIC    CODE     ---       mac_htrp_get_rx_sw_queue_wo_addr
      00FF350BH   PUBLIC    CODE     ---       mac_htrp_set_rx_hw_queue
      00FF3501H   PUBLIC    CODE     ---       mac_htrp_set_rx_queue
      00FF6BC5H   PUBLIC    CODE     ---       mac_htrp_clear_rx_queue
      00FF8E32H   PUBLIC    CODE     ---       mac_htrp_reset_rx_conn_status
      00FF356EH   PUBLIC    CODE     ---       mac_htrp_check_rx_conn_status
      00FF248BH   PUBLIC    CODE     ---       mac_htrp_get_tx_data
      00FF2394H   PUBLIC    CODE     ---       mac_htrp_set_tx_queue
      00FFA14DH   PUBLIC    CODE     ---       mac_htrp_clear_tx_queue
      00FFA185H   PUBLIC    CODE     ---       mac_htrp_ctrl_init
      00FF57C3H   PUBLIC    CODE     ---       mac_htrp_sleep_init
      00FFA1A8H   PUBLIC    CODE     ---       mac_htrp_rtc_isr_handler
      00FF37FCH   PUBLIC    CODE     ---       mac_htrp_is_allow_sleep_state
      00FF358DH   PUBLIC    CODE     ---       mac_htrp_sleep_ctrl
      00FF37DBH   PUBLIC    CODE     ---       mac_htrp_ready_to_sleep
      0000B0B4H   PUBLIC    EDATA    ---       g_mac_htrp_ctrl
      0000B1E6H   PUBLIC    EDATA    BYTE      g_mac_htrp_rx_commit_type
      0000B1E7H   PUBLIC    EDATA    ---       g_mac_htrp_tx_local_data
      0000B1EDH   PUBLIC    EDATA    ---       gMac_htrp_tx_done_hdl
      0000B1EFH   PUBLIC    EDATA    ---       gMac_htrp_rx_done_hdl
      000000A8H.7 SFRSYM    DATA     BIT       EA
      00000080H   SFRSYM    DATA     BYTE      P0

      00FF8EBFH   BLOCK     CODE     ---       LVL=0
      00FF8EBFH   LINE      ---      ---       #87
      00FF8EC5H   LINE      ---      ---       #88
      REG=0       REGSYM    ---      ---       map
      R9          REGSYM    ---      BYTE      start
      R10         REGSYM    ---      BYTE      length
      00FF8EC5H   BLOCK     CODE     NEAR LAB  LVL=1
      00FF8EC5H   LINE      ---      ---       #90
      00FF8ED1H   LINE      ---      ---       #91
      00FF8ED3H   LINE      ---      ---       #92
      00FF8ED3H   LINE      ---      ---       #94
      00FF8ED7H   LINE      ---      ---       #95
      00FF8EF9H   LINE      ---      ---       #96
      00FF8EFFH   LINE      ---      ---       #98
      00FF8F09H   LINE      ---      ---       #100
      R8          REGSYM    ---      BYTE      count
      ---         BLOCKEND  CODE     ---       LVL=1
      00FF8F0BH   LINE      ---      ---       #101
      00FF8F0BH   LINE      CODE     ---       #101

      00FFA078H   BLOCK     CODE     ---       LVL=0
      00FFA078H   LINE      ---      ---       #103
      00FFA07AH   LINE      ---      ---       #105
      00FFA082H   LINE      ---      ---       #106
      R6          REGSYM    ---      BYTE      index
      ---         BLOCKEND  ---      ---       LVL=0

      00FF1FB6H   BLOCK     CODE     ---       LVL=0
      00FF1FC3H   LINE      ---      ---       #108
L251 LINKER/LOCATER V4.66.93.0                                                        02/16/2024  15:12:23  PAGE 147


      00FF1FC3H   LINE      ---      ---       #109
      00FF1FB6H   SYMBOL    CODE     NEAR LAB  ?L?COM002B
      R7          REGSYM    ---      BYTE      count
      00FF1FC3H   BLOCK     CODE     NEAR LAB  LVL=1
      00FF1FC3H   LINE      ---      ---       #110
      00FF1FCDH   LINE      ---      ---       #111
      00FF1FD5H   LINE      ---      ---       #112
      00FF1FDEH   LINE      ---      ---       #113
      00FF1FE0H   LINE      ---      ---       #114
      00FF1FE4H   LINE      ---      ---       #115
      R7          REGSYM    ---      BYTE      temp_count
      ---         BLOCKEND  CODE     ---       LVL=1
      00FF1FE4H   LINE      ---      ---       #116
      00FF1FE4H   LINE      CODE     ---       #116

      00FFA083H   BLOCK     CODE     ---       LVL=0
      00FFA090H   LINE      ---      ---       #117
      00FFA090H   LINE      ---      ---       #119
      00FFA09CH   LINE      ---      ---       #120
      00FFA0A8H   LINE      ---      ---       #121
      00FFA083H   SYMBOL    CODE     NEAR LAB  ?L?COM002D
      ---         BLOCKEND  ---      ---       LVL=0

      00FFA0B5H   BLOCK     CODE     ---       LVL=0
      00FFA0B5H   LINE      ---      ---       #124
      00FFA0B7H   LINE      ---      ---       #125
      R3          REGSYM    ---      BYTE      crc_flag
      00FFA0B7H   BLOCK     CODE     NEAR LAB  LVL=1
      00FFA0B7H   LINE      ---      ---       #126
      00FFA0BBH   LINE      ---      ---       #128
      00FFA0CCH   LINE      ---      ---       #129
      00FFA0D0H   LINE      ---      ---       #130
      00FFA0E1H   LINE      ---      ---       #133
      00FFA0EFH   LINE      ---      ---       #134
      00FFA101H   LINE      ---      ---       #135
      00FFA10BH   LINE      ---      ---       #136
      00FFA116H   LINE      ---      ---       #137
      R6          REGSYM    ---      BYTE      ch_idx
      ---         BLOCKEND  CODE     ---       LVL=1
      ---         BLOCKEND  CODE     ---       LVL=0

      00FF7329H   BLOCK     CODE     ---       LVL=0
      00FF732EH   LINE      ---      ---       #141
      00FF732EH   LINE      ---      ---       #142
      00FF7329H   SYMBOL    CODE     NEAR LAB  ?L?COM0026
      R7          REGSYM    ---      BYTE      count
      00FF732EH   BLOCK     CODE     NEAR LAB  LVL=1
      00FF732EH   LINE      ---      ---       #143
      00FF7338H   LINE      ---      ---       #145
      00FF733DH   LINE      ---      ---       #146
      00FF7348H   LINE      ---      ---       #147
      00FF734AH   LINE      ---      ---       #148
      00FF734EH   LINE      ---      ---       #149
      R7          REGSYM    ---      BYTE      temp_count
      ---         BLOCKEND  CODE     ---       LVL=1
      00FF734EH   LINE      ---      ---       #150
      00FF734EH   LINE      CODE     ---       #150

      00FFA117H   BLOCK     CODE     ---       LVL=0
      00FFA117H   LINE      ---      ---       #152
      00FFA117H   LINE      ---      ---       #153
      00FFA117H   BLOCK     CODE     NEAR LAB  LVL=1
      00FFA117H   LINE      ---      ---       #154
      00FFA124H   LINE      ---      ---       #155
      00FFA12DH   LINE      ---      ---       #157
L251 LINKER/LOCATER V4.66.93.0                                                        02/16/2024  15:12:23  PAGE 148


      00FFA13CH   LINE      ---      ---       #158
      00FFA13FH   LINE      ---      ---       #159
      DR4         REGSYM    ---      DWORD     phr
      R7          REGSYM    ---      BYTE      slot_cnt
      ---         BLOCKEND  CODE     ---       LVL=1
      00FFA140H   LINE      ---      ---       #160
      00FFA140H   LINE      CODE     ---       #160

      00FF1DADH   BLOCK     CODE     ---       LVL=0
      00FF1DADH   LINE      ---      ---       #162
      00FF1DADH   LINE      ---      ---       #165
      00FF1DC0H   LINE      ---      ---       #170
      ---         BLOCKEND  ---      ---       LVL=0

      00FF759EH   BLOCK     CODE     ---       LVL=0
      00FF759EH   LINE      ---      ---       #174
      00FF759EH   LINE      ---      ---       #175
      R7          REGSYM    ---      BYTE      count
      00FF759EH   BLOCK     CODE     NEAR LAB  LVL=1
      00FF759EH   LINE      ---      ---       #176
      00FF75A8H   LINE      ---      ---       #177
      00FF75B0H   LINE      ---      ---       #178
      00FF75B9H   LINE      ---      ---       #179
      00FF75BBH   LINE      ---      ---       #180
      00FF75BFH   LINE      ---      ---       #181
      R7          REGSYM    ---      BYTE      temp_count
      ---         BLOCKEND  CODE     ---       LVL=1
      00FF75BFH   LINE      ---      ---       #182
      00FF75BFH   LINE      CODE     ---       #182

      00FF8E79H   BLOCK     CODE     ---       LVL=0
      00FF8E79H   LINE      ---      ---       #184
      00FF8E7FH   LINE      ---      ---       #186
      00FF8E8AH   LINE      ---      ---       #187
      00FF8E97H   LINE      ---      ---       #188
      REG=2       REGSYM    ---      ---       nonce
      REG=7       REGSYM    ---      ---       key
      ---         BLOCKEND  ---      ---       LVL=0

      00FF8E65H   BLOCK     CODE     ---       LVL=0
      00FF8E70H   LINE      ---      ---       #190
      00FF8E70H   LINE      ---      ---       #192
      00FF8E72H   LINE      ---      ---       #193
      00FF8E76H   LINE      ---      ---       #194
      00FF8E78H   LINE      ---      ---       #195
      00FF8E65H   SYMBOL    CODE     NEAR LAB  ?L?COM002F
      R11         REGSYM    ---      BYTE      is_disable
      ---         BLOCKEND  ---      ---       LVL=0

      00FFA141H   BLOCK     CODE     ---       LVL=0
      00FFA141H   LINE      ---      ---       #197
      00FFA141H   LINE      ---      ---       #199
      00FFA14AH   LINE      ---      ---       #200
      ---         BLOCKEND  ---      ---       LVL=0

      00FF2482H   BLOCK     CODE     ---       LVL=0
      00FF2482H   LINE      ---      ---       #203
      00FF2482H   LINE      ---      ---       #205
      00FF2486H   LINE      ---      ---       #206
      00FF248AH   LINE      ---      ---       #207
      REG=3       REGSYM    ---      ---       tx
      REG=2       REGSYM    ---      ---       rx
      ---         BLOCKEND  ---      ---       LVL=0

      00FF2727H   BLOCK     CODE     ---       LVL=0
L251 LINKER/LOCATER V4.66.93.0                                                        02/16/2024  15:12:23  PAGE 149


      00FF2727H   LINE      ---      ---       #209
      00FF2727H   LINE      ---      ---       #211
      00FF272AH   LINE      ---      ---       #213
      00FF2730H   LINE      ---      ---       #214
      00FF2737H   LINE      ---      ---       #215
      00FF273DH   LINE      ---      ---       #216
      00FF2741H   LINE      ---      ---       #217
      00FF2743H   LINE      ---      ---       #218
      00FF2745H   LINE      ---      ---       #219
      00FF274BH   LINE      ---      ---       #220
      00FF274BH   LINE      ---      ---       #222
      00FF2753H   LINE      ---      ---       #223
      00FF2759H   LINE      ---      ---       #224
      00FF2759H   LINE      ---      ---       #226
      00FF275FH   LINE      ---      ---       #227
      00FF275FH   LINE      ---      ---       #228
      ---         BLOCKEND  ---      ---       LVL=0

      00FFA161H   BLOCK     CODE     ---       LVL=0
      00FFA161H   LINE      ---      ---       #230
      00FFA161H   LINE      ---      ---       #232
      00FFA164H   LINE      ---      ---       #234
      00FFA16AH   LINE      ---      ---       #236
      00FFA172H   LINE      ---      ---       #237
      00FFA178H   LINE      ---      ---       #238
      00FFA178H   LINE      ---      ---       #240
      00FFA17CH   LINE      ---      ---       #241
      00FFA17EH   LINE      ---      ---       #242
      ---         BLOCKEND  ---      ---       LVL=0

      00FF7675H   BLOCK     CODE     ---       LVL=0
      00FF7675H   LINE      ---      ---       #246
      00FF7675H   LINE      ---      ---       #247
      00FF7675H   BLOCK     CODE     NEAR LAB  LVL=1
      00FF7675H   LINE      ---      ---       #249
      00FF7677H   LINE      ---      ---       #250
      00FF7681H   LINE      ---      ---       #252
      00FF768FH   LINE      ---      ---       #254
      00FF7695H   LINE      ---      ---       #256
      00FF76A3H   LINE      ---      ---       #258
      00FF76A7H   LINE      ---      ---       #259
      00FF76ABH   LINE      ---      ---       #260
      00FF76ADH   LINE      ---      ---       #261
      00FF76AFH   LINE      ---      ---       #262
      00FF76B9H   LINE      ---      ---       #263
      00FF76B9H   LINE      ---      ---       #264
      00FF76B9H   LINE      ---      ---       #267
      00FF76C1H   LINE      ---      ---       #268
      00FF76C4H   LINE      ---      ---       #269
      00FF76C4H   LINE      ---      ---       #270
      R7          REGSYM    ---      BYTE      is_crc_pass
      R10         REGSYM    ---      BYTE      sec_err
      R6          REGSYM    ---      BYTE      crc_err
      ---         BLOCKEND  CODE     ---       LVL=1
      00FF76C5H   LINE      ---      ---       #271
      00FF76C5H   LINE      CODE     ---       #271

      00FF3558H   BLOCK     CODE     ---       LVL=0
      00FF3558H   LINE      ---      ---       #274
      00FF3558H   LINE      ---      ---       #276
      00FF355AH   LINE      ---      ---       #277
      ---         BLOCKEND  ---      ---       LVL=0

      00FF7282H   BLOCK     CODE     ---       LVL=0
      00FF7282H   LINE      ---      ---       #280
L251 LINKER/LOCATER V4.66.93.0                                                        02/16/2024  15:12:23  PAGE 150


      00FF7282H   LINE      ---      ---       #283
      00FF7284H   LINE      ---      ---       #284
      ---         BLOCKEND  ---      ---       LVL=0

      00FF6B76H   BLOCK     CODE     ---       LVL=0
      00FF6B76H   LINE      ---      ---       #287
      00FF6B76H   LINE      ---      ---       #289
      ---         BLOCKEND  ---      ---       LVL=0

      00FF6AF2H   BLOCK     CODE     ---       LVL=0
      00FF6AF2H   LINE      ---      ---       #292
      00FF6AF4H   LINE      ---      ---       #293
      00FF6AF4H   BLOCK     CODE     NEAR LAB  LVL=1
      00FF6AF4H   LINE      ---      ---       #294
      00FF6AF9H   LINE      ---      ---       #300
      00FF6AFDH   LINE      ---      ---       #302
      00FF6B01H   LINE      ---      ---       #305
      00FF6B04H   LINE      ---      ---       #306
      00FF6B1BH   LINE      ---      ---       #307
      00FF6B28H   LINE      ---      ---       #310
      00FF6B30H   LINE      ---      ---       #311
      00FF6B59H   LINE      ---      ---       #316
      00FF6B61H   LINE      ---      ---       #324
      00FF6B63H   LINE      ---      ---       #327
      00FF6B6CH   LINE      ---      ---       #329
      REG=6       REGSYM    ---      ---       hwLrxBuf
      REG=7       REGSYM    ---      ---       swShareBufWo
      R10         REGSYM    ---      BYTE      pktLen
      0000B573H   SYMBOL    EDATA    ---       rxPhyStatus
      ---         BLOCKEND  CODE     ---       LVL=1
      00FF6B73H   LINE      ---      ---       #330
      00FF6B73H   LINE      CODE     ---       #330

      00FF350BH   BLOCK     CODE     ---       LVL=0
      00FF350BH   LINE      ---      ---       #333
      00FF350BH   LINE      ---      ---       #335
      00FF3515H   LINE      ---      ---       #336
      00FF3518H   LINE      ---      ---       #337
      00FF352CH   LINE      ---      ---       #338
      00FF3532H   LINE      ---      ---       #341
      00FF353BH   LINE      ---      ---       #342
      00FF353CH   LINE      ---      ---       #343
      00FF353FH   LINE      ---      ---       #344
      00FF3554H   LINE      ---      ---       #345
      00FF3557H   LINE      ---      ---       #346
      00FF3557H   LINE      ---      ---       #348
      ---         BLOCKEND  ---      ---       LVL=0

      00FF34FDH   BLOCK     CODE     ---       LVL=0
      00FF3501H   LINE      ---      ---       #350
      00FF3503H   LINE      ---      ---       #353
      00FF3507H   LINE      ---      ---       #355
      00FF3509H   LINE      ---      ---       #356
      00FF3509H   LINE      ---      ---       #362
      00FF34FDH   SYMBOL    CODE     NEAR LAB  ?L?COM0039
      R7          REGSYM    ---      BYTE      queue_type
      ---         BLOCKEND  ---      ---       LVL=0

      00FF6BC1H   BLOCK     CODE     ---       LVL=0
      00FF6BC5H   LINE      ---      ---       #366
      00FF6BC9H   LINE      ---      ---       #368
      00FF6BD0H   LINE      ---      ---       #369
      00FF6BD7H   LINE      ---      ---       #370
      00FF6BDCH   LINE      ---      ---       #372
      00FF6BDFH   LINE      ---      ---       #377
L251 LINKER/LOCATER V4.66.93.0                                                        02/16/2024  15:12:23  PAGE 151


      00FF6BE1H   LINE      ---      ---       #378
      00FF6BC1H   SYMBOL    CODE     NEAR LAB  ?L?COM0045
      R15         REGSYM    ---      BYTE      queue_type
      00FF6BE6H   BLOCK     CODE     NEAR LAB  LVL=1
      00FF6BE6H   LINE      ---      ---       #381
      00FF6BF5H   LINE      ---      ---       #382
      00FF6BFFH   LINE      ---      ---       #385
      00FF6C04H   LINE      ---      ---       #390
      00FF6C06H   LINE      ---      ---       #392
      00FF6C08H   LINE      ---      ---       #398
      00FF6C10H   LINE      ---      ---       #400
      00FF6C13H   LINE      ---      ---       #401
      00FF6C13H   LINE      ---      ---       #403
      00FF6C16H   LINE      ---      ---       #404
      00FF6C18H   LINE      ---      ---       #405
      00FF6C21H   LINE      ---      ---       #406
      00FF6C24H   LINE      ---      ---       #407
      00FF6C24H   LINE      ---      ---       #408
      0000B5D6H   SYMBOL    EDATA    ---       phr
      ---         BLOCKEND  CODE     ---       LVL=1
      00FF6C26H   LINE      ---      ---       #410
      00FF6C28H   LINE      ---      ---       #411
      00FF6C2EH   LINE      ---      ---       #412
      00FF6C31H   LINE      ---      ---       #413
      00FF6C35H   LINE      ---      ---       #414
      00FF6C35H   LINE      ---      ---       #415
      00FF6C35H   LINE      CODE     ---       #415

      00FF8E32H   BLOCK     CODE     ---       LVL=0
      00FF8E32H   LINE      ---      ---       #417
      00FF8E32H   LINE      ---      ---       #419
      00FF8E37H   LINE      ---      ---       #420
      00FF8E3DH   LINE      ---      ---       #421
      00FF8E41H   LINE      ---      ---       #422
      ---         BLOCKEND  ---      ---       LVL=0

      00FF356EH   BLOCK     CODE     ---       LVL=0
      00FF356EH   LINE      ---      ---       #424
      00FF356EH   LINE      ---      ---       #426
      00FF3578H   LINE      ---      ---       #427
      00FF357AH   LINE      ---      ---       #428
      00FF3582H   LINE      ---      ---       #429
      00FF3588H   LINE      ---      ---       #430
      00FF3588H   LINE      ---      ---       #432
      00FF358CH   LINE      ---      ---       #433
      ---         BLOCKEND  ---      ---       LVL=0

      00FF248BH   BLOCK     CODE     ---       LVL=0
      00FF248BH   LINE      ---      ---       #435
      00FF248BH   LINE      ---      ---       #436
      00FF248BH   BLOCK     CODE     NEAR LAB  LVL=1
      00FF248BH   LINE      ---      ---       #439
      00FF2495H   LINE      ---      ---       #443
      00FF2497H   LINE      ---      ---       #445
      00FF249BH   LINE      ---      ---       #446
      00FF249DH   LINE      ---      ---       #447
      WR6         REGSYM    ---      WORD      macIntEventQueue
      ---         BLOCKEND  CODE     ---       LVL=1
      ---         BLOCKEND  CODE     ---       LVL=0

      00FF2392H   BLOCK     CODE     ---       LVL=0
      00FF2394H   LINE      ---      ---       #451
      00FF2394H   LINE      ---      ---       #452
      00FF2392H   SYMBOL    CODE     NEAR LAB  ?L?COM0031
      00FF2394H   BLOCK     CODE     NEAR LAB  LVL=1
L251 LINKER/LOCATER V4.66.93.0                                                        02/16/2024  15:12:23  PAGE 152


      00FF2394H   LINE      ---      ---       #456
      00FF239CH   LINE      ---      ---       #457
      00FF239FH   LINE      ---      ---       #458
      00FF23A5H   LINE      ---      ---       #459
      00FF23A8H   LINE      ---      ---       #461
      00FF23AEH   LINE      ---      ---       #465
      00FF23B1H   LINE      ---      ---       #466
      00FF23B7H   LINE      ---      ---       #468
      00FF23C5H   LINE      ---      ---       #472
      00FF23E1H   LINE      ---      ---       #474
      00FF23FBH   LINE      ---      ---       #475
      00FF23FEH   LINE      ---      ---       #476
      00FF23FEH   LINE      ---      ---       #477
      00FF240CH   LINE      ---      ---       #478
      00FF240DH   LINE      ---      ---       #479
      00FF2415H   LINE      ---      ---       #481
      00FF2427H   LINE      ---      ---       #485
      00FF243DH   LINE      ---      ---       #487
      00FF2453H   LINE      ---      ---       #488
      00FF2456H   LINE      ---      ---       #489
      00FF2456H   LINE      ---      ---       #490
      00FF2478H   LINE      ---      ---       #491
      00FF247EH   LINE      ---      ---       #492
      00FF2481H   LINE      ---      ---       #493
      0000B5D8H   SYMBOL    EDATA    ---       phr
      ---         BLOCKEND  CODE     ---       LVL=1
      00FF2481H   LINE      ---      ---       #494
      00FF2481H   LINE      CODE     ---       #494

      00FFA14DH   BLOCK     CODE     ---       LVL=0
      00FFA14DH   LINE      ---      ---       #496
      00FFA14DH   LINE      ---      ---       #498
      00FFA153H   LINE      ---      ---       #499
      00FFA156H   LINE      ---      ---       #503
      00FFA158H   LINE      ---      ---       #505
      00FFA158H   LINE      ---      ---       #506
      00FFA15BH   LINE      ---      ---       #507
      00FFA160H   LINE      ---      ---       #508
      00FFA160H   LINE      ---      ---       #509
      WR6         REGSYM    ---      WORD      funEvent
      ---         BLOCKEND  ---      ---       LVL=0

      00FFA185H   BLOCK     CODE     ---       LVL=0
      00FFA185H   LINE      ---      ---       #511
      00FFA185H   LINE      ---      ---       #513
      00FFA191H   LINE      ---      ---       #514
      00FFA19DH   LINE      ---      ---       #515
      00FFA1A3H   LINE      ---      ---       #516
      00FFA1A7H   LINE      ---      ---       #517
      ---         BLOCKEND  ---      ---       LVL=0

      00FF57C3H   BLOCK     CODE     ---       LVL=0
      00FF57C3H   LINE      ---      ---       #519
      00FF57C3H   LINE      ---      ---       #521
      00FF57C9H   LINE      ---      ---       #522
      00FF57CEH   LINE      ---      ---       #523
      00FF57D6H   LINE      ---      ---       #524
      00FF57E2H   LINE      ---      ---       #525
      ---         BLOCKEND  ---      ---       LVL=0

      00FFA1A8H   BLOCK     CODE     ---       LVL=0
      00FFA1A8H   LINE      ---      ---       #527
      00FFA1A8H   LINE      ---      ---       #529
      00FFA1ADH   LINE      ---      ---       #530
      ---         BLOCKEND  ---      ---       LVL=0
L251 LINKER/LOCATER V4.66.93.0                                                        02/16/2024  15:12:23  PAGE 153



      00FF37FCH   BLOCK     CODE     ---       LVL=0
      00FF37FCH   LINE      ---      ---       #532
      00FF37FEH   LINE      ---      ---       #534
      00FF3804H   LINE      ---      ---       #536
      00FF3807H   LINE      ---      ---       #537
      00FF3807H   LINE      ---      ---       #539
      00FF3810H   LINE      ---      ---       #541
      00FF381EH   LINE      ---      ---       #544
      00FF3822H   LINE      ---      ---       #545
      00FF3822H   LINE      ---      ---       #547
      00FF3827H   LINE      ---      ---       #549
      00FF3835H   LINE      ---      ---       #552
      00FF3839H   LINE      ---      ---       #553
      00FF3839H   LINE      ---      ---       #556
      00FF383AH   LINE      ---      ---       #557
      ---         BLOCKEND  ---      ---       LVL=0

      00FF358DH   BLOCK     CODE     ---       LVL=0
      00FF358DH   LINE      ---      ---       #559
      00FF358FH   LINE      ---      ---       #560
      00FF358FH   BLOCK     CODE     NEAR LAB  LVL=1
      00FF358FH   LINE      ---      ---       #563
      00FF3595H   LINE      ---      ---       #565
      00FF3595H   LINE      ---      ---       #566
      00FF3595H   LINE      ---      ---       #572
      00FF35A3H   LINE      ---      ---       #576
      00FF35ADH   LINE      ---      ---       #577
      00FF35BCH   LINE      ---      ---       #579
      00FF35C4H   LINE      ---      ---       #580
      00FF35CAH   LINE      ---      ---       #581
      DR12        REGSYM    ---      DWORD     nextAnchor
      ---         BLOCKEND  CODE     ---       LVL=1
      00FF35CAH   LINE      ---      ---       #583
      00FF35CAH   LINE      CODE     ---       #583

      00FF37DBH   BLOCK     CODE     ---       LVL=0
      00FF37DBH   LINE      ---      ---       #585
      00FF37DBH   LINE      ---      ---       #587
      00FF37DFH   LINE      ---      ---       #588
      ---         BLOCKEND  ---      ---       LVL=0

      ---         MODULE    ---      ---       mac_htrp_rx
      00FF17E5H   PUBLIC    CODE     ---       mac_htrp_rx_set_state
      00FF1FA5H   PUBLIC    CODE     ---       mac_htrp_rx_get_state
      00FF301EH   PUBLIC    CODE     ---       mac_htrp_rx_handler
      00FF1796H   PUBLIC    CODE     ---       mac_htrp_rx_init
      00FF1DF7H   PUBLIC    CODE     ---       mac_htrp_rx_cal_drift_time
      00FF1ADDH   PUBLIC    CODE     ---       mac_htrp_rx_set_rf_task
      00FF1E64H   PUBLIC    CODE     ---       mac_htrp_rx_set_next_task_and_channel
      00FF75C0H   PUBLIC    CODE     ---       mac_htrp_rx_burst_rx_done
      00FF75E7H   PUBLIC    CODE     ---       mac_htrp_rx_slot_rx_done
      00FF1FF5H   PUBLIC    CODE     ---       mac_htrp_rx_slot_tx_done
      00FF1B96H   PUBLIC    CODE     ---       mac_htrp_rx_set_period_next_task
      00FF761BH   PUBLIC    CODE     ---       mac_htrp_rx_period_rx_done
      00FFA1AEH   PUBLIC    CODE     ---       mac_htrp_rx_period_tx_done
      0000B5C0H   PUBLIC    EDATA    BYTE      g_mac_htrp_rx_state
      0000B5C1H   PUBLIC    EDATA    BYTE      g_mac_htrp_rx_set_ch_time
      0000B5C2H   PUBLIC    EDATA    BYTE      g_mac_htrp_rx_sync_time
      00000080H   SFRSYM    DATA     BYTE      P0

      00FF17E5H   BLOCK     CODE     ---       LVL=0
      00FF17E5H   LINE      ---      ---       #114
      00FF17E5H   LINE      ---      ---       #116
      00FF17E9H   LINE      ---      ---       #117
L251 LINKER/LOCATER V4.66.93.0                                                        02/16/2024  15:12:23  PAGE 154


      R11         REGSYM    ---      BYTE      state
      ---         BLOCKEND  ---      ---       LVL=0

      00FF1FA5H   BLOCK     CODE     ---       LVL=0
      00FF1FA5H   LINE      ---      ---       #119
      00FF1FA5H   LINE      ---      ---       #121
      00FF1FA9H   LINE      ---      ---       #122
      ---         BLOCKEND  ---      ---       LVL=0

      00FF1DDDH   BLOCK     CODE     ---       LVL=0
      00FF1DF7H   LINE      ---      ---       #124
      00FF1DF7H   LINE      ---      ---       #126
      00FF1E05H   LINE      ---      ---       #127
      00FF1E08H   LINE      ---      ---       #128
      00FF1E14H   LINE      ---      ---       #129
      00FF1E1DH   LINE      ---      ---       #141
      00FF1E3CH   LINE      ---      ---       #142
      00FF1E3CH   LINE      ---      ---       #143
      00FF1E41H   LINE      ---      ---       #144
      00FF1E41H   LINE      ---      ---       #145
      00FF1E41H   LINE      ---      ---       #146
      00FF1E63H   LINE      ---      ---       #147
      00FF1E63H   LINE      ---      ---       #148
      00FF1DDDH   SYMBOL    CODE     NEAR LAB  ?L?COM000A
      ---         BLOCKEND  ---      ---       LVL=0

      00FF1AD9H   BLOCK     CODE     ---       LVL=0
      00FF1ADDH   LINE      ---      ---       #150
      00FF1AE5H   LINE      ---      ---       #151
      00FF1AD9H   SYMBOL    CODE     NEAR LAB  ?L?COM003A
      R13         REGSYM    ---      BYTE      need_tx
      REG=7       REGSYM    ---      ---       time
      00FF1AE5H   BLOCK     CODE     NEAR LAB  LVL=1
      00FF1AE5H   LINE      ---      ---       #155
      00FF1AEBH   LINE      ---      ---       #156
      00FF1AF0H   LINE      ---      ---       #157
      00FF1AF6H   LINE      ---      ---       #158
      00FF1AFAH   LINE      ---      ---       #159
      00FF1B00H   LINE      ---      ---       #160
      00FF1B14H   LINE      ---      ---       #161
      00FF1B16H   LINE      ---      ---       #162
      00FF1B1BH   LINE      ---      ---       #163
      00FF1B21H   LINE      ---      ---       #164
      00FF1B21H   LINE      ---      ---       #165
      00FF1B2DH   LINE      ---      ---       #166
      00FF1B39H   LINE      ---      ---       #167
      00FF1B41H   LINE      ---      ---       #169
      00FF1B45H   LINE      ---      ---       #170
      00FF1B4BH   LINE      ---      ---       #171
      00FF1B50H   LINE      ---      ---       #172
      00FF1B54H   LINE      ---      ---       #173
      00FF1B58H   LINE      ---      ---       #174
      00FF1B5EH   LINE      ---      ---       #175
      00FF1B64H   LINE      ---      ---       #176
      00FF1B68H   LINE      ---      ---       #177
      00FF1B70H   LINE      ---      ---       #178
      00FF1B70H   LINE      ---      ---       #180
      00FF1B74H   LINE      ---      ---       #182
      00FF1B7AH   LINE      ---      ---       #183
      00FF1B7DH   LINE      ---      ---       #184
      00FF1B7FH   LINE      ---      ---       #185
      00FF1B82H   LINE      ---      ---       #186
      00FF1B85H   LINE      ---      ---       #187
      00FF1B85H   LINE      ---      ---       #188
      DR8         REGSYM    ---      LONG      rtc
L251 LINKER/LOCATER V4.66.93.0                                                        02/16/2024  15:12:23  PAGE 155


      0000B488H   SYMBOL    EDATA    ---       taskControl
      ---         BLOCKEND  CODE     ---       LVL=1
      00FF1B91H   LINE      ---      ---       #189
      00FF1B91H   LINE      CODE     ---       #189

      00FF1E64H   BLOCK     CODE     ---       LVL=0
      00FF1E64H   LINE      ---      ---       #193
      00FF1E6EH   LINE      ---      ---       #194
      0000B415H   SYMBOL    EDATA    BYTE      need_tx
      0000B416H   SYMBOL    EDATA    DWORD     rtc
      00FF1E6EH   BLOCK     CODE     NEAR LAB  LVL=1
      00FF1E6EH   LINE      ---      ---       #195
      00FF1E90H   LINE      ---      ---       #199
      00FF1EA6H   LINE      ---      ---       #200
      00FF1EB9H   LINE      ---      ---       #201
      00FF1ECEH   LINE      ---      ---       #202
      00FF1ED2H   LINE      ---      ---       #203
      00FF1ED2H   LINE      ---      ---       #205
      00FF1ED4H   LINE      ---      ---       #206
      00FF1EDAH   LINE      ---      ---       #208
      00FF1EE2H   LINE      ---      ---       #209
      00FF1EECH   LINE      ---      ---       #210
      00FF1F0CH   LINE      ---      ---       #211
      00FF1F16H   LINE      ---      ---       #212
      DR12        REGSYM    ---      DWORD     now
      R9          REGSYM    ---      BYTE      count
      0000B41AH   SYMBOL    EDATA    ---       time
      ---         BLOCKEND  CODE     ---       LVL=1
      00FF1F1EH   LINE      ---      ---       #213
      00FF1F1EH   LINE      CODE     ---       #213

      00FF75C0H   BLOCK     CODE     ---       LVL=0
      00FF75C0H   LINE      ---      ---       #215
      00FF75C0H   LINE      ---      ---       #216
      00FF75C0H   BLOCK     CODE     NEAR LAB  LVL=1
      00FF75C0H   LINE      ---      ---       #217
      00FF75D9H   LINE      ---      ---       #219
      00FF75DDH   LINE      ---      ---       #222
      00FF75E4H   LINE      ---      ---       #224
      00FF75E6H   LINE      ---      ---       #225
      DR4         REGSYM    ---      DWORD     rtc
      ---         BLOCKEND  CODE     ---       LVL=1
      ---         BLOCKEND  CODE     ---       LVL=0

      00FF75E7H   BLOCK     CODE     ---       LVL=0
      00FF75E7H   LINE      ---      ---       #229
      00FF75E9H   LINE      ---      ---       #230
      00FF75E9H   BLOCK     CODE     NEAR LAB  LVL=1
      00FF75E9H   LINE      ---      ---       #231
      00FF7602H   LINE      ---      ---       #233
      00FF7605H   LINE      ---      ---       #235
      00FF760BH   LINE      ---      ---       #237
      00FF760FH   LINE      ---      ---       #240
      00FF7616H   LINE      ---      ---       #242
      00FF7618H   LINE      ---      ---       #243
      DR12        REGSYM    ---      DWORD     rtc
      ---         BLOCKEND  CODE     ---       LVL=1
      ---         BLOCKEND  CODE     ---       LVL=0

      00FF1FF5H   BLOCK     CODE     ---       LVL=0
      00FF1FF5H   LINE      ---      ---       #247
      00FF1FF5H   LINE      ---      ---       #249
      ---         BLOCKEND  ---      ---       LVL=0

      00FF1B96H   BLOCK     CODE     ---       LVL=0
L251 LINKER/LOCATER V4.66.93.0                                                        02/16/2024  15:12:23  PAGE 156


      00FF1B96H   LINE      ---      ---       #252
      00FF1B9EH   LINE      ---      ---       #253
      DR12        REGSYM    ---      DWORD     sync_time
      0000B4D4H   SYMBOL    EDATA    BYTE      is_timeout
      00FF1B9EH   BLOCK     CODE     NEAR LAB  LVL=1
      00FF1B9EH   LINE      ---      ---       #254
      00FF1BA2H   LINE      ---      ---       #255
      00FF1BA2H   LINE      ---      ---       #256
      00FF1BA2H   LINE      ---      ---       #259
      00FF1BC0H   LINE      ---      ---       #260
      00FF1BC0H   LINE      ---      ---       #261
      00FF1BCEH   LINE      ---      ---       #262
      00FF1BDFH   LINE      ---      ---       #263
      00FF1BF0H   LINE      ---      ---       #264
      00FF1BF6H   LINE      ---      ---       #265
      00FF1BF8H   LINE      ---      ---       #266
      00FF1C04H   LINE      ---      ---       #267
      00FF1C0FH   LINE      ---      ---       #268
      00FF1C0FH   LINE      ---      ---       #269
      00FF1C23H   LINE      ---      ---       #270
      00FF1C2BH   LINE      ---      ---       #271
      00FF1C34H   LINE      ---      ---       #272
      00FF1C36H   LINE      ---      ---       #273
      00FF1C4BH   LINE      ---      ---       #274
      00FF1C51H   LINE      ---      ---       #275
      00FF1C51H   LINE      ---      ---       #276
      DR24        REGSYM    ---      DWORD     now
      0000B4D5H   SYMBOL    EDATA    BYTE      count
      R11         REGSYM    ---      BYTE      ch_count
      DR24        REGSYM    ---      DWORD     diff
      0000B4D6H   SYMBOL    EDATA    ---       time
      00FF1C53H   BLOCK     CODE     NEAR LAB  LVL=2
      00FF1C53H   LINE      ---      ---       #277
      00FF1C5EH   LINE      ---      ---       #278
      00FF1C72H   LINE      ---      ---       #279
      R7          REGSYM    ---      BYTE      diff_count
      ---         BLOCKEND  CODE     ---       LVL=2
      00FF1C78H   BLOCK     CODE     NEAR LAB  LVL=2
      00FF1C78H   LINE      ---      ---       #280
      00FF1C78H   LINE      ---      ---       #281
      00FF1C7AH   LINE      ---      ---       #282
      00FF1C93H   LINE      ---      ---       #283
      00FF1C9CH   LINE      ---      ---       #284
      00FF1C9EH   LINE      ---      ---       #285
      R7          REGSYM    ---      BYTE      diff_count
      ---         BLOCKEND  CODE     ---       LVL=2
      00FF1CA0H   LINE      ---      ---       #286
      00FF1CABH   LINE      ---      ---       #287
      00FF1CBFH   LINE      ---      ---       #288
      00FF1CBFH   LINE      CODE     ---       #288
      ---         BLOCKEND  CODE     ---       LVL=0

      00FF761BH   BLOCK     CODE     ---       LVL=0
      00FF761BH   LINE      ---      ---       #337
      00FF761DH   LINE      ---      ---       #338
      00FF761DH   BLOCK     CODE     NEAR LAB  LVL=1
      00FF761DH   LINE      ---      ---       #339
      00FF7634H   LINE      ---      ---       #341
      DR12        REGSYM    ---      DWORD     rtc
      00FF7638H   BLOCK     CODE     NEAR LAB  LVL=2
      00FF7638H   LINE      ---      ---       #342
      00FF7645H   LINE      ---      ---       #344
      00FF765FH   LINE      ---      ---       #349
      DR4         REGSYM    ---      DWORD     phr
      R3          REGSYM    ---      BYTE      blk_num
L251 LINKER/LOCATER V4.66.93.0                                                        02/16/2024  15:12:23  PAGE 157


      ---         BLOCKEND  CODE     ---       LVL=2
      00FF7663H   LINE      ---      ---       #350
      00FF7663H   LINE      ---      ---       #352
      00FF7669H   LINE      ---      ---       #355
      00FF7670H   LINE      ---      ---       #357
      00FF7672H   LINE      ---      ---       #358
      00FF7672H   LINE      CODE     ---       #358
      ---         BLOCKEND  CODE     ---       LVL=0

      00FFA1AEH   BLOCK     CODE     ---       LVL=0
      00FFA1AEH   LINE      ---      ---       #362
      00FFA1AEH   LINE      ---      ---       #363
      00FFA1AEH   BLOCK     CODE     NEAR LAB  LVL=1
      00FFA1AEH   LINE      ---      ---       #366
      00FFA1B1H   LINE      ---      ---       #367
      00FFA1B7H   LINE      ---      ---       #369
      00FFA1BFH   LINE      ---      ---       #370
      00FFA1C9H   LINE      ---      ---       #371
      00FFA1EAH   LINE      ---      ---       #372
      0000B4E0H   SYMBOL    EDATA    ---       time
      ---         BLOCKEND  CODE     ---       LVL=1
      ---         BLOCKEND  CODE     ---       LVL=0

      00FF301EH   BLOCK     CODE     ---       LVL=0
      00FF301EH   LINE      ---      ---       #375
      00FF3020H   LINE      ---      ---       #376
      00FF3020H   BLOCK     CODE     NEAR LAB  LVL=1
      00FF3020H   LINE      ---      ---       #377
      00FF3022H   LINE      ---      ---       #379
      00FF3040H   LINE      ---      ---       #380
      00FF3040H   LINE      ---      ---       #381
      WR14        REGSYM    ---      WORD      macFunEventQueue
      00FF3040H   BLOCK     CODE     NEAR LAB  LVL=2
      00FF3040H   LINE      ---      ---       #384
      00FF3043H   LINE      ---      ---       #385
      00FF3046H   LINE      ---      ---       #392
      00FF3049H   LINE      ---      ---       #394
      00FF305BH   LINE      ---      ---       #396
      00FF308FH   LINE      ---      ---       #398
      00FF3097H   LINE      ---      ---       #399
      00FF309DH   LINE      ---      ---       #400
      00FF30A5H   LINE      ---      ---       #401
      00FF30ABH   LINE      ---      ---       #403
      00FF30B1H   LINE      ---      ---       #404
      00FF30B4H   LINE      ---      ---       #406
      00FF30B4H   LINE      ---      ---       #408
      00FF30BAH   LINE      ---      ---       #409
      00FF30CCH   LINE      ---      ---       #411
      00FF30DBH   LINE      ---      ---       #412
      00FF30DBH   LINE      ---      ---       #413
      00FF30E1H   LINE      ---      ---       #414
      00FF30E3H   LINE      ---      ---       #416
      00FF30E3H   LINE      ---      ---       #417
      00FF30EBH   LINE      ---      ---       #418
      00FF30EDH   LINE      ---      ---       #420
      00FF30EDH   LINE      ---      ---       #421
      00FF30F8H   LINE      ---      ---       #422
      00FF30F8H   LINE      ---      ---       #424
      00FF30F8H   LINE      ---      ---       #425
      00FF30FEH   LINE      ---      ---       #426
      00FF3120H   LINE      ---      ---       #427
      00FF312BH   LINE      ---      ---       #429
      00FF3133H   LINE      ---      ---       #431
      00FF3139H   LINE      ---      ---       #433
      00FF3140H   LINE      ---      ---       #435
L251 LINKER/LOCATER V4.66.93.0                                                        02/16/2024  15:12:23  PAGE 158


      0000B32DH   SYMBOL    EDATA    ---       cb
      0000B335H   SYMBOL    EDATA    ---       time
      ---         BLOCKEND  CODE     ---       LVL=2
      00FF3142H   BLOCK     CODE     NEAR LAB  LVL=2
      00FF3142H   LINE      ---      ---       #437
      00FF3144H   LINE      ---      ---       #439
      00FF3144H   LINE      ---      ---       #440
      00FF3149H   LINE      ---      ---       #441
      00FF3151H   LINE      ---      ---       #443
      00FF3154H   LINE      ---      ---       #445
      00FF315BH   LINE      ---      ---       #446
      00FF3160H   LINE      ---      ---       #448
      00FF316AH   LINE      ---      ---       #452
      00FF316EH   LINE      ---      ---       #453
      00FF3171H   LINE      ---      ---       #454
      00FF3173H   LINE      ---      ---       #455
      00FF3175H   LINE      ---      ---       #456
      00FF317AH   LINE      ---      ---       #457
      00FF317AH   LINE      ---      ---       #458
      00FF317CH   LINE      ---      ---       #459
      00FF317CH   LINE      ---      ---       #461
      00FF3183H   LINE      ---      ---       #463
      00FF3199H   LINE      ---      ---       #464
      00FF3199H   LINE      ---      ---       #465
      00FF319BH   LINE      ---      ---       #470
      00FF31B0H   LINE      ---      ---       #471
      00FF31B3H   LINE      ---      ---       #472
      00FF31B3H   LINE      ---      ---       #475
      00FF31BAH   LINE      ---      ---       #476
      00FF31BFH   LINE      ---      ---       #477
      00FF31C2H   LINE      ---      ---       #478
      00FF31C2H   LINE      ---      ---       #480
      00FF31C7H   LINE      ---      ---       #482
      00FF31D1H   LINE      ---      ---       #483
      00FF31D3H   LINE      ---      ---       #484
      00FF31D9H   LINE      ---      ---       #485
      00FF31DFH   LINE      ---      ---       #486
      00FF31E2H   LINE      ---      ---       #487
      00FF31E4H   LINE      ---      ---       #488
      00FF31E6H   LINE      ---      ---       #489
      00FF31EBH   LINE      ---      ---       #490
      00FF31EBH   LINE      ---      ---       #491
      00FF31EEH   LINE      ---      ---       #492
      00FF31F8H   LINE      ---      ---       #493
      00FF3203H   LINE      ---      ---       #494
      00FF3208H   LINE      ---      ---       #495
      00FF320BH   LINE      ---      ---       #496
      00FF320BH   LINE      ---      ---       #497
      00FF320DH   LINE      ---      ---       #499
      00FF320DH   LINE      ---      ---       #500
      00FF3212H   LINE      ---      ---       #501
      00FF3218H   LINE      ---      ---       #503
      00FF321CH   LINE      ---      ---       #505
      00FF321FH   LINE      ---      ---       #507
      00FF3222H   LINE      ---      ---       #509
      00FF3231H   LINE      ---      ---       #510
      00FF3233H   LINE      ---      ---       #511
      00FF3236H   LINE      ---      ---       #512
      00FF3238H   LINE      ---      ---       #513
      00FF323AH   LINE      ---      ---       #514
      00FF323AH   LINE      ---      ---       #515
      00FF3244H   LINE      ---      ---       #516
      0000B33FH   SYMBOL    EDATA    DWORD     rtc
      0000B343H   SYMBOL    EDATA    ---       time
      ---         BLOCKEND  CODE     ---       LVL=2
L251 LINKER/LOCATER V4.66.93.0                                                        02/16/2024  15:12:23  PAGE 159


      00FF324CH   BLOCK     CODE     NEAR LAB  LVL=2
      00FF324CH   LINE      ---      ---       #520
      00FF325DH   LINE      ---      ---       #521
      00FF325DH   LINE      ---      ---       #522
      00FF326BH   LINE      ---      ---       #523
      00FF326EH   LINE      ---      ---       #524
      00FF3274H   LINE      ---      ---       #526
      00FF327CH   LINE      ---      ---       #527
      00FF3286H   LINE      ---      ---       #528
      00FF32A7H   LINE      ---      ---       #529
      00FF32A8H   LINE      ---      ---       #530
      00FF32A8H   LINE      ---      ---       #531
      00FF32AAH   LINE      ---      ---       #533
      00FF32AAH   LINE      ---      ---       #534
      00FF32ADH   LINE      ---      ---       #535
      00FF32B6H   LINE      ---      ---       #536
      00FF32B8H   LINE      ---      ---       #538
      00FF32B8H   LINE      ---      ---       #539
      00FF32C6H   LINE      ---      ---       #540
      00FF32C9H   LINE      ---      ---       #541
      00FF32CCH   LINE      ---      ---       #542
      00FF32D2H   LINE      ---      ---       #544
      00FF32DAH   LINE      ---      ---       #545
      00FF32E4H   LINE      ---      ---       #546
      00FF3305H   LINE      ---      ---       #547
      00FF330EH   LINE      ---      ---       #548
      00FF3316H   LINE      ---      ---       #549
      00FF3316H   LINE      ---      ---       #550
      00FF3316H   LINE      ---      ---       #552
      00FF3319H   LINE      ---      ---       #553
      00FF331CH   LINE      ---      ---       #555
      00FF3326H   LINE      ---      ---       #556
      DR4         REGSYM    ---      DWORD     rtc
      ---         BLOCKEND  CODE     ---       LVL=2
      00FF332AH   LINE      ---      ---       #557
      00FF332CH   LINE      ---      ---       #558
      00FF3331H   LINE      ---      ---       #559
      00FF3331H   LINE      ---      ---       #560
      00FF3339H   LINE      ---      ---       #561
      00FF333EH   LINE      ---      ---       #563
      00FF3341H   LINE      ---      ---       #564
      00FF3341H   LINE      CODE     ---       #564
      ---         BLOCKEND  CODE     ---       LVL=0

      00FF1796H   BLOCK     CODE     ---       LVL=0
      00FF1796H   LINE      ---      ---       #1093
      00FF1798H   LINE      ---      ---       #1094
      00FF1798H   BLOCK     CODE     NEAR LAB  LVL=1
      00FF1798H   LINE      ---      ---       #1095
      00FF1798H   LINE      ---      ---       #1097
      00FF179BH   LINE      ---      ---       #1100
      00FF17A1H   LINE      ---      ---       #1101
      REG=7       REGSYM    ---      ---       pRxSwqBlk
      ---         BLOCKEND  CODE     ---       LVL=1
      00FF17BAH   LINE      ---      ---       #1105
      00FF17BAH   LINE      CODE     ---       #1105
      00FF3343H   LINE      ---      ---       #565
      00FF3346H   LINE      ---      ---       #566
      00FF3356H   LINE      ---      ---       #567
      00FF335DH   LINE      ---      ---       #568
      00FF335DH   LINE      ---      ---       #571
      00FF3363H   LINE      ---      ---       #572
      00FF3366H   LINE      ---      ---       #573
      00FF336BH   LINE      ---      ---       #574
      00FF336BH   LINE      ---      ---       #576
L251 LINKER/LOCATER V4.66.93.0                                                        02/16/2024  15:12:23  PAGE 160


      00FF336DH   LINE      ---      ---       #578
      00FF336DH   LINE      ---      ---       #579
      00FF3372H   LINE      ---      ---       #580
      00FF337EH   LINE      ---      ---       #582
      00FF3381H   LINE      ---      ---       #583
      00FF3386H   LINE      ---      ---       #585
      00FF3388H   LINE      ---      ---       #587
      00FF338DH   LINE      ---      ---       #588
      00FF3390H   LINE      ---      ---       #589
      00FF3390H   LINE      ---      ---       #590
      00FF3392H   LINE      ---      ---       #592
      00FF3392H   LINE      ---      ---       #593
      00FF339BH   LINE      ---      ---       #594
      00FF339EH   LINE      ---      ---       #595
      00FF33AAH   LINE      ---      ---       #598
      00FF33B0H   LINE      ---      ---       #600
      00FF33B8H   LINE      ---      ---       #602
      00FF33BBH   LINE      ---      ---       #603
      00FF33BEH   LINE      ---      ---       #604
      00FF33BEH   LINE      ---      ---       #605
      00FF33C3H   LINE      ---      ---       #606
      00FF33C5H   LINE      ---      ---       #607
      00FF33CDH   LINE      ---      ---       #609
      00FF33D0H   LINE      ---      ---       #610
      00FF33D3H   LINE      ---      ---       #611
      00FF33D3H   LINE      ---      ---       #613
      00FF33D6H   LINE      ---      ---       #614
      00FF33D9H   LINE      ---      ---       #616
      00FF33DCH   LINE      ---      ---       #618
      00FF33E2H   LINE      ---      ---       #620
      00FF33E5H   LINE      ---      ---       #621
      00FF33E5H   LINE      ---      ---       #622
      00FF33E8H   LINE      ---      ---       #624
      00FF33ECH   LINE      ---      ---       #625
      00FF33F0H   LINE      ---      ---       #627
      00FF33F0H   LINE      ---      ---       #628
      00FF33F0H   LINE      ---      ---       #630
      00FF33F2H   LINE      ---      ---       #632
      00FF33F5H   LINE      ---      ---       #633
      00FF1CD2H   LINE      ---      ---       #289
      00FF1CD2H   LINE      ---      ---       #290
      00FF1CD2H   LINE      ---      ---       #291
      00FF1CDAH   LINE      ---      ---       #292
      00FF1CDCH   LINE      ---      ---       #294
      00FF1CEEH   LINE      ---      ---       #295
      00FF1D0CH   LINE      ---      ---       #301
      00FF1D0FH   LINE      ---      ---       #302
      00FF1D13H   LINE      ---      ---       #303
      00FF1D16H   LINE      ---      ---       #304
      00FF1D2AH   LINE      ---      ---       #305
      00FF1D48H   LINE      ---      ---       #311
      00FF1D4CH   LINE      ---      ---       #312
      00FF1D50H   LINE      ---      ---       #313
      00FF1D53H   LINE      ---      ---       #314
      00FF1D55H   LINE      ---      ---       #315
      00FF1D62H   LINE      ---      ---       #316
      00FF1D80H   LINE      ---      ---       #322
      00FF1D8EH   LINE      ---      ---       #323
      00FF1D8EH   LINE      ---      ---       #324
      00FF1D90H   LINE      ---      ---       #325
      00FF1D93H   LINE      ---      ---       #326
      00FF1D96H   LINE      ---      ---       #327
      00FF1D9CH   LINE      ---      ---       #329
      00FF1DA0H   LINE      ---      ---       #330
      00FF1DA0H   LINE      ---      ---       #331
L251 LINKER/LOCATER V4.66.93.0                                                        02/16/2024  15:12:23  PAGE 161


      00FF1DA3H   LINE      ---      ---       #332
      00FF1DA3H   LINE      ---      ---       #334
      00FF1DAAH   LINE      ---      ---       #335

      ---         MODULE    ---      ---       mac_htrp_tx
      00FF238DH   PUBLIC    CODE     ---       mac_htrp_tx_set_state
      00FF27EAH   PUBLIC    CODE     ---       mac_htrp_tx_get_state
      00FF2135H   PUBLIC    CODE     ---       mac_htrp_tx_handler
      00FF17EAH   PUBLIC    CODE     ---       mac_htrp_tx_init
      00FF745CH   PUBLIC    CODE     ---       mac_htrp_tx_set_rf_task
      00FF7410H   PUBLIC    CODE     ---       mac_htrp_tx_burst_tx_done
      00FF37E8H   PUBLIC    CODE     ---       mac_htrp_tx_slot_tx_done
      00FF7287H   PUBLIC    CODE     ---       mac_htrp_tx_slot_rx_done
      00FF751DH   PUBLIC    CODE     ---       mac_htrp_tx_period_burst_tx_done
      00FF734FH   PUBLIC    CODE     ---       mac_htrp_tx_period_burst_rx_done
      0000B5DAH   PUBLIC    EDATA    BYTE      g_mac_htrp_tx_state
      0000B5DBH   PUBLIC    EDATA    BYTE      g_mac_htrp_tx_set_ch_time
      00000080H   SFRSYM    DATA     BYTE      P0

      00FF238DH   BLOCK     CODE     ---       LVL=0
      00FF238DH   LINE      ---      ---       #93
      00FF238DH   LINE      ---      ---       #95
      00FF2391H   LINE      ---      ---       #96
      R11         REGSYM    ---      BYTE      state
      ---         BLOCKEND  ---      ---       LVL=0

      00FF27EAH   BLOCK     CODE     ---       LVL=0
      00FF27EAH   LINE      ---      ---       #98
      00FF27EAH   LINE      ---      ---       #100
      00FF27EEH   LINE      ---      ---       #101
      ---         BLOCKEND  ---      ---       LVL=0

      00FF745CH   BLOCK     CODE     ---       LVL=0
      00FF745CH   LINE      ---      ---       #103
      00FF7464H   LINE      ---      ---       #104
      R13         REGSYM    ---      BYTE      need_rx
      REG=7       REGSYM    ---      ---       time
      00FF7464H   BLOCK     CODE     NEAR LAB  LVL=1
      00FF7464H   LINE      ---      ---       #108
      00FF746AH   LINE      ---      ---       #109
      00FF746FH   LINE      ---      ---       #110
      00FF7473H   LINE      ---      ---       #111
      00FF7477H   LINE      ---      ---       #112
      00FF747DH   LINE      ---      ---       #113
      00FF7493H   LINE      ---      ---       #114
      00FF7495H   LINE      ---      ---       #115
      00FF749AH   LINE      ---      ---       #116
      00FF74A0H   LINE      ---      ---       #117
      00FF74A0H   LINE      ---      ---       #118
      00FF74A6H   LINE      ---      ---       #119
      00FF74B2H   LINE      ---      ---       #120
      00FF74BBH   LINE      ---      ---       #122
      00FF74BFH   LINE      ---      ---       #123
      00FF74C5H   LINE      ---      ---       #124
      00FF74CAH   LINE      ---      ---       #125
      00FF74D0H   LINE      ---      ---       #126
      00FF74D5H   LINE      ---      ---       #127
      00FF74DBH   LINE      ---      ---       #128
      00FF74E7H   LINE      ---      ---       #129
      00FF74EDH   LINE      ---      ---       #130
      00FF74F6H   LINE      ---      ---       #131
      00FF74F6H   LINE      ---      ---       #133
      00FF74FBH   LINE      ---      ---       #135
      00FF7501H   LINE      ---      ---       #136
      00FF7504H   LINE      ---      ---       #137
L251 LINKER/LOCATER V4.66.93.0                                                        02/16/2024  15:12:23  PAGE 162


      00FF7506H   LINE      ---      ---       #138
      00FF7509H   LINE      ---      ---       #139
      00FF750CH   LINE      ---      ---       #140
      00FF750CH   LINE      ---      ---       #141
      DR8         REGSYM    ---      LONG      rtc
      0000B496H   SYMBOL    EDATA    ---       taskControl
      ---         BLOCKEND  CODE     ---       LVL=1
      00FF7518H   LINE      ---      ---       #142
      00FF7518H   LINE      CODE     ---       #142

      00FF7410H   BLOCK     CODE     ---       LVL=0
      00FF7410H   LINE      ---      ---       #145
      00FF7412H   LINE      ---      ---       #146
      00FF7412H   BLOCK     CODE     NEAR LAB  LVL=1
      00FF7412H   LINE      ---      ---       #149
      00FF7414H   LINE      ---      ---       #153
      00FF741AH   LINE      ---      ---       #155
      00FF7424H   LINE      ---      ---       #156
      00FF742CH   LINE      ---      ---       #157
      00FF7436H   LINE      ---      ---       #158
      00FF744EH   LINE      ---      ---       #159
      00FF7455H   LINE      ---      ---       #160
      DR12        REGSYM    ---      DWORD     rtc
      0000B4EAH   SYMBOL    EDATA    ---       time
      ---         BLOCKEND  CODE     ---       LVL=1
      00FF7459H   LINE      ---      ---       #161
      00FF7459H   LINE      CODE     ---       #161

      00FF37E8H   BLOCK     CODE     ---       LVL=0
      00FF37E8H   LINE      ---      ---       #163
      00FF37E8H   LINE      ---      ---       #165
      00FF37EAH   LINE      ---      ---       #167
      ---         BLOCKEND  ---      ---       LVL=0

      00FF7287H   BLOCK     CODE     ---       LVL=0
      00FF7287H   LINE      ---      ---       #170
      00FF7289H   LINE      ---      ---       #171
      00FF7289H   BLOCK     CODE     NEAR LAB  LVL=1
      00FF7289H   LINE      ---      ---       #172
      00FF72ACH   LINE      ---      ---       #177
      00FF72B6H   LINE      ---      ---       #178
      00FF72BDH   LINE      ---      ---       #179
      00FF72D6H   LINE      ---      ---       #180
      00FF72D9H   LINE      ---      ---       #183
      00FF72DFH   LINE      ---      ---       #185
      00FF72DFH   LINE      ---      ---       #187
      00FF72E1H   LINE      ---      ---       #191
      00FF72E7H   LINE      ---      ---       #193
      00FF72EFH   LINE      ---      ---       #194
      00FF72F9H   LINE      ---      ---       #195
      00FF7311H   LINE      ---      ---       #196
      00FF7319H   LINE      ---      ---       #197
      00FF731DH   LINE      ---      ---       #200
      00FF7324H   LINE      ---      ---       #202
      00FF7326H   LINE      ---      ---       #203
      0000B424H   SYMBOL    EDATA    DWORD     now
      DR12        REGSYM    ---      DWORD     rtc
      0000B428H   SYMBOL    EDATA    BYTE      count
      0000B429H   SYMBOL    EDATA    ---       time
      ---         BLOCKEND  CODE     ---       LVL=1
      ---         BLOCKEND  CODE     ---       LVL=0

      00FF751DH   BLOCK     CODE     ---       LVL=0
      00FF751DH   LINE      ---      ---       #207
      00FF751FH   LINE      ---      ---       #209
L251 LINKER/LOCATER V4.66.93.0                                                        02/16/2024  15:12:23  PAGE 163


      00FF7533H   LINE      ---      ---       #210
      00FF7536H   LINE      ---      ---       #211
      00FF7538H   LINE      ---      ---       #212
      00FF7544H   BLOCK     CODE     NEAR LAB  LVL=1
      00FF7544H   LINE      ---      ---       #215
      00FF7547H   LINE      ---      ---       #217
      00FF7549H   LINE      ---      ---       #221
      00FF754FH   LINE      ---      ---       #223
      00FF7559H   LINE      ---      ---       #224
      00FF7561H   LINE      ---      ---       #225
      00FF756BH   LINE      ---      ---       #226
      00FF7583H   LINE      ---      ---       #227
      00FF758BH   LINE      ---      ---       #228
      DR12        REGSYM    ---      DWORD     rtc
      0000B4F4H   SYMBOL    EDATA    ---       time
      ---         BLOCKEND  CODE     ---       LVL=1
      00FF758FH   LINE      ---      ---       #230
      00FF7591H   LINE      ---      ---       #231
      00FF7594H   LINE      ---      ---       #232
      00FF7597H   LINE      ---      ---       #233
      00FF7597H   LINE      ---      ---       #234
      00FF759BH   LINE      ---      ---       #235
      00FF759BH   LINE      CODE     ---       #235

      00FF734FH   BLOCK     CODE     ---       LVL=0
      00FF734FH   LINE      ---      ---       #237
      00FF7351H   LINE      ---      ---       #238
      00FF7351H   BLOCK     CODE     NEAR LAB  LVL=1
      00FF7351H   LINE      ---      ---       #240
      00FF7374H   LINE      ---      ---       #244
      00FF7391H   LINE      ---      ---       #245
      00FF739AH   LINE      ---      ---       #246
      00FF73B3H   LINE      ---      ---       #247
      00FF73B6H   LINE      ---      ---       #250
      00FF73BCH   LINE      ---      ---       #252
      00FF73BCH   LINE      ---      ---       #253
      00FF73BEH   LINE      ---      ---       #257
      00FF73C4H   LINE      ---      ---       #259
      00FF73CCH   LINE      ---      ---       #260
      00FF73D6H   LINE      ---      ---       #261
      00FF73EEH   LINE      ---      ---       #262
      00FF7400H   LINE      ---      ---       #263
      00FF7404H   LINE      ---      ---       #266
      00FF740BH   LINE      ---      ---       #268
      00FF740DH   LINE      ---      ---       #269
      DR12        REGSYM    ---      DWORD     rtc
      0000B433H   SYMBOL    EDATA    DWORD     now
      0000B437H   SYMBOL    EDATA    BYTE      count
      0000B438H   SYMBOL    EDATA    ---       time
      ---         BLOCKEND  CODE     ---       LVL=1
      ---         BLOCKEND  CODE     ---       LVL=0

      00FF2135H   BLOCK     CODE     ---       LVL=0
      00FF2135H   LINE      ---      ---       #273
      00FF2137H   LINE      ---      ---       #274
      00FF2137H   BLOCK     CODE     NEAR LAB  LVL=1
      00FF2137H   LINE      ---      ---       #275
      00FF2137H   LINE      ---      ---       #277
      00FF214FH   LINE      ---      ---       #278
      00FF214FH   LINE      ---      ---       #280
      00FF2152H   LINE      ---      ---       #282
      00FF2155H   LINE      ---      ---       #287
      00FF2167H   LINE      ---      ---       #289
      00FF216AH   LINE      ---      ---       #291
      WR14        REGSYM    ---      WORD      macFunEventQueue
L251 LINKER/LOCATER V4.66.93.0                                                        02/16/2024  15:12:23  PAGE 164


      00FF216AH   BLOCK     CODE     NEAR LAB  LVL=2
      00FF216AH   LINE      ---      ---       #293
      00FF2172H   LINE      ---      ---       #294
      00FF2178H   LINE      ---      ---       #295
      00FF2180H   LINE      ---      ---       #296
      00FF2186H   LINE      ---      ---       #297
      0000B3D1H   SYMBOL    EDATA    ---       cb
      ---         BLOCKEND  CODE     ---       LVL=2
      00FF218DH   BLOCK     CODE     NEAR LAB  LVL=2
      00FF218DH   LINE      ---      ---       #298
      00FF218DH   LINE      ---      ---       #300
      00FF2193H   LINE      ---      ---       #301
      00FF2196H   LINE      ---      ---       #303
      00FF2196H   LINE      ---      ---       #305
      00FF2198H   LINE      ---      ---       #307
      00FF21ABH   LINE      ---      ---       #308
      00FF21ABH   LINE      ---      ---       #309
      DR12        REGSYM    ---      DWORD     rtc
      0000B3D9H   SYMBOL    EDATA    ---       time
      ---         BLOCKEND  CODE     ---       LVL=2
      00FF21ABH   BLOCK     CODE     NEAR LAB  LVL=2
      00FF21ABH   LINE      ---      ---       #312
      00FF21B3H   LINE      ---      ---       #313
      00FF21BCH   LINE      ---      ---       #314
      00FF21C4H   LINE      ---      ---       #315
      00FF21CEH   LINE      ---      ---       #316
      00FF21E6H   LINE      ---      ---       #317
      00FF21EBH   LINE      ---      ---       #318
      DR12        REGSYM    ---      DWORD     rtc
      0000B3D9H   SYMBOL    EDATA    ---       time
      ---         BLOCKEND  CODE     ---       LVL=2
      00FF21EBH   BLOCK     CODE     NEAR LAB  LVL=2
      00FF21EBH   LINE      ---      ---       #320
      00FF21EDH   LINE      ---      ---       #321
      00FF21EDH   LINE      ---      ---       #322
      DR12        REGSYM    ---      DWORD     rtc
      0000B3D9H   SYMBOL    EDATA    ---       time
      ---         BLOCKEND  CODE     ---       LVL=2
      00FF21EDH   BLOCK     CODE     NEAR LAB  LVL=2
      00FF21EDH   LINE      ---      ---       #325
      00FF21F7H   LINE      ---      ---       #326
      00FF2200H   LINE      ---      ---       #327
      00FF2208H   LINE      ---      ---       #328
      00FF2212H   LINE      ---      ---       #329
      00FF222AH   LINE      ---      ---       #330
      00FF223AH   LINE      ---      ---       #331
      DR4         REGSYM    ---      DWORD     rtc
      ---         BLOCKEND  CODE     ---       LVL=2
      00FF223AH   LINE      ---      ---       #333
      00FF223CH   LINE      ---      ---       #334
      00FF223CH   LINE      ---      ---       #335
      00FF223CH   LINE      CODE     ---       #335
      ---         BLOCKEND  CODE     ---       LVL=0

      00FF17EAH   BLOCK     CODE     ---       LVL=0
      00FF17EAH   LINE      ---      ---       #763
      00FF17EAH   LINE      ---      ---       #765
      00FF17EFH   LINE      ---      ---       #766
      ---         BLOCKEND  ---      ---       LVL=0
      00FF223CH   LINE      ---      ---       #338
      00FF2246H   LINE      ---      ---       #339
      00FF224FH   LINE      ---      ---       #340
      00FF2257H   LINE      ---      ---       #341
      00FF2261H   LINE      ---      ---       #342
      00FF2279H   LINE      ---      ---       #343
L251 LINKER/LOCATER V4.66.93.0                                                        02/16/2024  15:12:23  PAGE 165


      00FF2282H   LINE      ---      ---       #344
      00FF2286H   LINE      ---      ---       #346
      00FF2288H   LINE      ---      ---       #347
      00FF2288H   LINE      ---      ---       #348
      00FF228BH   LINE      ---      ---       #349
      00FF228BH   LINE      ---      ---       #350
      00FF228BH   LINE      ---      ---       #352
      00FF228FH   LINE      ---      ---       #354
      00FF2295H   LINE      ---      ---       #356
      00FF2297H   LINE      ---      ---       #358
      00FF2297H   LINE      ---      ---       #359
      00FF229BH   LINE      ---      ---       #360
      00FF22A7H   LINE      ---      ---       #363
      00FF22AAH   LINE      ---      ---       #365
      00FF22AFH   LINE      ---      ---       #367
      00FF22BEH   LINE      ---      ---       #368
      00FF22C0H   LINE      ---      ---       #369
      00FF22C2H   LINE      ---      ---       #370
      00FF22C2H   LINE      ---      ---       #371
      00FF22C4H   LINE      ---      ---       #372
      00FF22C8H   LINE      ---      ---       #373
      00FF22CBH   LINE      ---      ---       #374
      00FF22CBH   LINE      ---      ---       #376
      00FF22D3H   LINE      ---      ---       #377
      00FF22D6H   LINE      ---      ---       #378
      00FF22DAH   LINE      ---      ---       #379
      00FF22E0H   LINE      ---      ---       #380
      00FF22E3H   LINE      ---      ---       #381
      00FF22E6H   LINE      ---      ---       #382
      00FF22E8H   LINE      ---      ---       #383
      00FF22EBH   LINE      ---      ---       #384
      00FF22FAH   LINE      ---      ---       #385
      00FF2300H   LINE      ---      ---       #386
      00FF2300H   LINE      ---      ---       #388
      00FF2302H   LINE      ---      ---       #390
      00FF2302H   LINE      ---      ---       #391
      00FF2306H   LINE      ---      ---       #392
      00FF2312H   LINE      ---      ---       #394
      00FF2315H   LINE      ---      ---       #396
      00FF231BH   LINE      ---      ---       #397
      00FF231EH   LINE      ---      ---       #398
      00FF2326H   LINE      ---      ---       #399
      00FF2329H   LINE      ---      ---       #400
      00FF232CH   LINE      ---      ---       #401
      00FF2330H   LINE      ---      ---       #402
      00FF2339H   LINE      ---      ---       #403
      00FF233CH   LINE      ---      ---       #404
      00FF2343H   LINE      ---      ---       #405
      00FF2346H   LINE      ---      ---       #406
      00FF2346H   LINE      ---      ---       #409
      00FF2348H   LINE      ---      ---       #412
      00FF234CH   LINE      ---      ---       #413
      00FF234CH   LINE      ---      ---       #414
      00FF234CH   LINE      ---      ---       #415
      00FF234EH   LINE      ---      ---       #417
      00FF234EH   LINE      ---      ---       #418
      00FF2351H   LINE      ---      ---       #419
      00FF2353H   LINE      ---      ---       #421
      00FF2356H   LINE      ---      ---       #422
      00FF235DH   LINE      ---      ---       #423
      00FF2363H   LINE      ---      ---       #424
      00FF2368H   LINE      ---      ---       #425
      00FF2370H   LINE      ---      ---       #427
      00FF2370H   LINE      ---      ---       #428
      00FF2370H   LINE      ---      ---       #429
L251 LINKER/LOCATER V4.66.93.0                                                        02/16/2024  15:12:23  PAGE 166


      00FF2372H   LINE      ---      ---       #431
      00FF2374H   LINE      ---      ---       #432
      00FF2376H   LINE      ---      ---       #433
      00FF2376H   LINE      ---      ---       #434
      00FF2378H   LINE      ---      ---       #436
      00FF237BH   LINE      ---      ---       #438
      00FF237EH   LINE      ---      ---       #439
      00FF2382H   LINE      ---      ---       #440
      00FF2384H   LINE      ---      ---       #441
      00FF2384H   LINE      ---      ---       #442
      00FF2384H   LINE      ---      ---       #444
      00FF2387H   LINE      ---      ---       #446
      00FF238AH   LINE      ---      ---       #447

      ---         MODULE    ---      ---       mac_srcmatch
      00FF4509H   PUBLIC    CODE     ---       MAC_SrcMatch_EnableStatusGet
      00FF4688H   PUBLIC    CODE     ---       MAC_SrcMatch_ListFind
      00FF55C5H   PUBLIC    CODE     ---       MAC_SrcMatch_ListFindIdx
      00FFA1FDH   PUBLIC    CODE     ---       MAC_SrcMatch_ListInit
      00FF55E6H   PUBLIC    CODE     ---       MAC_SrcMatch_Enable
      00FF5343H   PUBLIC    CODE     ---       MAC_SrcMatch_ListClear
      00FF5626H   PUBLIC    CODE     ---       MAC_SrcMatch_ListAdd
      00FF5608H   PUBLIC    CODE     ---       MAC_SrcMatch_ListModify
      00FFA265H   PUBLIC    CODE     ---       MAC_SrcMatch_ListFindShort?_
      00FFA2FAH   PUBLIC    CODE     ---       MAC_SrcMatch_ListFindExtended?_
      00FFA3B6H   PUBLIC    CODE     ---       MAC_SrcMatch_ListAddShort
      00FFA4C8H   PUBLIC    CODE     ---       MAC_SrcMatch_ListAddExtended
      00FFA457H   PUBLIC    CODE     ---       MAC_SrcMatch_ListModifyShort
      00FFA56CH   PUBLIC    CODE     ---       MAC_SrcMatch_ListModifyExtended
      0000A926H   PUBLIC    EDATA    ---       gMacSrcCtrl
      0000AC3BH   PUBLIC    EDATA    ---       MacSrcFindEntry
      0000AC3FH   PUBLIC    EDATA    ---       MacSrcAddEntry
      0000AC43H   PUBLIC    EDATA    ---       MacSrcModifyEntry

      00FFA1FDH   BLOCK     CODE     ---       LVL=0
      00FFA1FDH   LINE      ---      ---       #53
      00FFA1FDH   LINE      ---      ---       #54
      00FFA1FDH   BLOCK     CODE     NEAR LAB  LVL=1
      00FFA1FDH   LINE      ---      ---       #55
      00FFA202H   LINE      ---      ---       #59
      00FFA206H   LINE      ---      ---       #60
      00FFA20AH   LINE      ---      ---       #61
      00FFA20CH   LINE      ---      ---       #63
      00FFA21AH   LINE      ---      ---       #64
      00FFA222H   LINE      ---      ---       #65
      00FFA229H   LINE      ---      ---       #66
      00FFA22BH   LINE      ---      ---       #68
      00FFA23EH   LINE      ---      ---       #69
      00FFA24BH   LINE      ---      ---       #70
      00FFA25DH   LINE      ---      ---       #71
      0000B5EBH   SYMBOL    EDATA    BYTE      listIdx
      R7          REGSYM    ---      BYTE      i
      ---         BLOCKEND  CODE     ---       LVL=1
      00FFA264H   LINE      ---      ---       #83
      00FFA264H   LINE      CODE     ---       #83

      00FF55E6H   BLOCK     CODE     ---       LVL=0
      00FF55E6H   LINE      ---      ---       #86
      00FF55EAH   LINE      ---      ---       #87
      R15         REGSYM    ---      BYTE      Enable
      00FF55EAH   BLOCK     CODE     NEAR LAB  LVL=1
      00FF55EAH   LINE      ---      ---       #89
      00FF55EDH   LINE      ---      ---       #91
      R7          REGSYM    ---      BYTE      Pannum
      ---         BLOCKEND  CODE     ---       LVL=1
L251 LINKER/LOCATER V4.66.93.0                                                        02/16/2024  15:12:23  PAGE 167


      00FF55F3H   LINE      ---      ---       #95
      00FF55F3H   LINE      CODE     ---       #95

      00FF4509H   BLOCK     CODE     ---       LVL=0
      00FF4509H   LINE      ---      ---       #98
      00FF450BH   LINE      ---      ---       #99
      00FF450BH   BLOCK     CODE     NEAR LAB  LVL=1
      00FF450BH   LINE      ---      ---       #103
      00FF4511H   LINE      ---      ---       #105
      00FF4515H   LINE      ---      ---       #106
      00FF4517H   LINE      ---      ---       #109
      00FF451BH   LINE      ---      ---       #110
      00FF451BH   LINE      ---      ---       #112
      R15         REGSYM    ---      BYTE      Pannum
      ---         BLOCKEND  CODE     ---       LVL=1
      00FF4521H   LINE      ---      ---       #116
      00FF4521H   LINE      CODE     ---       #116

      00FF5343H   BLOCK     CODE     ---       LVL=0
      00FF5343H   LINE      ---      ---       #120
      00FF534BH   LINE      ---      ---       #121
      R14         REGSYM    ---      BYTE      all
      R15         REGSYM    ---      BYTE      type
      REG=6       REGSYM    ---      ---       addr
      00FF534BH   BLOCK     CODE     NEAR LAB  LVL=1
      00FF534BH   LINE      ---      ---       #122
      00FF5350H   LINE      ---      ---       #123
      00FF5357H   LINE      ---      ---       #125
      00FF535DH   LINE      ---      ---       #127
      00FF5361H   LINE      ---      ---       #129
      00FF5374H   LINE      ---      ---       #130
      00FF5377H   LINE      ---      ---       #132
      00FF538EH   LINE      ---      ---       #133
      00FF53A0H   LINE      ---      ---       #134
      00FF53A2H   LINE      ---      ---       #135
      00FF53A9H   LINE      ---      ---       #137
      00FF53BCH   LINE      ---      ---       #138
      00FF53C3H   LINE      ---      ---       #140
      00FF53DAH   LINE      ---      ---       #141
      00FF53ECH   LINE      ---      ---       #142
      00FF53EEH   LINE      ---      ---       #146
      00FF53FFH   LINE      ---      ---       #148
      00FF5405H   LINE      ---      ---       #150
      00FF5419H   LINE      ---      ---       #152
      00FF5419H   LINE      ---      ---       #153
      00FF5436H   LINE      ---      ---       #154
      00FF5438H   LINE      ---      ---       #155
      00FF5438H   LINE      ---      ---       #156
      00FF5455H   LINE      ---      ---       #157
      00FF5457H   LINE      ---      ---       #158
      00FF5457H   LINE      ---      ---       #159
      00FF5474H   LINE      ---      ---       #160
      00FF5476H   LINE      ---      ---       #161
      00FF5476H   LINE      ---      ---       #162
      00FF5493H   LINE      ---      ---       #163
      00FF5493H   LINE      ---      ---       #165
      00FF5493H   LINE      ---      ---       #166
      00FF5493H   LINE      ---      ---       #167
      00FF5493H   LINE      ---      ---       #169
      00FF54ACH   LINE      ---      ---       #171
      00FF54E0H   LINE      ---      ---       #172
      00FF54E2H   LINE      ---      ---       #174
      00FF54E9H   LINE      ---      ---       #176
      00FF54FDH   LINE      ---      ---       #178
      00FF54FDH   LINE      ---      ---       #179
L251 LINKER/LOCATER V4.66.93.0                                                        02/16/2024  15:12:23  PAGE 168


      00FF551AH   LINE      ---      ---       #180
      00FF551CH   LINE      ---      ---       #181
      00FF551CH   LINE      ---      ---       #182
      00FF5539H   LINE      ---      ---       #183
      00FF553BH   LINE      ---      ---       #184
      00FF553BH   LINE      ---      ---       #185
      00FF5558H   LINE      ---      ---       #186
      00FF555AH   LINE      ---      ---       #187
      00FF555AH   LINE      ---      ---       #188
      00FF5577H   LINE      ---      ---       #189
      00FF5577H   LINE      ---      ---       #191
      00FF5577H   LINE      ---      ---       #192
      00FF5577H   LINE      ---      ---       #193
      00FF5577H   LINE      ---      ---       #195
      00FF558EH   LINE      ---      ---       #197
      00FF55C2H   LINE      ---      ---       #198
      00FF55C2H   LINE      ---      ---       #200
      00FF55C2H   LINE      ---      ---       #201
      0000B5DCH   SYMBOL    EDATA    BYTE      listIdx
      0000B5DDH   SYMBOL    EDATA    BYTE      Pannum
      ---         BLOCKEND  CODE     ---       LVL=1
      00FF55C2H   LINE      ---      ---       #202
      00FF55C2H   LINE      CODE     ---       #202

      00FFA265H   BLOCK     CODE     ---       LVL=0
      00FFA265H   LINE      ---      ---       #205
      00FFA26DH   LINE      ---      ---       #206
      REG=3       REGSYM    ---      ---       addr
      00FFA26DH   BLOCK     CODE     NEAR LAB  LVL=1
      00FFA26DH   LINE      ---      ---       #210
      00FFA26FH   LINE      ---      ---       #213
      00FFA275H   LINE      ---      ---       #215
      00FFA279H   LINE      ---      ---       #216
      00FFA27BH   LINE      ---      ---       #219
      00FFA280H   LINE      ---      ---       #220
      00FFA280H   LINE      ---      ---       #222
      00FFA294H   LINE      ---      ---       #224
      00FFA297H   LINE      ---      ---       #226
      00FFA2A5H   LINE      ---      ---       #228
      00FFA2B8H   LINE      ---      ---       #230
      00FFA2C2H   LINE      ---      ---       #232
      00FFA2C7H   LINE      ---      ---       #233
      00FFA2C7H   LINE      ---      ---       #236
      00FFA2E0H   LINE      ---      ---       #237
      00FFA2EFH   LINE      ---      ---       #239
      00000000H   STKSYM    ---      BYTE      listIdx
      FFFFFFFCH   STKSYM    ---      DWORD     bitMask
      REG=4       REGSYM    ---      ---       smaddr
      REG=7       REGSYM    ---      ---       inaddr
      R13         REGSYM    ---      BYTE      Pannum
      ---         BLOCKEND  CODE     ---       LVL=1
      00FFA2F1H   LINE      ---      ---       #240
      00FFA2F1H   LINE      CODE     ---       #240

      00FFA2FAH   BLOCK     CODE     ---       LVL=0
      00FFA2FAH   LINE      ---      ---       #243
      00FFA302H   LINE      ---      ---       #244
      REG=3       REGSYM    ---      ---       addr
      00FFA302H   BLOCK     CODE     NEAR LAB  LVL=1
      00FFA302H   LINE      ---      ---       #248
      00FFA304H   LINE      ---      ---       #251
      00FFA30AH   LINE      ---      ---       #253
      00FFA30EH   LINE      ---      ---       #254
      00FFA310H   LINE      ---      ---       #257
      00FFA315H   LINE      ---      ---       #258
L251 LINKER/LOCATER V4.66.93.0                                                        02/16/2024  15:12:23  PAGE 169


      00FFA315H   LINE      ---      ---       #260
      00FFA329H   LINE      ---      ---       #262
      00FFA32CH   LINE      ---      ---       #264
      00FFA33AH   LINE      ---      ---       #266
      00FFA354H   LINE      ---      ---       #268
      00FFA37EH   LINE      ---      ---       #271
      00FFA383H   LINE      ---      ---       #272
      00FFA383H   LINE      ---      ---       #275
      00FFA39CH   LINE      ---      ---       #276
      00FFA3ABH   LINE      ---      ---       #278
      00000000H   STKSYM    ---      BYTE      listIdx
      FFFFFFFCH   STKSYM    ---      DWORD     bitMask
      FFFFFFFAH   STKSYM    ---      ---       smaddr
      REG=7       REGSYM    ---      ---       inaddr
      R13         REGSYM    ---      BYTE      Pannum
      ---         BLOCKEND  CODE     ---       LVL=1
      00FFA3ADH   LINE      ---      ---       #279
      00FFA3ADH   LINE      CODE     ---       #279

      00FF55C5H   BLOCK     CODE     ---       LVL=0
      00FF55C5H   LINE      ---      ---       #418
      00FF55CDH   LINE      ---      ---       #420
      00FF55D5H   LINE      ---      ---       #421
      00FF55E1H   LINE      ---      ---       #422
      R15         REGSYM    ---      BYTE      type
      REG=6       REGSYM    ---      ---       addr
      ---         BLOCKEND  ---      ---       LVL=0

      00FF4688H   BLOCK     CODE     ---       LVL=0
      00FF4688H   LINE      ---      ---       #425
      00FF4690H   LINE      ---      ---       #427
      00FF4694H   LINE      ---      ---       #429
      00FF4697H   LINE      ---      ---       #430
      00FF4697H   LINE      ---      ---       #432
      00FF46A8H   LINE      ---      ---       #433
      R13         REGSYM    ---      BYTE      type
      REG=7       REGSYM    ---      ---       addr
      ---         BLOCKEND  ---      ---       LVL=0

      00FFA3B6H   BLOCK     CODE     ---       LVL=0
      00FFA3B6H   LINE      ---      ---       #437
      00FFA3BCH   LINE      ---      ---       #438
      REG=7       REGSYM    ---      ---       addr
      00FFA3BCH   BLOCK     CODE     NEAR LAB  LVL=1
      00FFA3BCH   LINE      ---      ---       #439
      00FFA3C1H   LINE      ---      ---       #440
      00FFA3C6H   LINE      ---      ---       #442
      00FFA3C9H   LINE      ---      ---       #444
      00FFA3ECH   LINE      ---      ---       #446
      00FFA409H   LINE      ---      ---       #447
      00FFA433H   LINE      ---      ---       #448
      00FFA439H   LINE      ---      ---       #450
      00FFA43DH   LINE      ---      ---       #451
      00FFA451H   LINE      ---      ---       #454
      0000B5ECH   SYMBOL    EDATA    BYTE      listIdx
      R13         REGSYM    ---      BYTE      Pannum
      ---         BLOCKEND  CODE     ---       LVL=1
      00FFA452H   LINE      ---      ---       #455
      00FFA452H   LINE      CODE     ---       #455

      00FFA4C8H   BLOCK     CODE     ---       LVL=0
      00FFA4C8H   LINE      ---      ---       #458
      00FFA4CEH   LINE      ---      ---       #459
      REG=7       REGSYM    ---      ---       addr
      00FFA4CEH   BLOCK     CODE     NEAR LAB  LVL=1
L251 LINKER/LOCATER V4.66.93.0                                                        02/16/2024  15:12:23  PAGE 170


      00FFA4CEH   LINE      ---      ---       #460
      00FFA4D3H   LINE      ---      ---       #461
      00FFA4D8H   LINE      ---      ---       #463
      00FFA4DBH   LINE      ---      ---       #465
      00FFA4FEH   LINE      ---      ---       #467
      00FFA51EH   LINE      ---      ---       #468
      00FFA548H   LINE      ---      ---       #469
      00FFA54EH   LINE      ---      ---       #471
      00FFA552H   LINE      ---      ---       #472
      00FFA566H   LINE      ---      ---       #475
      0000B5EDH   SYMBOL    EDATA    BYTE      listIdx
      R13         REGSYM    ---      BYTE      Pannum
      ---         BLOCKEND  CODE     ---       LVL=1
      00FFA567H   LINE      ---      ---       #476
      00FFA567H   LINE      CODE     ---       #476

      00FF5626H   BLOCK     CODE     ---       LVL=0
      00FF5626H   LINE      ---      ---       #519
      00FF562EH   LINE      ---      ---       #521
      00FF5636H   LINE      ---      ---       #522
      00FF5642H   LINE      ---      ---       #523
      R15         REGSYM    ---      BYTE      type
      REG=6       REGSYM    ---      ---       addr
      ---         BLOCKEND  ---      ---       LVL=0

      00FFA457H   BLOCK     CODE     ---       LVL=0
      00FFA457H   LINE      ---      ---       #526
      00FFA45BH   LINE      ---      ---       #527
      R15         REGSYM    ---      BYTE      listidx
      00FFA45BH   BLOCK     CODE     NEAR LAB  LVL=1
      00FFA45BH   LINE      ---      ---       #528
      00FFA460H   LINE      ---      ---       #530
      00FFA474H   LINE      ---      ---       #532
      00FFA474H   LINE      ---      ---       #533
      00FFA486H   LINE      ---      ---       #534
      00FFA488H   LINE      ---      ---       #535
      00FFA488H   LINE      ---      ---       #536
      00FFA49AH   LINE      ---      ---       #537
      00FFA49CH   LINE      ---      ---       #538
      00FFA49CH   LINE      ---      ---       #539
      00FFA4AEH   LINE      ---      ---       #540
      00FFA4B0H   LINE      ---      ---       #541
      00FFA4B0H   LINE      ---      ---       #542
      00FFA4C5H   LINE      ---      ---       #543
      00FFA4C5H   LINE      ---      ---       #545
      00FFA4C5H   LINE      ---      ---       #546
      00FFA4C5H   LINE      ---      ---       #547
      R6          REGSYM    ---      BYTE      Pannum
      ---         BLOCKEND  CODE     ---       LVL=1
      00FFA4C5H   LINE      ---      ---       #548
      00FFA4C5H   LINE      CODE     ---       #548

      00FFA56CH   BLOCK     CODE     ---       LVL=0
      00FFA56CH   LINE      ---      ---       #551
      00FFA570H   LINE      ---      ---       #552
      R15         REGSYM    ---      BYTE      listidx
      00FFA570H   BLOCK     CODE     NEAR LAB  LVL=1
      00FFA570H   LINE      ---      ---       #553
      00FFA575H   LINE      ---      ---       #555
      00FFA589H   LINE      ---      ---       #557
      00FFA589H   LINE      ---      ---       #558
      00FFA59BH   LINE      ---      ---       #559
      00FFA59DH   LINE      ---      ---       #560
      00FFA59DH   LINE      ---      ---       #561
      00FFA5AFH   LINE      ---      ---       #562
L251 LINKER/LOCATER V4.66.93.0                                                        02/16/2024  15:12:23  PAGE 171


      00FFA5B1H   LINE      ---      ---       #563
      00FFA5B1H   LINE      ---      ---       #564
      00FFA5C3H   LINE      ---      ---       #565
      00FFA5C5H   LINE      ---      ---       #566
      00FFA5C5H   LINE      ---      ---       #567
      00FFA5DAH   LINE      ---      ---       #568
      00FFA5DAH   LINE      ---      ---       #570
      00FFA5DAH   LINE      ---      ---       #571
      00FFA5DAH   LINE      ---      ---       #572
      R6          REGSYM    ---      BYTE      Pannum
      ---         BLOCKEND  CODE     ---       LVL=1
      00FFA5DAH   LINE      ---      ---       #573
      00FFA5DAH   LINE      CODE     ---       #573

      00FF5608H   BLOCK     CODE     ---       LVL=0
      00FF5608H   LINE      ---      ---       #621
      00FF560EH   LINE      ---      ---       #623
      00FF5616H   LINE      ---      ---       #624
      00FF5623H   LINE      ---      ---       #625
      R15         REGSYM    ---      BYTE      type
      R14         REGSYM    ---      BYTE      listidx
      ---         BLOCKEND  ---      ---       LVL=0

      ---         MODULE    ---      ---       mac_rx_scan

      ---         MODULE    ---      ---       msg_ctrl
      00FF13B6H   PUBLIC    CODE     ---       MSG_HdlrInit
      00FF17C9H   PUBLIC    CODE     ---       MSG_Hdlr
      00FFA5DDH   PUBLIC    CODE     ---       MSG_Isr?_
      00FF398BH   PUBLIC    CODE     ---       MSG_Idle
      00FF3FEEH   PUBLIC    CODE     ---       MSG_OutMsgForceHandle
      00FF39F8H   PUBLIC    CODE     ---       MSG_OutStateSet
      00FFA628H   PUBLIC    CODE     ---       MSG_EventClr
      00FF1724H   PUBLIC    CODE     ---       MSG_InMsgProc
      00FF3A01H   PUBLIC    CODE     ---       MSG_OutMsgToBmu
      00FF39CEH   PUBLIC    CODE     ---       MSG_OutMsgProc
      0000B578H   PUBLIC    EDATA    ---       sMsgCtrl
      000000A8H.7 SFRSYM    DATA     BIT       EA

      00FF39F8H   BLOCK     CODE     ---       LVL=0
      00FF39F8H   LINE      ---      ---       #89
      00FF39F8H   LINE      ---      ---       #93
      00FF39FAH   LINE      ---      ---       #94
      00FF39FEH   LINE      ---      ---       #95
      00FF3A00H   LINE      ---      ---       #96
      WR6         REGSYM    ---      INT       outMsgState
      ---         BLOCKEND  ---      ---       LVL=0

      00FFA628H   BLOCK     CODE     ---       LVL=0
      00FFA628H   LINE      ---      ---       #98
      00FFA628H   LINE      ---      ---       #102
      00FFA62AH   LINE      ---      ---       #103
      00FFA636H   LINE      ---      ---       #104
      00FFA638H   LINE      ---      ---       #105
      WR6         REGSYM    ---      INT       inType
      ---         BLOCKEND  ---      ---       LVL=0

      00FF13B6H   BLOCK     CODE     ---       LVL=0
      00FF13B6H   LINE      ---      ---       #127
      00FF13B6H   LINE      ---      ---       #130
      00FF13B9H   LINE      ---      ---       #133
      00FF13BFH   LINE      ---      ---       #134
      00FF13C3H   LINE      ---      ---       #135
      00FF13C8H   LINE      ---      ---       #139
      ---         BLOCKEND  ---      ---       LVL=0
L251 LINKER/LOCATER V4.66.93.0                                                        02/16/2024  15:12:23  PAGE 172



      00FF1724H   BLOCK     CODE     ---       LVL=0
      00FF1724H   LINE      ---      ---       #234
      00FF1728H   LINE      ---      ---       #235
      00FF1728H   BLOCK     CODE     NEAR LAB  LVL=1
      00FF1728H   LINE      ---      ---       #245
      00FF172CH   LINE      ---      ---       #249
      00FF1734H   LINE      ---      ---       #250
      00FF173FH   LINE      ---      ---       #251
      00FF1741H   LINE      ---      ---       #254
      00FF1741H   LINE      ---      ---       #255
      00FF174DH   LINE      ---      ---       #256
      00FF175EH   LINE      ---      ---       #259
      00FF175EH   LINE      ---      ---       #266
      00FF1763H   LINE      ---      ---       #268
      00FF1765H   LINE      ---      ---       #272
      00FF1765H   LINE      ---      ---       #273
      00FF1765H   LINE      ---      ---       #283
      00FF1772H   LINE      ---      ---       #285
      00FF1774H   LINE      ---      ---       #288
      00FF1774H   LINE      ---      ---       #289
      00FF1776H   LINE      ---      ---       #290
      00FF1776H   LINE      ---      ---       #291
      R15         REGSYM    ---      BYTE      qIdx
      REG=6       REGSYM    ---      ---       pQPayload
      REG=6       REGSYM    ---      ---       pRuciHead
      0000B5DEH   SYMBOL    EDATA    WORD      cmdLength
      ---         BLOCKEND  CODE     ---       LVL=1
      00FF1776H   LINE      ---      ---       #297
      00FF1776H   LINE      CODE     ---       #297

      00FF3A01H   BLOCK     CODE     ---       LVL=0
      00FF3A01H   LINE      ---      ---       #300
      00FF3A03H   LINE      ---      ---       #301
      00FF3A03H   BLOCK     CODE     NEAR LAB  LVL=1
      00FF3A03H   LINE      ---      ---       #314
      00FF3A0BH   LINE      ---      ---       #317
      00FF3A14H   LINE      ---      ---       #364
      00FF3A1BH   LINE      ---      ---       #369
      00FF3A21H   LINE      ---      ---       #373
      REG=7       REGSYM    ---      ---       pQPayload
      WR4         REGSYM    ---      WORD      msgLength
      R15         REGSYM    ---      BYTE      retValue
      ---         BLOCKEND  CODE     ---       LVL=1
      00FF3A28H   LINE      ---      ---       #375
      00FF3A28H   LINE      CODE     ---       #375

      00FF39CEH   BLOCK     CODE     ---       LVL=0
      00FF39CEH   LINE      ---      ---       #378
      00FF39CEH   LINE      ---      ---       #380
      00FF39E0H   LINE      ---      ---       #382
      00FF39E0H   LINE      ---      ---       #384
      00FF39E4H   LINE      ---      ---       #386
      00FF39E4H   LINE      ---      ---       #389
      00FF39ECH   LINE      ---      ---       #390
      00FF39ECH   LINE      ---      ---       #393
      00FF39F2H   LINE      ---      ---       #396
      00FF39F4H   LINE      ---      ---       #398
      00FF39F4H   LINE      ---      ---       #400
      00FF39F4H   LINE      ---      ---       #403
      00FF39F4H   LINE      ---      ---       #405
      00FF39F4H   LINE      ---      ---       #406
      00FF39F7H   LINE      ---      ---       #407
      00FF39F7H   LINE      ---      ---       #408
      00FF39F7H   LINE      ---      ---       #409
L251 LINKER/LOCATER V4.66.93.0                                                        02/16/2024  15:12:23  PAGE 173


      ---         BLOCKEND  ---      ---       LVL=0

      00FF17C9H   BLOCK     CODE     ---       LVL=0
      00FF17C9H   LINE      ---      ---       #411
      00FF17C9H   LINE      ---      ---       #437
      00FF17CCH   LINE      ---      ---       #440
      00FF17D6H   LINE      ---      ---       #443
      00FF17DDH   LINE      ---      ---       #446
      00FF17DFH   LINE      ---      ---       #447
      ---         BLOCKEND  ---      ---       LVL=0

      00FFA5DDH   BLOCK     CODE     ---       LVL=0
      00FFA5DDH   LINE      ---      ---       #455
      00FFA5DFH   LINE      ---      ---       #460
      00FFA5E2H   LINE      ---      ---       #461
      00FFA5EDH   LINE      ---      ---       #464
      00FFA5F2H   LINE      ---      ---       #465
      00FFA5FAH   LINE      ---      ---       #468
      00FFA5FFH   LINE      ---      ---       #469
      R4          REGSYM    ---      BYTE      statusBmu
      00FFA5FFH   BLOCK     CODE     NEAR LAB  LVL=1
      00FFA5FFH   LINE      ---      ---       #472
      00FFA60FH   LINE      ---      ---       #473
      R5          REGSYM    ---      BYTE      regValue
      ---         BLOCKEND  CODE     ---       LVL=1
      00FFA61FH   LINE      ---      ---       #474
      00FFA61FH   LINE      ---      ---       #477
      00FFA627H   LINE      ---      ---       #490
      00FFA627H   LINE      CODE     ---       #490

      00FF398BH   BLOCK     CODE     ---       LVL=0
      00FF398BH   LINE      ---      ---       #492
      00FF398DH   LINE      ---      ---       #493
      00FF398DH   BLOCK     CODE     NEAR LAB  LVL=1
      00FF398DH   LINE      ---      ---       #497
      00FF399DH   LINE      ---      ---       #498
      00FF39A0H   LINE      ---      ---       #501
      00FF39A2H   LINE      ---      ---       #503
      00FF39A8H   LINE      ---      ---       #504
      00FF39ABH   LINE      ---      ---       #505
      00FF39B3H   LINE      ---      ---       #507
      WR14        REGSYM    ---      INT       qIdx
      ---         BLOCKEND  CODE     ---       LVL=1
      00FF39B5H   LINE      ---      ---       #508
      00FF39B5H   LINE      CODE     ---       #508

      00FF3FEEH   BLOCK     CODE     ---       LVL=0
      00FF3FEEH   LINE      ---      ---       #510
      00FF3FF0H   LINE      ---      ---       #511
      00FF3FF0H   BLOCK     CODE     NEAR LAB  LVL=1
      00FF3FF0H   LINE      ---      ---       #515
      00FF3FF2H   LINE      ---      ---       #516
      00FF3FF4H   LINE      ---      ---       #517
      R15         REGSYM    ---      BYTE      msgState
      ---         BLOCKEND  CODE     ---       LVL=1
      00FF3FFBH   LINE      ---      ---       #518
      00FF3FFBH   LINE      CODE     ---       #518

      ---         MODULE    ---      ---       hal
      00FF5F91H   PUBLIC    CODE     ---       HAL_IsBleHw
      00FFA639H   PUBLIC    CODE     ---       HAL_IsWisunHw
      00FFA64EH   PUBLIC    CODE     ---       HAL_IsZigbeeHw
      00FFA684H   PUBLIC    CODE     ---       HAL_IsSubgRf
      00FFA7F8H   PUBLIC    CODE     ---       HAL_Is2gRf
      00FF5F60H   PUBLIC    CODE     ---       HAL_HwModeGet
L251 LINKER/LOCATER V4.66.93.0                                                        02/16/2024  15:12:23  PAGE 174


      00FFA807H   PUBLIC    CODE     ---       HAL_ClkModeSet
      00FFA84FH   PUBLIC    CODE     ---       HAL_HwModeInit?_
      00FFAF77H   PUBLIC    CODE     ---       HAL_Watchdog
      00FFADC2H   PUBLIC    CODE     ---       HAL_PktTypeSet

      00FFADC2H   BLOCK     CODE     ---       LVL=0
      00FFADC2H   LINE      ---      ---       #35
      00FFADC2H   LINE      ---      ---       #36
      00FFADC2H   BLOCK     CODE     NEAR LAB  LVL=1
      00FFADC2H   LINE      ---      ---       #46
      00FFADCFH   LINE      ---      ---       #47
      00FFADD4H   LINE      ---      ---       #50
      00FFADD6H   LINE      ---      ---       #51
      00FFADF0H   LINE      ---      ---       #52
      00FFAE0BH   LINE      ---      ---       #59
      00FFAE0FH   LINE      ---      ---       #60
      00FFAE1AH   LINE      ---      ---       #63
      R10         REGSYM    ---      BYTE      regValue
      ---         BLOCKEND  CODE     ---       LVL=1
      00FFAE26H   LINE      ---      ---       #64
      00FFAE26H   LINE      CODE     ---       #64

      00FF5F91H   BLOCK     CODE     ---       LVL=0
      00FF5F91H   LINE      ---      ---       #70
      00FF5F91H   LINE      ---      ---       #72
      00FF5FA3H   LINE      ---      ---       #73
      ---         BLOCKEND  ---      ---       LVL=0

      00FFA639H   BLOCK     CODE     ---       LVL=0
      00FFA639H   LINE      ---      ---       #77
      00FFA639H   LINE      ---      ---       #79
      00FFA64DH   LINE      ---      ---       #80
      ---         BLOCKEND  ---      ---       LVL=0

      00FFA64EH   BLOCK     CODE     ---       LVL=0
      00FFA64EH   LINE      ---      ---       #84
      00FFA64EH   LINE      ---      ---       #86
      00FFA662H   LINE      ---      ---       #87
      ---         BLOCKEND  ---      ---       LVL=0

      00FFA663H   BLOCK     CODE     ---       LVL=0
      00FFA684H   LINE      ---      ---       #98
      00FFA684H   LINE      ---      ---       #100
      00FFA691H   LINE      ---      ---       #101
      00FFA663H   SYMBOL    CODE     NEAR LAB  ?L?COM0012
      ---         BLOCKEND  ---      ---       LVL=0

      00FFA7F8H   BLOCK     CODE     ---       LVL=0
      00FFA7F8H   LINE      ---      ---       #105
      00FFA7F8H   LINE      ---      ---       #107
      00FFA806H   LINE      ---      ---       #108
      ---         BLOCKEND  ---      ---       LVL=0

      00FFA807H   BLOCK     CODE     ---       LVL=0
      00FFA807H   LINE      ---      ---       #111
      00FFA809H   LINE      ---      ---       #115
      00FFA811H   LINE      ---      ---       #117
      00FFA811H   LINE      ---      ---       #119
      00FFA811H   LINE      ---      ---       #120
      00FFA81DH   LINE      ---      ---       #121
      00FFA829H   LINE      ---      ---       #122
      00FFA82AH   LINE      ---      ---       #124
      00FFA82CH   LINE      ---      ---       #127
      00FFA82CH   LINE      ---      ---       #128
      00FFA838H   LINE      ---      ---       #129
L251 LINKER/LOCATER V4.66.93.0                                                        02/16/2024  15:12:23  PAGE 175


      00FFA844H   LINE      ---      ---       #133
      00FFA84AH   LINE      ---      ---       #134
      00FFA84AH   LINE      ---      ---       #136
      00FFA84AH   LINE      ---      ---       #137
      00FFA84EH   LINE      ---      ---       #138
      WR4         REGSYM    ---      INT       clkMode
      ---         BLOCKEND  ---      ---       LVL=0

      00FF5F60H   BLOCK     CODE     ---       LVL=0
      00FF5F60H   LINE      ---      ---       #140
      00FF5F60H   LINE      ---      ---       #142
      00FF5F67H   LINE      ---      ---       #162
      ---         BLOCKEND  ---      ---       LVL=0

      00FFA84FH   BLOCK     CODE     ---       LVL=0
      00FFA84FH   LINE      ---      ---       #269
      00FFA859H   LINE      ---      ---       #276
      WR12        REGSYM    ---      INT       halType
      FFFFFFFBH   STKSYM    ---      INT       rfkBand
      WR14        REGSYM    ---      INT       clkMode
      FFFFFFF3H   STKSYM    ---      INT       rxqOpMode
      00FFA859H   BLOCK     CODE     NEAR LAB  LVL=1
      00FFA859H   LINE      ---      ---       #290
      00FFA85CH   LINE      ---      ---       #294
      00FFA866H   LINE      ---      ---       #298
      00FFA86AH   LINE      ---      ---       #299
      00FFA882H   LINE      ---      ---       #300
      00FFA892H   LINE      ---      ---       #301
      00FFA89EH   LINE      ---      ---       #304
      00FFA8A2H   LINE      ---      ---       #306
      00FFA8A6H   LINE      ---      ---       #307
      00FFA8A8H   LINE      ---      ---       #311
      00FFA8B4H   LINE      ---      ---       #312
      00FFA8B4H   LINE      ---      ---       #315
      00FFA8BCH   LINE      ---      ---       #318
      00FFA8C0H   LINE      ---      ---       #321
      00FFA8DEH   LINE      ---      ---       #325
      00FFA8E0H   LINE      ---      ---       #328
      00FFA8ECH   LINE      ---      ---       #330
      00FFA8ECH   LINE      ---      ---       #332
      00FFA8ECH   LINE      ---      ---       #333
      00FFA8FCH   LINE      ---      ---       #336
      00FFA8FEH   LINE      ---      ---       #338
      00FFA8FEH   LINE      ---      ---       #339
      00FFA918H   LINE      ---      ---       #341
      00FFA918H   LINE      ---      ---       #343
      00FFA918H   LINE      ---      ---       #346
      00FFA91EH   LINE      ---      ---       #349
      00FFA924H   LINE      ---      ---       #352
      00FFA92AH   LINE      ---      ---       #355
      00FFA939H   LINE      ---      ---       #358
      00FFA958H   LINE      ---      ---       #362
      00FFA95EH   LINE      ---      ---       #364
      00FFA969H   LINE      ---      ---       #365
      00FFA988H   LINE      ---      ---       #366
      00FFA993H   LINE      ---      ---       #367
      00FFA9B2H   LINE      ---      ---       #368
      00FFA9B2H   LINE      ---      ---       #372
      00FFA9BDH   LINE      ---      ---       #375
      00FFA9CAH   LINE      ---      ---       #379
      00FFA9D4H   LINE      ---      ---       #383
      00FFA9DFH   LINE      ---      ---       #386
      00FFA9ECH   LINE      ---      ---       #389
      00FFA9F4H   LINE      ---      ---       #393
      00FFA9FCH   LINE      ---      ---       #394
L251 LINKER/LOCATER V4.66.93.0                                                        02/16/2024  15:12:23  PAGE 176


      00FFAA01H   LINE      ---      ---       #428
      FFFFFFFFH   STKSYM    ---      INT       clkModeCurrent
      FFFFFFFDH   STKSYM    ---      INT       rfBandTemp
      WR4         REGSYM    ---      INT       rfkBandTemp
      WR2         REGSYM    ---      INT       modemTemp
      ---         BLOCKEND  CODE     ---       LVL=1
      00FFAA01H   LINE      ---      ---       #430
      00FFAA01H   LINE      CODE     ---       #430

      00FFAF77H   BLOCK     CODE     ---       LVL=0
      00FFAF77H   LINE      ---      ---       #433
      00FFAF77H   LINE      ---      ---       #448
      ---         BLOCKEND  ---      ---       LVL=0

      ---         MODULE    ---      ---       hal_cfg
      00FF1097H   PUBLIC    HCONST   ---       sHalFwCfg
      00FF10A5H   PUBLIC    HCONST   ---       sHalHwCfgBLE
      00FF10DBH   PUBLIC    HCONST   ---       sHalHwCfgWisun
      00FF1111H   PUBLIC    HCONST   ---       sHalHwCfgZigbee

      ---         MODULE    ---      ---       hal_mac
      00FF47D1H   PUBLIC    CODE     ---       HALMAC_WhitenSet
      00FF47BAH   PUBLIC    CODE     ---       HALMAC_CrcInitDftGet
      00FF47FCH   PUBLIC    CODE     ---       HALMAC_CrcSet
      00FF465EH   PUBLIC    CODE     ---       HALMAC_TxPreambleSet
      00FF4679H   PUBLIC    CODE     ---       HALMAC_RxPreambleSet
      00FF4135H   PUBLIC    CODE     ---       HALMAC_TxSfdSet
      00FF45A6H   PUBLIC    CODE     ---       HALMAC_RxSfdSet
      00FF250BH   PUBLIC    CODE     ---       HALMAC_PhrSet
      00FFA6ECH   PUBLIC    CODE     ---       HALMAC_RxMhrRptLenSet
      00FF36A6H   PUBLIC    CODE     ---       HALMAC_RxMaxPktLenSet
      00FFAD4EH   PUBLIC    CODE     ---       HALMAC_PktBitEndianSet
      00FFAF78H   PUBLIC    CODE     ---       HALMAC_WhitenDftGet
      00FF47ADH   PUBLIC    CODE     ---       HALMAC_WhitenInitDftGet
      00FF362CH   PUBLIC    CODE     ---       HALMAC_CrcLenCfgGet
      00FF36C5H   PUBLIC    CODE     ---       HALMAC_PhrLenCfgGet
      00FFAF81H   PUBLIC    CODE     ---       HALMAC_SfdDftGet
      00FF3720H   PUBLIC    CODE     ---       HALMAC_RxPayloadLenGet
      00FF34F4H   PUBLIC    CODE     ---       HALMAC_MaxPayloadDftGet
      00FF7B8AH   PUBLIC    CODE     ---       HALMAC_MaxPayloadLenGet
      00FF7E2BH   PUBLIC    CODE     ---       HALMAC_TxTypeSet
      00FFAF98H   PUBLIC    CODE     ---       HALMAC_IfsT2T
      00FFAFFBH   PUBLIC    CODE     ---       HALMAC_IfsT2R
      00FFB087H   PUBLIC    CODE     ---       HALMAC_IfsR2R
      00FFB109H   PUBLIC    CODE     ---       HALMAC_IfsR2T

      00FF47D1H   BLOCK     CODE     ---       LVL=0
      00FF47D1H   LINE      ---      ---       #23
      00FF47D3H   LINE      ---      ---       #29
      00FF47ECH   LINE      ---      ---       #32
      00FF47F3H   LINE      ---      ---       #33
      WR6         REGSYM    ---      INT       whitenType
      R10         REGSYM    ---      BYTE      initValue
      ---         BLOCKEND  ---      ---       LVL=0

      00FF47FCH   BLOCK     CODE     ---       LVL=0
      00FF47FCH   LINE      ---      ---       #35
      00FF4800H   LINE      ---      ---       #41
      00FF4819H   LINE      ---      ---       #44
      00FF481DH   LINE      ---      ---       #45
      00FF482FH   LINE      ---      ---       #47
      00FF483AH   LINE      ---      ---       #48
      WR2         REGSYM    ---      INT       crcType
      DR28        REGSYM    ---      DWORD     initValue
      ---         BLOCKEND  ---      ---       LVL=0
L251 LINKER/LOCATER V4.66.93.0                                                        02/16/2024  15:12:23  PAGE 177



      00FF465EH   BLOCK     CODE     ---       LVL=0
      00FF465EH   LINE      ---      ---       #51
      00FF465EH   LINE      ---      ---       #56
      WR6         REGSYM    ---      INT       preambleType
      ---         BLOCKEND  ---      ---       LVL=0

      00FF4679H   BLOCK     CODE     ---       LVL=0
      00FF4679H   LINE      ---      ---       #59
      00FF4679H   LINE      ---      ---       #64
      WR6         REGSYM    ---      INT       preambleType
      ---         BLOCKEND  ---      ---       LVL=0

      00FF4135H   BLOCK     CODE     ---       LVL=0
      00FF4135H   LINE      ---      ---       #67
      00FF4135H   LINE      ---      ---       #73
      00FF4143H   LINE      ---      ---       #76
      WR6         REGSYM    ---      INT       sfdType
      DR0         REGSYM    ---      DWORD     sfdData
      ---         BLOCKEND  ---      ---       LVL=0

      00FF45A6H   BLOCK     CODE     ---       LVL=0
      00FF45A6H   LINE      ---      ---       #80
      00FF45AAH   LINE      ---      ---       #85
      00FF45BFH   LINE      ---      ---       #89
      00FF45BFH   LINE      ---      ---       #90
      00FF45C5H   LINE      ---      ---       #92
      00FF45D4H   LINE      ---      ---       #93
      00FF45EBH   LINE      ---      ---       #94
      00FF45F6H   LINE      ---      ---       #95
      00FF45FAH   LINE      ---      ---       #96
      00FF45FCH   LINE      ---      ---       #99
      00FF460CH   LINE      ---      ---       #100
      00FF4623H   LINE      ---      ---       #101
      00FF462EH   LINE      ---      ---       #102
      00FF4641H   LINE      ---      ---       #103
      00FF4641H   LINE      ---      ---       #107
      00FF4641H   LINE      ---      ---       #109
      00FF4652H   LINE      ---      ---       #110
      00FF465DH   LINE      ---      ---       #111
      00FF465DH   LINE      ---      ---       #114
      00FF465DH   LINE      ---      ---       #115
      00FF465DH   LINE      ---      ---       #116
      00FF465DH   LINE      ---      ---       #117
      WR10        REGSYM    ---      INT       sfdType
      DR28        REGSYM    ---      DWORD     sfdData
      ---         BLOCKEND  ---      ---       LVL=0

      00FF24FDH   BLOCK     CODE     ---       LVL=0
      00FF250BH   LINE      ---      ---       #120
      00FF250BH   LINE      ---      ---       #127
      00FF251CH   LINE      ---      ---       #133
      00FF252BH   LINE      ---      ---       #134
      00FF24FDH   SYMBOL    CODE     NEAR LAB  ?L?COM0029
      WR6         REGSYM    ---      INT       phrType
      DR0         REGSYM    ---      DWORD     phrData
      ---         BLOCKEND  ---      ---       LVL=0

      00FFA6ECH   BLOCK     CODE     ---       LVL=0
      00FFA6ECH   LINE      ---      ---       #136
      00FFA6ECH   LINE      ---      ---       #140
      WR6         REGSYM    ---      WORD      rptLen
      ---         BLOCKEND  ---      ---       LVL=0

      00FF36A6H   BLOCK     CODE     ---       LVL=0
L251 LINKER/LOCATER V4.66.93.0                                                        02/16/2024  15:12:23  PAGE 178


      00FF36A6H   LINE      ---      ---       #144
      WR2         REGSYM    ---      WORD      pktLen
      00FF36A6H   BLOCK     CODE     NEAR LAB  LVL=1
      00FF36B4H   LINE      ---      ---       #157
      00FF36B9H   LINE      ---      ---       #158
      DR8         REGSYM    ---      DWORD     regVal
      ---         BLOCKEND  CODE     ---       LVL=1
      00FF36C4H   LINE      ---      ---       #159
      00FF36C4H   LINE      CODE     ---       #159

      00FFAD4EH   BLOCK     CODE     ---       LVL=0
      00FFAD4EH   LINE      ---      ---       #162
      WR2         REGSYM    ---      INT       bitEndian
      00FFAD4EH   BLOCK     CODE     NEAR LAB  LVL=1
      00FFAD5CH   LINE      ---      ---       #175
      00FFAD6DH   LINE      ---      ---       #176
      DR28        REGSYM    ---      DWORD     regVal
      ---         BLOCKEND  CODE     ---       LVL=1
      ---         BLOCKEND  CODE     ---       LVL=0

      00FFAF78H   BLOCK     CODE     ---       LVL=0
      00FFAF78H   LINE      ---      ---       #181
      00FFAF78H   LINE      ---      ---       #183
      00FFAF80H   LINE      ---      ---       #184
      ---         BLOCKEND  ---      ---       LVL=0

      00FF47ADH   BLOCK     CODE     ---       LVL=0
      00FF47ADH   LINE      ---      ---       #186
      00FF47ADH   LINE      ---      ---       #189
      00FF47B5H   LINE      ---      ---       #190
      ---         BLOCKEND  ---      ---       LVL=0

      00FF47B6H   BLOCK     CODE     ---       LVL=0
      00FF47BAH   LINE      ---      ---       #192
      00FF47BAH   LINE      ---      ---       #197
      00FF47D0H   LINE      ---      ---       #198
      00FF47B6H   SYMBOL    CODE     NEAR LAB  ?L?COM004C
      WR6         REGSYM    ---      INT       crcType
      ---         BLOCKEND  ---      ---       LVL=0

      00FF362CH   BLOCK     CODE     ---       LVL=0
      00FF362CH   LINE      ---      ---       #201
      00FF362CH   LINE      ---      ---       #202
      00FF362CH   BLOCK     CODE     NEAR LAB  LVL=1
      00FF362CH   LINE      ---      ---       #206
      00FF3639H   LINE      ---      ---       #207
      R7          REGSYM    ---      BYTE      regValue
      ---         BLOCKEND  CODE     ---       LVL=1
      00FF3644H   LINE      ---      ---       #208
      00FF3644H   LINE      CODE     ---       #208

      00FF36C5H   BLOCK     CODE     ---       LVL=0
      00FF36C5H   LINE      ---      ---       #210
      00FF36C5H   LINE      ---      ---       #214
      00FF36D0H   LINE      ---      ---       #215
      00FF36D3H   LINE      ---      ---       #219
      00FF36D9H   LINE      ---      ---       #220
      00FF36DCH   LINE      ---      ---       #224
      00FF36E2H   LINE      ---      ---       #225
      00FF36E5H   LINE      ---      ---       #238
      00FF36E6H   LINE      ---      ---       #239
      ---         BLOCKEND  ---      ---       LVL=0

      00FF3720H   BLOCK     CODE     ---       LVL=0
      00FF3720H   LINE      ---      ---       #254
L251 LINKER/LOCATER V4.66.93.0                                                        02/16/2024  15:12:23  PAGE 179


      00FF3720H   LINE      ---      ---       #256
      00FF3733H   LINE      ---      ---       #259
      00FF3733H   LINE      ---      ---       #260
      00FF3745H   LINE      ---      ---       #264
      00FF3745H   LINE      ---      ---       #265
      00FF375CH   LINE      ---      ---       #269
      00FF375CH   LINE      ---      ---       #270
      00FF3774H   LINE      ---      ---       #278
      00FF3774H   LINE      ---      ---       #279
      00FF3776H   LINE      ---      ---       #280
      00FF3776H   LINE      ---      ---       #281
      ---         BLOCKEND  ---      ---       LVL=0

      00FFAF81H   BLOCK     CODE     ---       LVL=0
      00FFAF81H   LINE      ---      ---       #283
      00FFAF81H   LINE      ---      ---       #288
      00FFAF97H   LINE      ---      ---       #289
      WR6         REGSYM    ---      INT       sfdType
      ---         BLOCKEND  ---      ---       LVL=0

      00FF34F4H   BLOCK     CODE     ---       LVL=0
      00FF34F4H   LINE      ---      ---       #292
      00FF34F4H   LINE      ---      ---       #295
      00FF34FCH   LINE      ---      ---       #296
      ---         BLOCKEND  ---      ---       LVL=0

      00FF7B8AH   BLOCK     CODE     ---       LVL=0
      00FF7B8AH   LINE      ---      ---       #299
      00FF7B8AH   LINE      ---      ---       #301
      00FF7B9DH   LINE      ---      ---       #305
      00FF7B9DH   LINE      ---      ---       #310
      00FF7BA2H   LINE      ---      ---       #315
      00FF7BA2H   LINE      ---      ---       #318
      00FF7BA2H   LINE      ---      ---       #320
      00FF7BB2H   LINE      ---      ---       #322
      00FF7BB2H   LINE      ---      ---       #324
      00FF7BB4H   LINE      ---      ---       #325
      ---         BLOCKEND  ---      ---       LVL=0

      00FF7E27H   BLOCK     CODE     ---       LVL=0
      00FF7E2BH   LINE      ---      ---       #328
      00FF7E2BH   LINE      ---      ---       #330
      00FF7E37H   LINE      ---      ---       #332
      00FF7E37H   LINE      ---      ---       #334
      00FF7E43H   LINE      ---      ---       #335
      00FF7E45H   LINE      ---      ---       #336
      00FF7E45H   LINE      ---      ---       #337
      00FF7E45H   LINE      ---      ---       #338
      00FF7E45H   LINE      ---      ---       #339
      00FF7E47H   LINE      ---      ---       #340
      00FF7E47H   LINE      ---      ---       #342
      00FF7E53H   LINE      ---      ---       #343
      00FF7E58H   LINE      ---      ---       #344
      00FF7E64H   LINE      ---      ---       #345
      00FF7E6DH   LINE      ---      ---       #346
      00FF7E75H   LINE      ---      ---       #347
      00FF7E76H   LINE      ---      ---       #348
      00FF7E76H   LINE      ---      ---       #350
      00FF7E82H   LINE      ---      ---       #351
      00FF7E84H   LINE      ---      ---       #352
      00FF7E84H   LINE      ---      ---       #353
      00FF7E86H   LINE      ---      ---       #354
      00FF7E86H   LINE      ---      ---       #356
      00FF7E92H   LINE      ---      ---       #357
      00FF7E97H   LINE      ---      ---       #358
L251 LINKER/LOCATER V4.66.93.0                                                        02/16/2024  15:12:23  PAGE 180


      00FF7EA3H   LINE      ---      ---       #359
      00FF7EA3H   LINE      ---      ---       #360
      00FF7EA3H   LINE      ---      ---       #361
      00FF7E27H   SYMBOL    CODE     NEAR LAB  ?L?COM0047
      WR6         REGSYM    ---      INT       type
      ---         BLOCKEND  ---      ---       LVL=0

      00FFAF98H   BLOCK     CODE     ---       LVL=0
      00FFAF98H   LINE      ---      ---       #363
      00FFAF9EH   LINE      ---      ---       #368
      WR14        REGSYM    ---      WORD      ifs
      WR4         REGSYM    ---      INT       txBw
      R3          REGSYM    ---      BYTE      bEndTimer
      00FFAF9EH   BLOCK     CODE     NEAR LAB  LVL=1
      00FFAF9EH   LINE      ---      ---       #371
      00FFAFA2H   LINE      ---      ---       #372
      00FFAFB3H   LINE      ---      ---       #374
      00FFAFCEH   LINE      ---      ---       #376
      00FFAFE2H   LINE      ---      ---       #377
      00FFAFF6H   LINE      ---      ---       #379
      R13         REGSYM    ---      BYTE      txTailDelay
      ---         BLOCKEND  CODE     ---       LVL=1
      00FFAFF8H   LINE      ---      ---       #380
      00FFAFF8H   LINE      CODE     ---       #380

      00FFAFFBH   BLOCK     CODE     ---       LVL=0
      00FFAFFBH   LINE      ---      ---       #383
      00FFB001H   LINE      ---      ---       #388
      WR14        REGSYM    ---      WORD      ifs
      WR4         REGSYM    ---      INT       txBw
      R3          REGSYM    ---      BYTE      bEndTimer
      00FFB001H   BLOCK     CODE     NEAR LAB  LVL=1
      00FFB001H   LINE      ---      ---       #391
      00FFB005H   LINE      ---      ---       #392
      00FFB016H   LINE      ---      ---       #394
      00FFB030H   LINE      ---      ---       #396
      00FFB044H   LINE      ---      ---       #397
      00FFB058H   LINE      ---      ---       #399
      R13         REGSYM    ---      BYTE      txTailDelay
      ---         BLOCKEND  CODE     ---       LVL=1
      00FFB05AH   LINE      ---      ---       #400
      00FFB05AH   LINE      CODE     ---       #400

      00FFB087H   BLOCK     CODE     ---       LVL=0
      00FFB087H   LINE      ---      ---       #402
      WR14        REGSYM    ---      WORD      ifs
      WR4         REGSYM    ---      INT       rxBw
      00FFB089H   BLOCK     CODE     NEAR LAB  LVL=1
      00FFB08DH   LINE      ---      ---       #409
      00FFB0A1H   LINE      ---      ---       #410
      00FFB0B7H   LINE      ---      ---       #412
      R10         REGSYM    ---      BYTE      rxTailDelay
      ---         BLOCKEND  CODE     ---       LVL=1
      00FFB0B9H   LINE      ---      ---       #413
      00FFB0B9H   LINE      CODE     ---       #413

      00FFB109H   BLOCK     CODE     ---       LVL=0
      00FFB109H   LINE      ---      ---       #415
      WR14        REGSYM    ---      WORD      ifs
      WR4         REGSYM    ---      INT       rxBw
      00FFB10BH   BLOCK     CODE     NEAR LAB  LVL=1
      00FFB10FH   LINE      ---      ---       #422
      00FFB123H   LINE      ---      ---       #423
      00FFB139H   LINE      ---      ---       #425
      R10         REGSYM    ---      BYTE      rxTailDelay
L251 LINKER/LOCATER V4.66.93.0                                                        02/16/2024  15:12:23  PAGE 181


      ---         BLOCKEND  CODE     ---       LVL=1
      00FFB13BH   LINE      ---      ---       #426
      00FFB13BH   LINE      CODE     ---       #426

      ---         MODULE    ---      ---       hal_para
      00FF082BH   PUBLIC    HCONST   ---       phyTabBpFir15Tap
      00FF0833H   PUBLIC    HCONST   ---       phyTabBpFir31Tap
      00FF0843H   PUBLIC    HCONST   ---       phyTabIfMap
      00FF084BH   PUBLIC    HCONST   ---       phyTabIfMapDclk
      00FF0851H   PUBLIC    HCONST   ---       sHalHwPara
      00FF08CAH   PUBLIC    HCONST   ---       sHalHwTab

      ---         MODULE    ---      ---       hal_phy
      00FFB13EH   PUBLIC    CODE     ---       HALPHY_DfeSet
      00FFB1B7H   PUBLIC    CODE     ---       HALPHY_ParaSet
      00FF471BH   PUBLIC    CODE     ---       HALPHY_GaussianFiltSet
      00FFB361H   PUBLIC    CODE     ---       HALPHY_RxDisable
      00FFB37BH   PUBLIC    CODE     ---       HALPHY_RxEnable
      00FFB428H   PUBLIC    CODE     ---       HALPHY_TxEnable
      00FFA6F7H   PUBLIC    CODE     ---       HALPHY_PreamNumSet
      00FFB5FCH   PUBLIC    CODE     ---       HALPHY_TxBwSet
      00FFB8BBH   PUBLIC    CODE     ---       HALPHY_RxBwSet
      00FFBCFBH   PUBLIC    CODE     ---       HALPHY_InputPwrGet
      00FFBC86H   PUBLIC    CODE     ---       HALPHY_BleRxParaSet
      00FFA7BEH   PUBLIC    CODE     ---       HALPHY_FskRxParaSet
      00FFBCDAH   PUBLIC    CODE     ---       HALPHY_ModIdxSet

      00FFBC86H   BLOCK     CODE     ---       LVL=0
      00FFBC86H   LINE      ---      ---       #25
      00FFBC8EH   LINE      ---      ---       #34
      00FFBCA1H   LINE      ---      ---       #35
      00FFBCB4H   LINE      ---      ---       #36
      00FFBCBCH   LINE      ---      ---       #37
      00FFBCC7H   LINE      ---      ---       #38
      00FFBCCEH   LINE      ---      ---       #39
      00FFBCD9H   LINE      ---      ---       #40
      R11         REGSYM    ---      BYTE      detectionOffset
      R8          REGSYM    ---      BYTE      rxPreamBase
      R9          REGSYM    ---      BYTE      syncBitTh
      WR2         REGSYM    ---      WORD      syncCorrTh
      R10         REGSYM    ---      BYTE      trackBitTh
      WR0         REGSYM    ---      WORD      trackCorrTh
      ---         BLOCKEND  ---      ---       LVL=0

      00FFA7BEH   BLOCK     CODE     ---       LVL=0
      00FFA7BEH   LINE      ---      ---       #44
      00FFA7C0H   LINE      ---      ---       #50
      00FFA7D4H   LINE      ---      ---       #51
      00FFA7EAH   LINE      ---      ---       #52
      R2          REGSYM    ---      BYTE      trackKp
      R3          REGSYM    ---      BYTE      trackKq
      R6          REGSYM    ---      BYTE      cfoEstAlphaIdx
      ---         BLOCKEND  ---      ---       LVL=0

      00FFB13EH   BLOCK     CODE     ---       LVL=0
      00FFB13EH   LINE      ---      ---       #59
      00FFB13EH   LINE      ---      ---       #61
      00FFB151H   LINE      ---      ---       #65
      00FFB151H   LINE      ---      ---       #68
      00FFB151H   LINE      ---      ---       #71
      00FFB164H   LINE      ---      ---       #73
      00FFB16CH   LINE      ---      ---       #74
      00FFB16EH   LINE      ---      ---       #78
      00FFB16EH   LINE      ---      ---       #81
      00FFB174H   LINE      ---      ---       #83
L251 LINKER/LOCATER V4.66.93.0                                                        02/16/2024  15:12:23  PAGE 182


      00FFB17CH   LINE      ---      ---       #84
      00FFB17EH   LINE      ---      ---       #88
      00FFB191H   LINE      ---      ---       #89
      00FFB191H   LINE      ---      ---       #91
      00FFB1A4H   LINE      ---      ---       #92
      00FFB1A4H   LINE      ---      ---       #103
      00FFB1A4H   LINE      ---      ---       #107
      ---         BLOCKEND  ---      ---       LVL=0

      00FFB1B7H   BLOCK     CODE     ---       LVL=0
      00FFB1B7H   LINE      ---      ---       #111
      00FFB1B7H   LINE      ---      ---       #114
      00FFB1CEH   LINE      ---      ---       #117
      00FFB1CEH   LINE      ---      ---       #121
      00FFB1EAH   LINE      ---      ---       #122
      00FFB1FDH   LINE      ---      ---       #123
      00FFB210H   LINE      ---      ---       #124
      00FFB223H   LINE      ---      ---       #125
      00FFB238H   LINE      ---      ---       #128
      00FFB23AH   LINE      ---      ---       #132
      00FFB23AH   LINE      ---      ---       #133
      00FFB254H   LINE      ---      ---       #134
      00FFB267H   LINE      ---      ---       #135
      00FFB269H   LINE      ---      ---       #139
      00FFB269H   LINE      ---      ---       #140
      00FFB283H   LINE      ---      ---       #141
      00FFB28EH   LINE      ---      ---       #142
      00FFB29AH   LINE      ---      ---       #143
      00FFB2B1H   LINE      ---      ---       #144
      00FFB2C4H   LINE      ---      ---       #145
      00FFB2CFH   LINE      ---      ---       #146
      00FFB2EAH   LINE      ---      ---       #148
      00FFB2F0H   LINE      ---      ---       #150
      00FFB303H   LINE      ---      ---       #151
      00FFB30EH   LINE      ---      ---       #152
      00FFB312H   LINE      ---      ---       #153
      00FFB314H   LINE      ---      ---       #157
      00FFB327H   LINE      ---      ---       #158
      00FFB332H   LINE      ---      ---       #159
      00FFB34AH   LINE      ---      ---       #160
      00FFB34AH   LINE      ---      ---       #161
      00FFB360H   LINE      ---      ---       #162
      00FFB360H   LINE      ---      ---       #177
      00FFB360H   LINE      ---      ---       #178
      00FFB360H   LINE      ---      ---       #179
      00FFB360H   LINE      ---      ---       #180
      ---         BLOCKEND  ---      ---       LVL=0

      00FF471BH   BLOCK     CODE     ---       LVL=0
      00FF471BH   LINE      ---      ---       #182
      00FF471BH   LINE      ---      ---       #186
      WR6         REGSYM    ---      INT       type
      ---         BLOCKEND  ---      ---       LVL=0

      00FFB361H   BLOCK     CODE     ---       LVL=0
      00FFB361H   LINE      ---      ---       #285
      00FFB361H   LINE      ---      ---       #288
      00FFB36AH   LINE      ---      ---       #291
      00FFB372H   LINE      ---      ---       #292
      00FFB37AH   LINE      ---      ---       #293
      ---         BLOCKEND  ---      ---       LVL=0

      00FFB37BH   BLOCK     CODE     ---       LVL=0
      00FFB37BH   LINE      ---      ---       #295
      00FFB37BH   LINE      ---      ---       #308
L251 LINKER/LOCATER V4.66.93.0                                                        02/16/2024  15:12:23  PAGE 183


      00FFB38AH   LINE      ---      ---       #314
      00FFB396H   LINE      ---      ---       #315
      00FFB3A2H   LINE      ---      ---       #317
      00FFB3A7H   LINE      ---      ---       #318
      00FFB3B3H   LINE      ---      ---       #322
      ---         BLOCKEND  ---      ---       LVL=0

      00FFB428H   BLOCK     CODE     ---       LVL=0
      00FFB428H   LINE      ---      ---       #328
      00FFB42AH   LINE      ---      ---       #329
      00FFB42AH   BLOCK     CODE     NEAR LAB  LVL=1
      00FFB42AH   LINE      ---      ---       #330
      00FFB432H   LINE      ---      ---       #332
      00FFB436H   LINE      ---      ---       #347
      00FFB443H   LINE      ---      ---       #348
      00FFB463H   LINE      ---      ---       #354
      00FFB479H   LINE      ---      ---       #355
      REG=7       REGSYM    ---      ---       pPllCfg
      WR12        REGSYM    ---      INT       modIdx
      00FFB479H   BLOCK     CODE     NEAR LAB  LVL=2
      00FFB479H   LINE      ---      ---       #356
      00FFB480H   LINE      ---      ---       #357
      00FFB484H   LINE      ---      ---       #360
      00FFB4B4H   LINE      ---      ---       #361
      00FFB4D0H   LINE      ---      ---       #362
      00FFB501H   LINE      ---      ---       #363
      00FFB52DH   LINE      ---      ---       #364
      00FFB537H   LINE      ---      ---       #367
      00FFB540H   LINE      ---      ---       #368
      00FFB54CH   LINE      ---      ---       #369
      00FFB54EH   LINE      ---      ---       #373
      00FFB590H   LINE      ---      ---       #374
      00FFB5C5H   LINE      ---      ---       #375
      00FFB5C5H   LINE      ---      ---       #377
      00FFB5C9H   LINE      ---      ---       #382
      00FFB5D5H   LINE      ---      ---       #383
      00FFB5E1H   LINE      ---      ---       #385
      00FFB5E6H   LINE      ---      ---       #386
      WR2         REGSYM    ---      INT       dataBwIdx
      WR30        REGSYM    ---      INT       subgBand
      ---         BLOCKEND  CODE     ---       LVL=2
      00FFB5F2H   LINE      ---      ---       #387
      00FFB5F2H   LINE      ---      ---       #392
      00FFB5F6H   LINE      ---      ---       #396
      00FFB5F9H   LINE      ---      ---       #400
      00FFB5F9H   LINE      CODE     ---       #400
      ---         BLOCKEND  CODE     ---       LVL=0

      00FFBCDAH   BLOCK     CODE     ---       LVL=0
      00FFBCDAH   LINE      ---      ---       #404
      00FFBCDAH   LINE      ---      ---       #409
      00FFBCDEH   LINE      ---      ---       #418
      00FFBCE6H   LINE      ---      ---       #419
      00FFBCE8H   LINE      ---      ---       #429
      WR6         REGSYM    ---      INT       modIdx
      ---         BLOCKEND  ---      ---       LVL=0

      00FFA6F7H   BLOCK     CODE     ---       LVL=0
      00FFA6F7H   LINE      ---      ---       #435
      00FFA6F7H   LINE      ---      ---       #439
      R7          REGSYM    ---      BYTE      preambleNum
      ---         BLOCKEND  ---      ---       LVL=0

      00FFB5FCH   BLOCK     CODE     ---       LVL=0
      00FFB5FCH   LINE      ---      ---       #443
L251 LINKER/LOCATER V4.66.93.0                                                        02/16/2024  15:12:23  PAGE 184


      00FFB604H   LINE      ---      ---       #449
      WR30        REGSYM    ---      INT       dataBw
      WR8         REGSYM    ---      INT       modIdx
      WR28        REGSYM    ---      INT       codingType
      R11         REGSYM    ---      BYTE      bAutoCfg
      00FFB604H   BLOCK     CODE     NEAR LAB  LVL=1
      00FFB604H   LINE      ---      ---       #454
      00FFB616H   LINE      ---      ---       #456
      00FFB61CH   LINE      ---      ---       #474
      00FFB620H   LINE      ---      ---       #476
      00FFB637H   LINE      ---      ---       #479
      00FFB637H   LINE      ---      ---       #488
      00FFB63DH   LINE      ---      ---       #489
      00FFB647H   LINE      ---      ---       #492
      00FFB656H   LINE      ---      ---       #494
      00FFB658H   LINE      ---      ---       #498
      00FFB658H   LINE      ---      ---       #501
      00FFB65EH   LINE      ---      ---       #502
      00FFB668H   LINE      ---      ---       #506
      00FFB673H   LINE      ---      ---       #509
      00FFB673H   LINE      ---      ---       #514
      00FFB683H   LINE      ---      ---       #516
      00FFB685H   LINE      ---      ---       #520
      00FFB685H   LINE      ---      ---       #525
      00FFB695H   LINE      ---      ---       #527
      00FFB697H   LINE      ---      ---       #529
      00FFB697H   LINE      ---      ---       #530
      00FFB697H   LINE      ---      ---       #531
      00FFB697H   LINE      ---      ---       #535
      00FFB697H   LINE      ---      ---       #537
      00FFB6A2H   LINE      ---      ---       #540
      00FFB6A2H   LINE      ---      ---       #545
      00FFB6B2H   LINE      ---      ---       #547
      00FFB6B4H   LINE      ---      ---       #551
      00FFB6B4H   LINE      ---      ---       #556
      00FFB6D6H   LINE      ---      ---       #558
      00FFB6D6H   LINE      ---      ---       #560
      00FFB6D6H   LINE      ---      ---       #561
      00FFB6D6H   LINE      ---      ---       #574
      00FFB6D6H   LINE      ---      ---       #580
      00FFB6D6H   LINE      ---      ---       #583
      00FFB6ECH   LINE      ---      ---       #587
      00FFB6ECH   LINE      ---      ---       #590
      00FFB6ECH   LINE      ---      ---       #593
      00FFB6ECH   LINE      ---      ---       #596
      00FFB6F3H   LINE      ---      ---       #598
      00FFB6FBH   LINE      ---      ---       #600
      00FFB703H   LINE      ---      ---       #603
      00FFB725H   LINE      ---      ---       #605
      00FFB741H   LINE      ---      ---       #611
      00FFB74BH   LINE      ---      ---       #613
      00FFB74BH   LINE      ---      ---       #615
      00FFB74BH   LINE      ---      ---       #618
      00FFB74DH   LINE      ---      ---       #630
      00FFB772H   LINE      ---      ---       #631
      00FFB78BH   LINE      ---      ---       #634
      00FFB7B1H   LINE      ---      ---       #636
      00FFB7BAH   LINE      ---      ---       #642
      00FFB7BDH   LINE      ---      ---       #645
      00FFB7BDH   LINE      ---      ---       #648
      00FFB7CDH   LINE      ---      ---       #660
      00FFB7FDH   LINE      ---      ---       #661
      00FFB816H   LINE      ---      ---       #664
      00FFB83DH   LINE      ---      ---       #666
      00FFB846H   LINE      ---      ---       #671
L251 LINKER/LOCATER V4.66.93.0                                                        02/16/2024  15:12:23  PAGE 185


      00FFB846H   LINE      ---      ---       #673
      00FFB846H   LINE      ---      ---       #677
      00FFB868H   LINE      ---      ---       #678
      00FFB87FH   LINE      ---      ---       #680
      00FFB88DH   LINE      ---      ---       #683
      00FFB893H   LINE      ---      ---       #684
      00FFB89DH   LINE      ---      ---       #686
      00FFB8B0H   LINE      ---      ---       #691
      00FFB8B0H   LINE      ---      ---       #717
      00FFB8B0H   LINE      ---      ---       #721
      00FFB8B8H   LINE      ---      ---       #728
      WR12        REGSYM    ---      INT       dataBwEff
      WR14        REGSYM    ---      INT       dataBwIdx
      WR6         REGSYM    ---      INT       dataBwIdxDclk
      ---         BLOCKEND  CODE     ---       LVL=1
      00FFB8B8H   LINE      ---      ---       #729
      00FFB8B8H   LINE      CODE     ---       #729

      00FFB8BBH   BLOCK     CODE     ---       LVL=0
      00FFB8BBH   LINE      ---      ---       #731
      00FFB8C9H   LINE      ---      ---       #737
      WR14        REGSYM    ---      INT       dataBw
      0000B549H   SYMBOL    EDATA    INT       modIdx
      WR12        REGSYM    ---      INT       codingType
      0000B54BH   SYMBOL    EDATA    BYTE      bAutoCfg
      00FFB8C9H   BLOCK     CODE     NEAR LAB  LVL=1
      00FFB8C9H   LINE      ---      ---       #742
      00FFB8DFH   LINE      ---      ---       #744
      00FFB8E9H   LINE      ---      ---       #768
      00FFB902H   LINE      ---      ---       #772
      00FFB902H   LINE      ---      ---       #775
      00FFB914H   LINE      ---      ---       #781
      00FFB91AH   LINE      ---      ---       #783
      00FFB938H   LINE      ---      ---       #786
      00FFB941H   LINE      ---      ---       #787
      00FFB943H   LINE      ---      ---       #791
      00FFB949H   LINE      ---      ---       #793
      00FFB965H   LINE      ---      ---       #796
      00FFB967H   LINE      ---      ---       #799
      00FFB985H   LINE      ---      ---       #802
      00FFB985H   LINE      ---      ---       #803
      00FFB991H   LINE      ---      ---       #804
      00FFB991H   LINE      ---      ---       #808
      00FFB991H   LINE      ---      ---       #811
      00FFB991H   LINE      ---      ---       #815
      00FFB9A0H   LINE      ---      ---       #817
      00FFB9B0H   LINE      ---      ---       #819
      00FFB9B2H   LINE      ---      ---       #832
      00FFB9CFH   LINE      ---      ---       #835
      00FFB9CFH   LINE      ---      ---       #839
      00FFB9D5H   LINE      ---      ---       #840
      00FFB9DFH   LINE      ---      ---       #842
      00FFB9F1H   LINE      ---      ---       #846
      00FFB9F7H   LINE      ---      ---       #850
      00FFBA10H   LINE      ---      ---       #852
      00FFBA1EH   LINE      ---      ---       #854
      00FFBA28H   LINE      ---      ---       #859
      00FFBA2EH   LINE      ---      ---       #860
      00FFBA38H   LINE      ---      ---       #862
      00FFBA4BH   LINE      ---      ---       #890
      00FFBA6FH   LINE      ---      ---       #892
      00FFBA6FH   LINE      ---      ---       #895
      00FFBA7BH   LINE      ---      ---       #897
      00FFBA87H   LINE      ---      ---       #899
      00FFBA93H   LINE      ---      ---       #902
L251 LINKER/LOCATER V4.66.93.0                                                        02/16/2024  15:12:23  PAGE 186


      00FFBAA2H   LINE      ---      ---       #905
      00FFBAA2H   LINE      ---      ---       #908
      00FFBACBH   LINE      ---      ---       #909
      00FFBAE1H   LINE      ---      ---       #912
      00FFBB05H   LINE      ---      ---       #913
      00FFBB1EH   LINE      ---      ---       #915
      00FFBB42H   LINE      ---      ---       #917
      00FFBB58H   LINE      ---      ---       #918
      00FFBB66H   LINE      ---      ---       #931
      00FFBB72H   LINE      ---      ---       #932
      00FFBB74H   LINE      ---      ---       #936
      00FFBB74H   LINE      ---      ---       #939
      00FFBB9DH   LINE      ---      ---       #940
      00FFBBB3H   LINE      ---      ---       #943
      00FFBBD7H   LINE      ---      ---       #944
      00FFBBF0H   LINE      ---      ---       #946
      00FFBC14H   LINE      ---      ---       #948
      00FFBC2AH   LINE      ---      ---       #949
      00FFBC38H   LINE      ---      ---       #965
      00FFBC45H   LINE      ---      ---       #966
      00FFBC45H   LINE      ---      ---       #968
      00FFBC45H   LINE      ---      ---       #971
      00FFBC57H   LINE      ---      ---       #977
      00FFBC70H   LINE      ---      ---       #981
      00FFBC70H   LINE      ---      ---       #1014
      00FFBC70H   LINE      ---      ---       #1015
      00FFBC70H   LINE      ---      ---       #1016
      00FFBC70H   LINE      ---      ---       #1020
      00FFBC7DH   LINE      ---      ---       #1021
      00FFBC83H   LINE      ---      ---       #1030
      WR6         REGSYM    ---      INT       dataBwEff
      0000B54CH   SYMBOL    EDATA    INT       dataBwIdx
      0000B54EH   SYMBOL    EDATA    INT       dataBwIdxDclk
      ---         BLOCKEND  CODE     ---       LVL=1
      00FFBC83H   LINE      ---      ---       #1031
      00FFBC83H   LINE      CODE     ---       #1031

      00FFBCFBH   BLOCK     CODE     ---       LVL=0
      00FFBCFBH   LINE      ---      ---       #1033
      00FFBD03H   LINE      ---      ---       #1039
      R15         REGSYM    ---      BYTE      LNAGainIndex
      R8          REGSYM    ---      BYTE      TIAGainindex
      R9          REGSYM    ---      BYTE      VGAGainindex
      R10         REGSYM    ---      CHAR      RSSIvalue
      00FFBD03H   BLOCK     CODE     NEAR LAB  LVL=1
      00FFBD03H   LINE      ---      ---       #1041
      00FFBD07H   LINE      ---      ---       #1042
      00FFBD10H   LINE      ---      ---       #1053
      00FFBD4FH   LINE      ---      ---       #1057
      00FFBD55H   LINE      ---      ---       #1058
      00FFBD5BH   LINE      ---      ---       #1060
      00FFBD6FH   LINE      ---      ---       #1061
      00FFBD7FH   LINE      ---      ---       #1062
      00FFBD81H   LINE      ---      ---       #1066
      WR6         REGSYM    ---      INT       RSSIvalueTemp
      R5          REGSYM    ---      BYTE      rfkBand
      REG=1       REGSYM    ---      ---       pRssiCtrl
      ---         BLOCKEND  CODE     ---       LVL=1
      00FFBD83H   LINE      ---      ---       #1067
      00FFBD83H   LINE      CODE     ---       #1067
      00FFB5F9H   LINE      ---      ---       #401

      ---         MODULE    ---      ---       hal_pkt
      00FF2535H   PUBLIC    CODE     ---       HALPKT_TxqDoneSet
      00FF28A0H   PUBLIC    CODE     ---       HALPKT_RxqDoneSet
L251 LINKER/LOCATER V4.66.93.0                                                        02/16/2024  15:12:23  PAGE 187


      00FF6ABFH   PUBLIC    CODE     ---       HALPKT_PhyStatusGet

      00FF252CH   BLOCK     CODE     ---       LVL=0
      00FF2535H   LINE      ---      ---       #23
      00FF253DH   LINE      ---      ---       #31
      00FF2549H   LINE      ---      ---       #34
      00FF2553H   LINE      ---      ---       #35
      00FF2557H   LINE      ---      ---       #38
      00FF255FH   LINE      ---      ---       #40
      00FF2568H   LINE      ---      ---       #41
      00FF256BH   LINE      ---      ---       #42
      00FF256BH   LINE      ---      ---       #44
      00FF256FH   LINE      ---      ---       #47
      00FF2574H   LINE      ---      ---       #48
      00FF2574H   LINE      ---      ---       #50
      00FF2576H   LINE      ---      ---       #51
      00FF252CH   SYMBOL    CODE     NEAR LAB  ?L?COM0002
      R14         REGSYM    ---      BYTE      bLocalTxQueue
      R15         REGSYM    ---      BYTE      txQueueId
      R10         REGSYM    ---      BYTE      txPktId
      WR4         REGSYM    ---      INT       txProcess
      ---         BLOCKEND  ---      ---       LVL=0

      00FF289AH   BLOCK     CODE     ---       LVL=0
      00FF28A0H   LINE      ---      ---       #53
      00FF28A4H   LINE      ---      ---       #59
      00FF28B0H   LINE      ---      ---       #62
      00FF28BEH   LINE      ---      ---       #63
      00FF28C1H   LINE      ---      ---       #66
      00FF28CDH   LINE      ---      ---       #68
      00FF28CDH   LINE      ---      ---       #69
      00FF28CFH   LINE      ---      ---       #70
      00FF28D1H   LINE      ---      ---       #72
      00FF28D1H   LINE      ---      ---       #73
      00FF28DBH   LINE      ---      ---       #74
      00FF28DDH   LINE      ---      ---       #76
      00FF28DFH   LINE      ---      ---       #77
      00FF28E1H   LINE      ---      ---       #79
      00FF28E1H   LINE      ---      ---       #80
      00FF28EAH   LINE      ---      ---       #81
      00FF28ECH   LINE      ---      ---       #83
      00FF28ECH   LINE      ---      ---       #84
      00FF28EEH   LINE      ---      ---       #85
      00FF28EEH   LINE      ---      ---       #87
      00FF28F0H   LINE      ---      ---       #88
      00FF289AH   SYMBOL    CODE     NEAR LAB  ?L?COM0013
      R10         REGSYM    ---      BYTE      bLocalRxQueue
      WR4         REGSYM    ---      INT       rxProcess
      ---         BLOCKEND  ---      ---       LVL=0

      00FF6ABAH   BLOCK     CODE     ---       LVL=0
      00FF6ABFH   LINE      ---      ---       #91
      00FF6AC5H   LINE      ---      ---       #95
      00FF6ABAH   SYMBOL    CODE     NEAR LAB  ?L?COM0033
      R1          REGSYM    ---      BYTE      bLocalRxQueue
      REG=1       REGSYM    ---      ---       pRxPhyStatus
      00FF6AC5H   BLOCK     CODE     NEAR LAB  LVL=1
      00FF6AC5H   LINE      ---      ---       #100
      00FF6AD2H   LINE      ---      ---       #101
      00FF6AD6H   LINE      ---      ---       #103
      00FF6ADAH   LINE      ---      ---       #104
      00FF6AE5H   LINE      ---      ---       #106
      00FF6AEDH   LINE      ---      ---       #112
      WR4         REGSYM    ---      WORD      rxPktLength
      R15         REGSYM    ---      BYTE      retValue
L251 LINKER/LOCATER V4.66.93.0                                                        02/16/2024  15:12:23  PAGE 188


      WR4         REGSYM    ---      WORD      offset
      ---         BLOCKEND  CODE     ---       LVL=1
      00FF6AEFH   LINE      ---      ---       #113
      00FF6AEFH   LINE      CODE     ---       #113

      ---         MODULE    ---      ---       hal_rf
      00FF8E53H   PUBLIC    CODE     ---       HALRF_AgcSet
      00FFAD78H   PUBLIC    CODE     ---       HALRF_TxPwrSet
      00FFBD86H   PUBLIC    CODE     ---       HALRF_TxPwrCompChUpdat
      00FFBFA1H   PUBLIC    CODE     ---       HALRF_TxPwrCompSet
      00FFC00FH   PUBLIC    CODE     ---       HALRF_TxPwrChCompSet
      00FFC039H   PUBLIC    CODE     ---       HALRF_TxPwrChSegSet
      00FFAE27H   PUBLIC    CODE     ---       HALRF_TxPwrRptGet
      00FFC059H   PUBLIC    CODE     ---       HALRF_TemperatureRptGet
      00FFC070H   PUBLIC    CODE     ---       HALRF_VoltageRptGet
      00FFC087H   PUBLIC    CODE     ---       HALRF_RssiOffsetSet
      00FFA70EH   PUBLIC    CODE     ---       HALRF_AllPathDisable
      00FFBFC4H   PUBLIC    CODE     ---       HALRF_TxPwrCompUpdate
      0000B5E0H   PUBLIC    EDATA    ---       txPwrCtrlArray

      00FF8E53H   BLOCK     CODE     ---       LVL=0
      00FF8E53H   LINE      ---      ---       #32
      00FF8E53H   LINE      ---      ---       #40
      00FF8E57H   LINE      ---      ---       #41
      00FF8E5BH   LINE      ---      ---       #42
      00FF8E5FH   LINE      ---      ---       #43
      00FF8E63H   LINE      ---      ---       #46
      WR6         REGSYM    ---      INT       type
      R3          REGSYM    ---      BYTE      lnaGain
      R5          REGSYM    ---      BYTE      tiaGain
      R4          REGSYM    ---      BYTE      vgaGain
      ---         BLOCKEND  ---      ---       LVL=0

      00FFAD78H   BLOCK     CODE     ---       LVL=0
      00FFAD78H   LINE      ---      ---       #50
      00FFAD82H   LINE      ---      ---       #56
      WR30        REGSYM    ---      INT       rfkBand
      WR8         REGSYM    ---      INT       modem
      R15         REGSYM    ---      BYTE      gainTab
      R10         REGSYM    ---      BYTE      offset
      00FFAD82H   BLOCK     CODE     NEAR LAB  LVL=1
      00FFAD82H   LINE      ---      ---       #58
      00FFAD90H   LINE      ---      ---       #60
      00FFAD98H   LINE      ---      ---       #62
      00FFAD9CH   LINE      ---      ---       #63
      00FFADA0H   LINE      ---      ---       #69
      00FFADB4H   LINE      ---      ---       #71
      00FFADB6H   LINE      ---      ---       #72
      REG=14      REGSYM    ---      ---       pTxPwrCtrl
      ---         BLOCKEND  CODE     ---       LVL=1
      ---         BLOCKEND  CODE     ---       LVL=0

      00FFBD86H   BLOCK     CODE     ---       LVL=0
      00FFBD86H   LINE      ---      ---       #77
      00FFBD88H   LINE      ---      ---       #80
      DR28        REGSYM    ---      DWORD     freq
      00FFBD88H   BLOCK     CODE     NEAR LAB  LVL=1
      00FFBD88H   LINE      ---      ---       #84
      00FFBD8AH   LINE      ---      ---       #86
      00FFBD8AH   LINE      ---      ---       #88
      00FFBD96H   LINE      ---      ---       #89
      00FFBDA0H   LINE      ---      ---       #91
      00FFBDA8H   LINE      ---      ---       #93
      00FFBDAAH   LINE      ---      ---       #95
      00FFBDC1H   LINE      ---      ---       #96
L251 LINKER/LOCATER V4.66.93.0                                                        02/16/2024  15:12:23  PAGE 189


      00FFBDC1H   LINE      ---      ---       #97
      00FFBDC8H   LINE      ---      ---       #99
      00FFBDD0H   LINE      ---      ---       #100
      00FFBDD2H   LINE      ---      ---       #101
      REG=6       REGSYM    ---      ---       pChSeg
      R6          REGSYM    ---      BYTE      segIdx
      R7          REGSYM    ---      BYTE      updateIdx
      ---         BLOCKEND  CODE     ---       LVL=1
      00FFBDD7H   LINE      ---      ---       #103
      00FFBDD7H   LINE      CODE     ---       #103

      00FFBFC4H   BLOCK     CODE     ---       LVL=0
      00FFBFC4H   LINE      ---      ---       #105
      00FFBFC6H   LINE      ---      ---       #108
      R6          REGSYM    ---      BYTE      modemType
      00FFBFC6H   BLOCK     CODE     NEAR LAB  LVL=1
      00FFBFC6H   LINE      ---      ---       #113
      00FFBFCFH   LINE      ---      ---       #116
      00FFBFD1H   LINE      ---      ---       #118
      00FFBFD7H   LINE      ---      ---       #119
      00FFBFDDH   LINE      ---      ---       #120
      00FFBFE9H   LINE      ---      ---       #121
      00FFBFEFH   LINE      ---      ---       #122
      00FFBFF5H   LINE      ---      ---       #123
      00FFBFFBH   LINE      ---      ---       #124
      00FFBFFFH   LINE      ---      ---       #125
      00FFC007H   LINE      ---      ---       #126
      R10         REGSYM    ---      BYTE      segIdx
      WR4         REGSYM    ---      INT       tempValue
      REG=3       REGSYM    ---      ---       pTxPwrCtrl
      ---         BLOCKEND  CODE     ---       LVL=1
      00FFC00EH   LINE      ---      ---       #128
      00FFC00EH   LINE      CODE     ---       #128

      00FFBFA1H   BLOCK     CODE     ---       LVL=0
      00FFBFA1H   LINE      ---      ---       #130
      00FFBFA3H   LINE      ---      ---       #136
      R1          REGSYM    ---      CHAR      txPwrOffset
      R2          REGSYM    ---      BYTE      txPolyGain
      R3          REGSYM    ---      BYTE      txPaPwPre
      R10         REGSYM    ---      BYTE      modemType
      00FFBFA3H   BLOCK     CODE     NEAR LAB  LVL=1
      00FFBFA3H   LINE      ---      ---       #139
      00FFBFACH   LINE      ---      ---       #142
      00FFBFB4H   LINE      ---      ---       #143
      00FFBFB8H   LINE      ---      ---       #144
      00FFBFBCH   LINE      ---      ---       #145
      00FFBFC0H   LINE      ---      ---       #146
      REG=4       REGSYM    ---      ---       pTxPwrCtrl
      ---         BLOCKEND  CODE     ---       LVL=1
      ---         BLOCKEND  CODE     ---       LVL=0

      00FFC00FH   BLOCK     CODE     ---       LVL=0
      00FFC00FH   LINE      ---      ---       #150
      00FFC015H   LINE      ---      ---       #154
      REG=2       REGSYM    ---      ---       pTxPwrOffset
      R15         REGSYM    ---      BYTE      modemType
      00FFC015H   BLOCK     CODE     NEAR LAB  LVL=1
      00FFC015H   LINE      ---      ---       #157
      00FFC01EH   LINE      ---      ---       #160
      00FFC026H   LINE      ---      ---       #161
      00FFC031H   LINE      ---      ---       #162
      REG=3       REGSYM    ---      ---       pTxPwrCtrl
      ---         BLOCKEND  CODE     ---       LVL=1
      00FFC036H   LINE      ---      ---       #164
L251 LINKER/LOCATER V4.66.93.0                                                        02/16/2024  15:12:23  PAGE 190


      00FFC036H   LINE      CODE     ---       #164

      00FFC039H   BLOCK     CODE     ---       LVL=0
      00FFC039H   LINE      ---      ---       #166
      00FFC03BH   LINE      ---      ---       #170
      REG=1       REGSYM    ---      ---       pChSeg
      R5          REGSYM    ---      BYTE      modemType
      00FFC03BH   BLOCK     CODE     NEAR LAB  LVL=1
      00FFC03BH   LINE      ---      ---       #173
      00FFC044H   LINE      ---      ---       #176
      00FFC04CH   LINE      ---      ---       #177
      REG=3       REGSYM    ---      ---       pTxPwrCtrl
      ---         BLOCKEND  CODE     ---       LVL=1
      ---         BLOCKEND  CODE     ---       LVL=0

      00FFAE27H   BLOCK     CODE     ---       LVL=0
      00FFAE27H   LINE      ---      ---       #181
      00FFAE2DH   LINE      ---      ---       #185
      WR30        REGSYM    ---      INT       rfkBand
      REG=4       REGSYM    ---      ---       pTxPwrRpt
      00FFAE2DH   BLOCK     CODE     NEAR LAB  LVL=1
      00FFAE2DH   LINE      ---      ---       #191
      00FFAE33H   LINE      ---      ---       #192
      00FFAE41H   LINE      ---      ---       #194
      00FFAE47H   LINE      ---      ---       #195
      00FFAE4DH   LINE      ---      ---       #197
      00FFAE51H   LINE      ---      ---       #200
      00FFAE55H   LINE      ---      ---       #204
      00FFAE57H   LINE      ---      ---       #206
      00FFAE65H   LINE      ---      ---       #207
      00FFAE6AH   LINE      ---      ---       #208
      00FFAE6CH   LINE      ---      ---       #209
      00FFAE71H   LINE      ---      ---       #210
      00FFAE74H   LINE      ---      ---       #211
      00FFAE7BH   LINE      ---      ---       #212
      00FFAE82H   LINE      ---      ---       #213
      00FFAE84H   LINE      ---      ---       #216
      WR0         REGSYM    ---      INT       modem
      R10         REGSYM    ---      BYTE      segIdx
      R15         REGSYM    ---      CHAR      txPwrIdx
      R7          REGSYM    ---      CHAR      tempVal
      REG=14      REGSYM    ---      ---       pTxPwrCtrl
      ---         BLOCKEND  CODE     ---       LVL=1
      00FFAE8FH   LINE      ---      ---       #217
      00FFAE8FH   LINE      CODE     ---       #217

      00FFC087H   BLOCK     CODE     ---       LVL=0
      00FFC087H   LINE      ---      ---       #221
      00FFC089H   LINE      ---      ---       #225
      WR6         REGSYM    ---      INT       rfkBand
      R10         REGSYM    ---      BYTE      offset
      00FFC089H   BLOCK     CODE     NEAR LAB  LVL=1
      00FFC089H   LINE      ---      ---       #227
      00FFC091H   LINE      ---      ---       #229
      00FFC099H   LINE      ---      ---       #230
      REG=4       REGSYM    ---      ---       pRssiCtrl
      ---         BLOCKEND  CODE     ---       LVL=1
      00FFC09DH   LINE      ---      ---       #231
      00FFC09DH   LINE      CODE     ---       #231

      00FFC059H   BLOCK     CODE     ---       LVL=0
      00FFC059H   LINE      ---      ---       #233
      00FFC05DH   LINE      ---      ---       #238
      00FFC068H   LINE      ---      ---       #239
      00FFC06FH   LINE      ---      ---       #240
L251 LINKER/LOCATER V4.66.93.0                                                        02/16/2024  15:12:23  PAGE 191


      REG=4       REGSYM    ---      ---       pTimeStamp
      REG=5       REGSYM    ---      ---       pValue
      ---         BLOCKEND  ---      ---       LVL=0

      00FFC070H   BLOCK     CODE     ---       LVL=0
      00FFC070H   LINE      ---      ---       #242
      00FFC074H   LINE      ---      ---       #247
      00FFC07FH   LINE      ---      ---       #248
      00FFC086H   LINE      ---      ---       #249
      REG=4       REGSYM    ---      ---       pTimeStamp
      REG=5       REGSYM    ---      ---       pValue
      ---         BLOCKEND  ---      ---       LVL=0

      00FFA70EH   BLOCK     CODE     ---       LVL=0
      00FFA70EH   LINE      ---      ---       #252
      00FFA70EH   LINE      ---      ---       #254
      00FFA71AH   LINE      ---      ---       #256
      00FFA71FH   LINE      ---      ---       #257
      00FFA724H   LINE      ---      ---       #258
      00FFA729H   LINE      ---      ---       #260
      00FFA735H   LINE      ---      ---       #261
      00FFA73AH   LINE      ---      ---       #262
      00FFA73FH   LINE      ---      ---       #268
      ---         BLOCKEND  ---      ---       LVL=0

      ---         MODULE    ---      ---       hal_rfdb

      ---         MODULE    ---      ---       hal_sec
      00FF5C5FH   PUBLIC    CODE     ---       HALSEC_AesKeySet
      00FF5FC1H   PUBLIC    CODE     ---       HALSEC_AesKeyOnlySet
      00FF5FE2H   PUBLIC    CODE     ---       HALSEC_NonceOnlySet
      00FFC09EH   PUBLIC    CODE     ---       HALSEC_AesLevelOnlySet
      00FFC0C8H   PUBLIC    CODE     ---       HALSEC_AesSet
      00FF6FD2H   PUBLIC    CODE     ---       HALSEC_AesTxSet
      0000B594H   PUBLIC    EDATA    BYTE      ?HALSEC_AesSet?BYTE

      00FF5C5FH   BLOCK     CODE     ---       LVL=0
      00FF5C5FH   LINE      ---      ---       #23
      00FF5C65H   LINE      ---      ---       #35
      00FF5C78H   LINE      ---      ---       #39
      00FF5C85H   LINE      ---      ---       #40
      WR2         REGSYM    ---      INT       aesKeyType
      REG=0       REGSYM    ---      ---       pAesKey
      REG=7       REGSYM    ---      ---       pNonce
      ---         BLOCKEND  ---      ---       LVL=0

      00FF5FC1H   BLOCK     CODE     ---       LVL=0
      00FF5FC1H   LINE      ---      ---       #42
      00FF5FC3H   LINE      ---      ---       #53
      WR2         REGSYM    ---      INT       aesKeyType
      REG=0       REGSYM    ---      ---       pAesKey
      ---         BLOCKEND  ---      ---       LVL=0

      00FF5FD6H   BLOCK     CODE     ---       LVL=0
      00FF5FE2H   LINE      ---      ---       #57
      00FF5FE4H   LINE      ---      ---       #63
      00FF5FD6H   SYMBOL    CODE     NEAR LAB  ?L?COM002C
      REG=2       REGSYM    ---      ---       pNonce
      ---         BLOCKEND  ---      ---       LVL=0

      00FFC09EH   BLOCK     CODE     ---       LVL=0
      00FFC09EH   LINE      ---      ---       #66
      00FFC0A0H   LINE      ---      ---       #74
      00FFC0BCH   LINE      ---      ---       #77
      WR6         REGSYM    ---      INT       aesLevel
L251 LINKER/LOCATER V4.66.93.0                                                        02/16/2024  15:12:23  PAGE 192


      R10         REGSYM    ---      BYTE      bLoopback
      ---         BLOCKEND  ---      ---       LVL=0

      00FFC0C8H   BLOCK     CODE     ---       LVL=0
      00FFC0C8H   LINE      ---      ---       #80
      00FFC0CCH   LINE      ---      ---       #93
      00FFC0EAH   LINE      ---      ---       #96
      00FFC0FFH   LINE      ---      ---       #100
      00FFC10AH   LINE      ---      ---       #104
      00FFC115H   LINE      ---      ---       #107
      00FFC122H   LINE      ---      ---       #108
      00FFC12FH   LINE      ---      ---       #111
      00FFC13FH   LINE      ---      ---       #112
      WR6         REGSYM    ---      INT       aesLevel
      WR8         REGSYM    ---      INT       aesMode
      R10         REGSYM    ---      BYTE      bLoopback
      WR2         REGSYM    ---      WORD      aDataLength
      WR0         REGSYM    ---      WORD      mDataLength
      0000B59DH   SYMBOL    EDATA    WORD      bypassLen0
      0000B59FH   SYMBOL    EDATA    WORD      bypassLen1
      ---         BLOCKEND  ---      ---       LVL=0

      00FF6FD2H   BLOCK     CODE     ---       LVL=0
      00FF6FD2H   LINE      ---      ---       #114
      00FF6FD6H   LINE      ---      ---       #121
      00FF6FE1H   LINE      ---      ---       #125
      00FF6FECH   LINE      ---      ---       #126
      WR0         REGSYM    ---      WORD      aDataLength
      WR2         REGSYM    ---      WORD      mDataLength
      ---         BLOCKEND  ---      ---       LVL=0

      ---         MODULE    ---      ---       hal_rfk
      00FF4B82H   PUBLIC    CODE     ---       HALRFK_Calibration
      00FFAF1FH   PUBLIC    CODE     ---       HALRFK_kValueSet?_
      00FFAE92H   PUBLIC    CODE     ---       HALRFK_kValueSet2Hw
      00FFC140H   PUBLIC    CODE     ---       HALRFK_kValueGet?_

      00FF4B82H   BLOCK     CODE     ---       LVL=0
      00FF4B82H   LINE      ---      ---       #40
      00FF4B84H   LINE      ---      ---       #41
      00FF4B84H   BLOCK     CODE     NEAR LAB  LVL=1
      00FF4B84H   LINE      ---      ---       #42
      00FF4B8AH   LINE      ---      ---       #43
      00FF4B90H   LINE      ---      ---       #44
      00FF4B9CH   LINE      ---      ---       #51
      00FF4BA0H   LINE      ---      ---       #55
      00FF4BA4H   LINE      ---      ---       #56
      00FF4BA4H   LINE      ---      ---       #68
      00FF4BA7H   LINE      ---      ---       #71
      00FF4BAEH   LINE      ---      ---       #76
      00FF4BB3H   LINE      ---      ---       #103
      00FF4BB5H   LINE      ---      ---       #105
      00FF4BB9H   LINE      ---      ---       #106
      00FF4BBBH   LINE      ---      ---       #107
      00FF4BC1H   LINE      ---      ---       #108
      00FF4BC3H   LINE      ---      ---       #109
      00FF4BC5H   LINE      ---      ---       #110
      00FF4BCDH   LINE      ---      ---       #115
      00FF4BD2H   LINE      ---      ---       #125
      00FF4BD7H   LINE      ---      ---       #143
      00FF4BD9H   LINE      ---      ---       #145
      00FF4BDDH   LINE      ---      ---       #146
      00FF4BDFH   LINE      ---      ---       #147
      00FF4BE8H   LINE      ---      ---       #148
      00FF4BEAH   LINE      ---      ---       #149
L251 LINKER/LOCATER V4.66.93.0                                                        02/16/2024  15:12:23  PAGE 193


      00FF4BECH   LINE      ---      ---       #150
      00FF4BF4H   LINE      ---      ---       #155
      00FF4BFAH   LINE      ---      ---       #157
      00FF4BFEH   LINE      ---      ---       #158
      00FF4C00H   LINE      ---      ---       #159
      00FF4C09H   LINE      ---      ---       #160
      00FF4C0BH   LINE      ---      ---       #161
      00FF4C0DH   LINE      ---      ---       #162
      00FF4C15H   LINE      ---      ---       #167
      00FF4C1AH   LINE      ---      ---       #174
      WR14        REGSYM    ---      INT       rfBand
      WR6         REGSYM    ---      INT       rfkBand
      REG=6       REGSYM    ---      ---       pRfkCtrl
      0000B30BH   SYMBOL    EDATA    ---       sHalrfkParaBackup
      ---         BLOCKEND  CODE     ---       LVL=1
      00FF4C21H   LINE      ---      ---       #187
      00FF4C21H   LINE      CODE     ---       #187

      00FFAF1FH   BLOCK     CODE     ---       LVL=0
      00FFAF1FH   LINE      ---      ---       #218
      00FFAF25H   LINE      ---      ---       #226
      WR0         REGSYM    ---      INT       rfkBand
      R11         REGSYM    ---      BYTE      status
      R10         REGSYM    ---      BYTE      rxFilt
      REG=1       REGSYM    ---      ---       pTxLo
      FFFFFFFDH   STKSYM    ---      ---       pTxSb
      00FFAF25H   BLOCK     CODE     NEAR LAB  LVL=1
      00FFAF25H   LINE      ---      ---       #227
      00FFAF31H   LINE      ---      ---       #231
      00FFAF34H   LINE      ---      ---       #232
      00FFAF38H   LINE      ---      ---       #239
      00FFAF38H   LINE      ---      ---       #241
      00FFAF3FH   LINE      ---      ---       #242
      00FFAF47H   LINE      ---      ---       #243
      00FFAF52H   LINE      ---      ---       #244
      00FFAF5EH   LINE      ---      ---       #245
      00FFAF6AH   LINE      ---      ---       #248
      00FFAF74H   LINE      ---      ---       #249
      REG=4       REGSYM    ---      ---       pRfkCtrl
      ---         BLOCKEND  CODE     ---       LVL=1
      00FFAF76H   LINE      ---      ---       #250
      00FFAF76H   LINE      CODE     ---       #250

      00FFAE92H   BLOCK     CODE     ---       LVL=0
      00FFAE92H   LINE      ---      ---       #253
      00FFAE92H   LINE      ---      ---       #254
      00FFAE92H   BLOCK     CODE     NEAR LAB  LVL=1
      00FFAE92H   LINE      ---      ---       #255
      00FFAE9FH   LINE      ---      ---       #258
      00FFAEA7H   LINE      ---      ---       #263
      00FFAEABH   LINE      ---      ---       #265
      00FFAEADH   LINE      ---      ---       #271
      00FFAEB8H   LINE      ---      ---       #273
      00FFAEB8H   LINE      ---      ---       #292
      00FFAEBDH   LINE      ---      ---       #294
      00FFAEC8H   LINE      ---      ---       #295
      00FFAECCH   LINE      ---      ---       #296
      00FFAECEH   LINE      ---      ---       #299
      00FFAED6H   LINE      ---      ---       #300
      00FFAEDDH   LINE      ---      ---       #301
      00FFAEDDH   LINE      ---      ---       #303
      00FFAEE2H   LINE      ---      ---       #305
      00FFAEEDH   LINE      ---      ---       #306
      00FFAEF8H   LINE      ---      ---       #307
      00FFAF03H   LINE      ---      ---       #308
L251 LINKER/LOCATER V4.66.93.0                                                        02/16/2024  15:12:23  PAGE 194


      00FFAF04H   LINE      ---      ---       #311
      00FFAF0DH   LINE      ---      ---       #312
      00FFAF15H   LINE      ---      ---       #313
      00FFAF1EH   LINE      ---      ---       #314
      00FFAF1EH   LINE      ---      ---       #319
      REG=3       REGSYM    ---      ---       pRfkCtrl
      ---         BLOCKEND  CODE     ---       LVL=1
      00FFAF1EH   LINE      ---      ---       #321
      00FFAF1EH   LINE      CODE     ---       #321

      00FFC140H   BLOCK     CODE     ---       LVL=0
      00FFC140H   LINE      ---      ---       #324
      00FFC148H   LINE      ---      ---       #331
      REG=5       REGSYM    ---      ---       pStatus
      REG=0       REGSYM    ---      ---       pRxFilt
      REG=1       REGSYM    ---      ---       pRxTiaDc
      REG=7       REGSYM    ---      ---       pTxLo
      FFFFFFF9H   STKSYM    ---      ---       pTxSb
      00FFC148H   BLOCK     CODE     NEAR LAB  LVL=1
      00FFC148H   LINE      ---      ---       #332
      00FFC155H   LINE      ---      ---       #334
      00FFC15BH   LINE      ---      ---       #335
      00FFC162H   LINE      ---      ---       #336
      00FFC171H   LINE      ---      ---       #337
      00FFC180H   LINE      ---      ---       #338
      REG=6       REGSYM    ---      ---       pRfkCtrl
      ---         BLOCKEND  CODE     ---       LVL=1
      00FFC191H   LINE      ---      ---       #339
      00FFC191H   LINE      CODE     ---       #339

      ---         MODULE    ---      ---       hal_io
      00FFC194H   PUBLIC    CODE     ---       HALIO_dioSet
      00000080H   SFRSYM    DATA     BYTE      P0

      00FFC194H   BLOCK     CODE     ---       LVL=0
      00FFC194H   LINE      ---      ---       #24
      00FFC194H   LINE      ---      ---       #33
      00FFC1B2H   LINE      ---      ---       #34
      00FFC1BDH   LINE      ---      ---       #53
      00FFC1C0H   LINE      ---      ---       #54
      ---         BLOCKEND  ---      ---       LVL=0

      ---         MODULE    ---      ---       hal_init
      00FFC1C1H   PUBLIC    CODE     ---       HAL_ParaInit
      00FFC2AAH   PUBLIC    CODE     ---       HAL_ColdInit
      00FFAD2DH   PUBLIC    CODE     ---       HAL_DftParaGet
      0000AEDDH   PUBLIC    EDATA    ---       pHalFwCfg
      0000AEE1H   PUBLIC    EDATA    ---       pHalRegPatch
      0000AEE5H   PUBLIC    EDATA    ---       pHalHwCfg
      0000AEE9H   PUBLIC    EDATA    ---       pHalMdmDefaultCfg
      0000AEEDH   PUBLIC    EDATA    ---       pHalRfDefaultCfg2G
      0000AEF1H   PUBLIC    EDATA    ---       pHalRfDefaultCfgSubG
      0000AEF5H   PUBLIC    EDATA    ---       pHalPmuDefaultCfg2G
      0000AEF9H   PUBLIC    EDATA    ---       pHalPmuDefaultCfgSubG
      0000AEFDH   PUBLIC    EDATA    ---       pHalBmuMemSizeHwRxq
      0000AF01H   PUBLIC    EDATA    ---       pHalBmuMemSizeHwSwRxq
      0000AF05H   PUBLIC    EDATA    ---       pHalHwPara
      0000AF09H   PUBLIC    EDATA    ---       pHalHwTab
      0000AF0DH   PUBLIC    EDATA    ---       sHalCtrl
      0000B03BH   PUBLIC    EDATA    ---       sHalPktCfg
      0000B06AH   PUBLIC    EDATA    ---       pHalPktCfg
      0000B06CH   PUBLIC    EDATA    ---       sHalFuncHdlr
      0000B0B0H   PUBLIC    EDATA    ---       pHalPrtclCfg
      00FF11F4H   PUBLIC    HCONST   ---       sHalParaIndDefault

L251 LINKER/LOCATER V4.66.93.0                                                        02/16/2024  15:12:23  PAGE 195


      00FFAD2DH   BLOCK     CODE     ---       LVL=0
      00FFAD2DH   LINE      ---      ---       #263
      00FFAD2FH   LINE      ---      ---       #266
      WR2         REGSYM    ---      INT       halType
      00FFAD2FH   BLOCK     CODE     NEAR LAB  LVL=1
      00FFAD2FH   LINE      ---      ---       #274
      00FFAD37H   LINE      ---      ---       #276
      REG=1       REGSYM    ---      ---       pHalParaInd
      ---         BLOCKEND  CODE     ---       LVL=1
      00FFAD4DH   LINE      ---      ---       #277
      00FFAD4DH   LINE      CODE     ---       #277

      00FFC1C1H   BLOCK     CODE     ---       LVL=0
      00FFC1C1H   LINE      ---      ---       #279
      00FFC1C1H   LINE      ---      ---       #296
      00FFC1CFH   LINE      ---      ---       #297
      00FFC1DDH   LINE      ---      ---       #306
      00FFC1EFH   LINE      ---      ---       #317
      00FFC201H   LINE      ---      ---       #334
      00FFC213H   LINE      ---      ---       #337
      00FFC225H   LINE      ---      ---       #356
      00FFC237H   LINE      ---      ---       #359
      00FFC249H   LINE      ---      ---       #373
      00FFC25BH   LINE      ---      ---       #374
      00FFC26DH   LINE      ---      ---       #383
      00FFC27FH   LINE      ---      ---       #391
      00FFC291H   LINE      ---      ---       #399
      00FFC2A3H   LINE      ---      ---       #407
      00FFC2A9H   LINE      ---      ---       #410
      ---         BLOCKEND  ---      ---       LVL=0

      00FFC2AAH   BLOCK     CODE     ---       LVL=0
      00FFC2AAH   LINE      ---      ---       #412
      00FFC2AAH   LINE      ---      ---       #420
      00FFC2B0H   LINE      ---      ---       #421
      00FFC2B4H   LINE      ---      ---       #422
      00FFC2CAH   LINE      ---      ---       #423
      ---         BLOCKEND  ---      ---       LVL=0

      ---         MODULE    ---      ---       hal_patch

      ---         MODULE    ---      ---       hal_prtcl
      00FF12A6H   PUBLIC    HCONST   ---       sHalPrtclCfg

      ---         MODULE    ---      ---       hal_rt569mp_init
      00FFAA08H   PUBLIC    CODE     ---       HAL_HwInit

      00FFAA08H   BLOCK     CODE     ---       LVL=0
      00FFAA08H   LINE      ---      ---       #27
      00FFAA16H   LINE      ---      ---       #34
      00FFAA1AH   LINE      ---      ---       #35
      00FFAA1EH   LINE      ---      ---       #36
      00FFAA22H   LINE      ---      ---       #145
      00FFAA31H   LINE      ---      ---       #148
      00FFAA41H   LINE      ---      ---       #151
      00FFAA41H   LINE      ---      ---       #152
      00FFAA50H   LINE      ---      ---       #153
      00FFAA5FH   LINE      ---      ---       #154
      00FFAA6BH   LINE      ---      ---       #158
      00FFAA70H   LINE      ---      ---       #159
      00FFAA7BH   LINE      ---      ---       #162
      00FFAA84H   LINE      ---      ---       #164
      00FFAA86H   LINE      ---      ---       #168
      00FFAA86H   LINE      ---      ---       #169
      00FFAA95H   LINE      ---      ---       #170
L251 LINKER/LOCATER V4.66.93.0                                                        02/16/2024  15:12:23  PAGE 196


      00FFAAA4H   LINE      ---      ---       #171
      00FFAAB0H   LINE      ---      ---       #174
      00FFAABCH   LINE      ---      ---       #175
      00FFAAC8H   LINE      ---      ---       #176
      00FFAACDH   LINE      ---      ---       #177
      00FFAAD9H   LINE      ---      ---       #178
      00FFAAE2H   LINE      ---      ---       #179
      00FFAAEEH   LINE      ---      ---       #180
      00FFAAFAH   LINE      ---      ---       #182
      00FFAB11H   LINE      ---      ---       #191
      00FFAB1DH   LINE      ---      ---       #192
      00FFAB2BH   LINE      ---      ---       #193
      00FFAB30H   LINE      ---      ---       #194
      00FFAB3CH   LINE      ---      ---       #196
      00FFAB44H   LINE      ---      ---       #198
      00FFAB4DH   LINE      ---      ---       #199
      00FFAB59H   LINE      ---      ---       #200
      00FFAB65H   LINE      ---      ---       #203
      00FFAB71H   LINE      ---      ---       #204
      00FFAB7FH   LINE      ---      ---       #205
      00FFAB8BH   LINE      ---      ---       #206
      00FFAB99H   LINE      ---      ---       #210
      00FFABA7H   LINE      ---      ---       #211
      00FFABB3H   LINE      ---      ---       #212
      00FFABBFH   LINE      ---      ---       #213
      00FFABC6H   LINE      ---      ---       #241
      00FFABCEH   LINE      ---      ---       #243
      00FFABCEH   LINE      ---      ---       #244
      00FFABDAH   LINE      ---      ---       #245
      00FFABE8H   LINE      ---      ---       #246
      00FFABE8H   LINE      ---      ---       #247
      00FFABE8H   LINE      ---      ---       #249
      00FFABE8H   LINE      ---      ---       #251
      00FFABE8H   LINE      ---      ---       #254
      00FFABEEH   LINE      ---      ---       #257
      00FFABF4H   LINE      ---      ---       #260
      00FFABF7H   LINE      ---      ---       #263
      00FFAC0DH   LINE      ---      ---       #275
      00FFAC19H   LINE      ---      ---       #290
      00FFAC37H   LINE      ---      ---       #292
      00FFAC42H   LINE      ---      ---       #295
      00FFAC44H   LINE      ---      ---       #301
      00FFAC55H   LINE      ---      ---       #304
      00FFAC57H   LINE      ---      ---       #307
      00FFAC61H   LINE      ---      ---       #318
      00FFAC6AH   LINE      ---      ---       #319
      00FFAC72H   LINE      ---      ---       #325
      0000B5A1H   SYMBOL    EDATA    INT       rfBand
      WR14        REGSYM    ---      INT       rfkBand
      WR12        REGSYM    ---      INT       modem
      0000B5A3H   SYMBOL    EDATA    INT       clkMode
      ---         BLOCKEND  ---      ---       LVL=0

      ---         MODULE    ---      ---       rt569mp_mem
      00FF1363H   PUBLIC    HCONST   ---       pMemMapSharedBuffer
      00FF1365H   PUBLIC    HCONST   ---       pMemMapExtData
      00FF1367H   PUBLIC    HCONST   ---       pMemMapBmuLinkTable

      ---         MODULE    ---      ---       rt569mp_reg
      00FF0006H   PUBLIC    HCONST   ---       pBmuMacIntrSts

      ---         MODULE    ---      ---       hal_rt569mp_rfk
      00FFC2CBH   PUBLIC    CODE     ---       HALRFK_ParaBackUp
      00FFC43CH   PUBLIC    CODE     ---       HALRFK_ParaRecover
      00FF4C53H   PUBLIC    CODE     ---       HALRFK_SingleToneEnable
L251 LINKER/LOCATER V4.66.93.0                                                        02/16/2024  15:12:23  PAGE 197


      00FF4C24H   PUBLIC    CODE     ---       HALRFK_SingleToneDisable
      00FF4D8AH   PUBLIC    CODE     ---       HALRFK_PllForLokSet
      00FFC68EH   PUBLIC    CODE     ---       HALRFK_TxLok
      00FF4DA9H   PUBLIC    CODE     ---       HALRFK_PllForSideBandKSet
      00FFC712H   PUBLIC    CODE     ---       HALRFK_TxSbk
      00FFC4E8H   PUBLIC    CODE     ---       HALRFK_LbPathEnable
      00FFC7E0H   PUBLIC    CODE     ---       HALRFK_LbPathDisable
      00FF4B13H   PUBLIC    CODE     ---       HALRFK_LbTrxEnable
      00FF4C31H   PUBLIC    CODE     ---       HALRFK_LbTrxDisable
      00FF4E25H   PUBLIC    CODE     ---       HALRFK_PllForFiltKSet
      00FF4CE6H   PUBLIC    CODE     ---       HALRFK_RxFiltK
      00FFC807H   PUBLIC    CODE     ---       HALRFK_RxPathEnable
      00FFC877H   PUBLIC    CODE     ---       HALRFK_RxPathDisable
      00FFA740H   PUBLIC    CODE     ---       HALRFK_RxEnable
      00FFC8A2H   PUBLIC    CODE     ---       HALRFK_RxDisable
      00FFC59EH   PUBLIC    CODE     ---       HALRFK_RingPllSet
      00FF4C7CH   PUBLIC    CODE     ---       HALRFK_RssiGet
      00FF4DCFH   PUBLIC    CODE     ---       HALRFK_RfGainCfg
      00FF4F3BH   PUBLIC    CODE     ---       HALRFK_RfPllCfg
      00FF4E8CH   PUBLIC    CODE     ---       HALRFK_RfTxCfg
      00FFC3C7H   PUBLIC    CODE     ---       HALRFK_RxBwCfg
      0000B5A5H   PUBLIC    EDATA    ---       sHalRfkCtrl
      0000B5BAH   PUBLIC    EDATA    BYTE      ?HALRFK_RingPllSet?BYTE

      00FFC59EH   BLOCK     CODE     ---       LVL=0
      00FFC59EH   LINE      ---      ---       #211
      00FFC5A0H   LINE      ---      ---       #225
      00FFC5B3H   LINE      ---      ---       #226
      00FFC5C6H   LINE      ---      ---       #227
      00FFC5DAH   LINE      ---      ---       #228
      00FFC5F0H   LINE      ---      ---       #229
      00FFC604H   LINE      ---      ---       #230
      00FFC616H   LINE      ---      ---       #231
      00FFC62BH   LINE      ---      ---       #232
      00FFC641H   LINE      ---      ---       #233
      00FFC657H   LINE      ---      ---       #234
      00FFC65DH   LINE      ---      ---       #235
      00FFC670H   LINE      ---      ---       #237
      00FFC68DH   LINE      ---      ---       #238
      WR30        REGSYM    ---      INT       band
      R11         REGSYM    ---      BYTE      divNum
      R9          REGSYM    ---      BYTE      divNum2
      R10         REGSYM    ---      BYTE      calDiv
      R3          REGSYM    ---      BYTE      div2ClkRing
      R2          REGSYM    ---      BYTE      manuBank
      R1          REGSYM    ---      BYTE      bank1
      R0          REGSYM    ---      BYTE      iniBank
      0000B5C3H   SYMBOL    EDATA    BYTE      bypRst
      0000B5C4H   SYMBOL    EDATA    BYTE      tuneBuff
      0000B5C5H   SYMBOL    EDATA    BYTE      calBuf
      ---         BLOCKEND  ---      ---       LVL=0

      00FF4C70H   BLOCK     CODE     ---       LVL=0
      00FF4C7CH   LINE      ---      ---       #240
      00FF4C82H   LINE      ---      ---       #244
      00FF4C70H   SYMBOL    CODE     NEAR LAB  ?L?COM0021
      WR4         REGSYM    ---      WORD      extraDelay
      R15         REGSYM    ---      BYTE      rssiAvg
      00FF4C82H   BLOCK     CODE     NEAR LAB  LVL=1
      00FF4C82H   LINE      ---      ---       #251
      00FF4C8EH   LINE      ---      ---       #253
      00FF4C94H   LINE      ---      ---       #255
      00FF4CA0H   LINE      ---      ---       #258
      00FF4CA2H   LINE      ---      ---       #259
      00FF4CA6H   LINE      ---      ---       #261
L251 LINKER/LOCATER V4.66.93.0                                                        02/16/2024  15:12:23  PAGE 198


      00FF4CACH   LINE      ---      ---       #262
      00FF4CB7H   LINE      ---      ---       #263
      00FF4CBFH   LINE      ---      ---       #264
      00FF4CD6H   LINE      ---      ---       #266
      WR12        REGSYM    ---      INT       rssiAcc
      0000B5EEH   SYMBOL    EDATA    CHAR      rssiTemp
      R14         REGSYM    ---      BYTE      idx
      ---         BLOCKEND  CODE     ---       LVL=1
      00FF4CE3H   LINE      ---      ---       #267
      00FF4CE3H   LINE      CODE     ---       #267

      00FF4DC8H   BLOCK     CODE     ---       LVL=0
      00FF4DCFH   LINE      ---      ---       #269
      00FF4DD5H   LINE      ---      ---       #275
      00FF4DE3H   LINE      ---      ---       #276
      00FF4DF7H   LINE      ---      ---       #277
      00FF4E07H   LINE      ---      ---       #278
      00FF4E0EH   LINE      ---      ---       #279
      00FF4DC8H   SYMBOL    CODE     NEAR LAB  ?L?COM003D
      R10         REGSYM    ---      BYTE      lnaGain
      R2          REGSYM    ---      BYTE      vgaGain
      R3          REGSYM    ---      BYTE      tiaGain
      ---         BLOCKEND  ---      ---       LVL=0

      00FF4F3BH   BLOCK     CODE     ---       LVL=0
      00FF4F3BH   LINE      ---      ---       #282
      00FF4F41H   LINE      ---      ---       #291
      00FF4F54H   LINE      ---      ---       #292
      00FF4F6BH   LINE      ---      ---       #293
      00FF4F76H   LINE      ---      ---       #294
      00FF4F8AH   LINE      ---      ---       #295
      00FF4F9EH   LINE      ---      ---       #296
      00FF4FA5H   LINE      ---      ---       #297
      R11         REGSYM    ---      BYTE      pllN
      R9          REGSYM    ---      BYTE      pllS
      WR0         REGSYM    ---      WORD      pllSDM
      R10         REGSYM    ---      BYTE      mod
      R3          REGSYM    ---      BYTE      mod46
      R2          REGSYM    ---      BYTE      selVco
      ---         BLOCKEND  ---      ---       LVL=0

      00FF4E78H   BLOCK     CODE     ---       LVL=0
      00FF4E8CH   LINE      ---      ---       #315
      00FF4E96H   LINE      ---      ---       #326
      00FF4EA9H   LINE      ---      ---       #327
      00FF4EC2H   LINE      ---      ---       #328
      00FF4ED9H   LINE      ---      ---       #329
      00FF4EEDH   LINE      ---      ---       #330
      00FF4F00H   LINE      ---      ---       #331
      00FF4F10H   LINE      ---      ---       #332
      00FF4F2AH   LINE      ---      ---       #333
      00FF4E78H   SYMBOL    CODE     NEAR LAB  ?L?COM000E
      R11         REGSYM    ---      BYTE      regGainAttRefBle
      R8          REGSYM    ---      BYTE      gainPre
      R9          REGSYM    ---      BYTE      pwPa
      R0          REGSYM    ---      BYTE      pwD2s
      R1          REGSYM    ---      BYTE      pabPreSze
      R3          REGSYM    ---      BYTE      gainPa
      R2          REGSYM    ---      BYTE      pabPwPre
      R10         REGSYM    ---      BYTE      gainPaBit2
      ---         BLOCKEND  ---      ---       LVL=0

      00FFC3C7H   BLOCK     CODE     ---       LVL=0
      00FFC3C7H   LINE      ---      ---       #342
      00FFC3C7H   LINE      ---      ---       #345
L251 LINKER/LOCATER V4.66.93.0                                                        02/16/2024  15:12:23  PAGE 199


      00FFC3D0H   LINE      ---      ---       #346
      00FFC3DEH   LINE      ---      ---       #347
      00FFC3E5H   LINE      ---      ---       #351
      00FFC3F8H   LINE      ---      ---       #360
      00FFC40BH   LINE      ---      ---       #367
      00FFC41EH   LINE      ---      ---       #373
      00FFC427H   LINE      ---      ---       #376
      00FFC433H   LINE      ---      ---       #377
      00FFC43BH   LINE      ---      ---       #378
      ---         BLOCKEND  ---      ---       LVL=0

      00FFC2CBH   BLOCK     CODE     ---       LVL=0
      00FFC2CBH   LINE      ---      ---       #380
      00FFC2CFH   LINE      ---      ---       #392
      00FFC2DCH   LINE      ---      ---       #393
      00FFC2EAH   LINE      ---      ---       #394
      00FFC2F7H   LINE      ---      ---       #395
      00FFC302H   LINE      ---      ---       #396
      00FFC30FH   LINE      ---      ---       #397
      00FFC31CH   LINE      ---      ---       #398
      00FFC32BH   LINE      ---      ---       #399
      00FFC336H   LINE      ---      ---       #400
      00FFC343H   LINE      ---      ---       #404
      00FFC350H   LINE      ---      ---       #405
      00FFC35DH   LINE      ---      ---       #406
      00FFC36BH   LINE      ---      ---       #407
      00FFC37AH   LINE      ---      ---       #411
      00FFC384H   LINE      ---      ---       #414
      00FFC393H   LINE      ---      ---       #415
      00FFC39EH   LINE      ---      ---       #416
      00FFC3A9H   LINE      ---      ---       #417
      00FFC3BAH   LINE      ---      ---       #420
      00FFC3C2H   LINE      ---      ---       #423
      00FFC3C4H   LINE      ---      ---       #428
      REG=7       REGSYM    ---      ---       pPara
      ---         BLOCKEND  ---      ---       LVL=0

      00FFC43CH   BLOCK     CODE     ---       LVL=0
      00FFC43CH   LINE      ---      ---       #430
      00FFC440H   LINE      ---      ---       #435
      00FFC445H   LINE      ---      ---       #436
      00FFC45DH   LINE      ---      ---       #442
      00FFC480H   LINE      ---      ---       #448
      00FFC48AH   LINE      ---      ---       #451
      00FFC4A6H   LINE      ---      ---       #452
      00FFC4B1H   LINE      ---      ---       #453
      00FFC4BCH   LINE      ---      ---       #454
      00FFC4CDH   LINE      ---      ---       #455
      REG=7       REGSYM    ---      ---       pPara
      ---         BLOCKEND  ---      ---       LVL=0

      00FF4C4FH   BLOCK     CODE     ---       LVL=0
      00FF4C53H   LINE      ---      ---       #457
      00FF4C55H   LINE      ---      ---       #463
      00FF4C5CH   LINE      ---      ---       #464
      00FF4C63H   LINE      ---      ---       #467
      00FF4C6FH   LINE      ---      ---       #468
      00FF4C4FH   SYMBOL    CODE     NEAR LAB  ?L?COM0042
      R11         REGSYM    ---      BYTE      stI
      R4          REGSYM    ---      BYTE      stQ
      ---         BLOCKEND  ---      ---       LVL=0

      00FF4C24H   BLOCK     CODE     ---       LVL=0
      00FF4C24H   LINE      ---      ---       #470
      00FF4C24H   LINE      ---      ---       #473
L251 LINKER/LOCATER V4.66.93.0                                                        02/16/2024  15:12:23  PAGE 200


      00FF4C30H   LINE      ---      ---       #474
      ---         BLOCKEND  ---      ---       LVL=0

      00FF4D8AH   BLOCK     CODE     ---       LVL=0
      00FF4D8AH   LINE      ---      ---       #478
      00FF4D8EH   LINE      ---      ---       #486
      00FF4D90H   LINE      ---      ---       #488
      00FF4D94H   LINE      ---      ---       #497
      00FF4D94H   LINE      ---      ---       #499
      00FF4DA6H   LINE      ---      ---       #500
      00FF4DA6H   LINE      ---      ---       #502
      00FF4DA6H   LINE      ---      ---       #503
      WR14        REGSYM    ---      INT       rfBand
      ---         BLOCKEND  ---      ---       LVL=0

      00FFC68EH   BLOCK     CODE     ---       LVL=0
      00FFC68EH   LINE      ---      ---       #505
      00FFC692H   LINE      ---      ---       #508
      REG=7       REGSYM    ---      ---       pDcOffset
      00FFC692H   BLOCK     CODE     NEAR LAB  LVL=1
      00FFC692H   LINE      ---      ---       #527
      00FFC698H   LINE      ---      ---       #528
      00FFC69DH   LINE      ---      ---       #529
      00FFC69FH   LINE      ---      ---       #533
      00FFC6A2H   LINE      ---      ---       #537
      00FFC6A9H   LINE      ---      ---       #542
      00FFC6AFH   LINE      ---      ---       #546
      00FFC6BAH   LINE      ---      ---       #552
      00FFC6C1H   LINE      ---      ---       #554
      00FFC6CBH   LINE      ---      ---       #556
      00FFC6D3H   LINE      ---      ---       #557
      00FFC6D7H   LINE      ---      ---       #558
      00FFC6DBH   LINE      ---      ---       #559
      00FFC6EEH   LINE      ---      ---       #571
      00FFC6F6H   LINE      ---      ---       #574
      00FFC701H   LINE      ---      ---       #575
      00FFC708H   LINE      ---      ---       #576
      00FFC70BH   LINE      ---      ---       #577
      0000B5A9H   SYMBOL    EDATA    CHAR      rssiMin
      0000B5AAH   SYMBOL    EDATA    CHAR      rssiTemp
      0000B5ABH   SYMBOL    EDATA    CHAR      minI
      R13         REGSYM    ---      CHAR      minQ
      R12         REGSYM    ---      CHAR      iIdx
      0000B5ACH   SYMBOL    EDATA    CHAR      qIdx
      ---         BLOCKEND  CODE     ---       LVL=1
      00FFC70FH   LINE      ---      ---       #578
      00FFC70FH   LINE      CODE     ---       #578

      00FF4DA9H   BLOCK     CODE     ---       LVL=0
      00FF4DA9H   LINE      ---      ---       #582
      00FF4DADH   LINE      ---      ---       #590
      00FF4DAFH   LINE      ---      ---       #592
      00FF4DB3H   LINE      ---      ---       #601
      00FF4DB3H   LINE      ---      ---       #603
      00FF4DC5H   LINE      ---      ---       #605
      00FF4DC5H   LINE      ---      ---       #606
      WR14        REGSYM    ---      INT       rfBand
      ---         BLOCKEND  ---      ---       LVL=0

      00FFC712H   BLOCK     CODE     ---       LVL=0
      00FFC712H   LINE      ---      ---       #608
      00FFC716H   LINE      ---      ---       #611
      REG=7       REGSYM    ---      ---       pIqc
      00FFC716H   BLOCK     CODE     NEAR LAB  LVL=1
      00FFC716H   LINE      ---      ---       #632
L251 LINKER/LOCATER V4.66.93.0                                                        02/16/2024  15:12:23  PAGE 201


      00FFC71CH   LINE      ---      ---       #633
      00FFC720H   LINE      ---      ---       #634
      00FFC725H   LINE      ---      ---       #635
      00FFC72BH   LINE      ---      ---       #636
      00FFC737H   LINE      ---      ---       #640
      00FFC73BH   LINE      ---      ---       #644
      00FFC749H   LINE      ---      ---       #645
      00FFC754H   LINE      ---      ---       #646
      00FFC75FH   LINE      ---      ---       #652
      00FFC76CH   LINE      ---      ---       #654
      00FFC776H   LINE      ---      ---       #656
      00FFC77EH   LINE      ---      ---       #657
      00FFC789H   LINE      ---      ---       #658
      00FFC791H   LINE      ---      ---       #659
      00FFC799H   LINE      ---      ---       #660
      00FFC799H   LINE      ---      ---       #663
      00FFC7A5H   LINE      ---      ---       #674
      00FFC7A9H   LINE      ---      ---       #676
      00FFC7B4H   LINE      ---      ---       #677
      00FFC7BFH   LINE      ---      ---       #678
      00FFC7CAH   LINE      ---      ---       #679
      00FFC7CDH   LINE      ---      ---       #680
      00FFC7D5H   LINE      ---      ---       #681
      0000B508H   SYMBOL    EDATA    CHAR      rssiMin
      0000B509H   SYMBOL    EDATA    CHAR      rssiTemp
      0000B50AH   SYMBOL    EDATA    CHAR      minA
      0000B50BH   SYMBOL    EDATA    CHAR      minB
      0000B50CH   SYMBOL    EDATA    CHAR      minC
      WR12        REGSYM    ---      WORD      idx
      0000B50DH   SYMBOL    EDATA    ---       pSbkCand
      ---         BLOCKEND  CODE     ---       LVL=1
      00FFC7DDH   LINE      ---      ---       #682
      00FFC7DDH   LINE      CODE     ---       #682

      00FFC4E8H   BLOCK     CODE     ---       LVL=0
      00FFC4E8H   LINE      ---      ---       #702
      00FFC4EAH   LINE      ---      ---       #707
      00FFC4F5H   LINE      ---      ---       #708
      00FFC500H   LINE      ---      ---       #711
      00FFC50EH   LINE      ---      ---       #712
      00FFC51CH   LINE      ---      ---       #713
      00FFC526H   LINE      ---      ---       #716
      00FFC532H   LINE      ---      ---       #717
      00FFC536H   LINE      ---      ---       #718
      00FFC53AH   LINE      ---      ---       #732
      00FFC53AH   LINE      ---      ---       #735
      00FFC542H   LINE      ---      ---       #736
      00FFC56DH   LINE      ---      ---       #738
      00FFC579H   LINE      ---      ---       #739
      00FFC585H   LINE      ---      ---       #740
      00FFC591H   LINE      ---      ---       #741
      00FFC59DH   LINE      ---      ---       #742
      00FFC59DH   LINE      ---      ---       #744
      00FFC59DH   LINE      ---      ---       #745
      WR2         REGSYM    ---      INT       rfBand
      ---         BLOCKEND  ---      ---       LVL=0

      00FFC7E0H   BLOCK     CODE     ---       LVL=0
      00FFC7E0H   LINE      ---      ---       #747
      00FFC7E2H   LINE      ---      ---       #752
      00FFC7EEH   LINE      ---      ---       #753
      00FFC7F2H   LINE      ---      ---       #766
      00FFC7F2H   LINE      ---      ---       #769
      00FFC7FAH   LINE      ---      ---       #771
      00FFC806H   LINE      ---      ---       #772
L251 LINKER/LOCATER V4.66.93.0                                                        02/16/2024  15:12:23  PAGE 202


      00FFC806H   LINE      ---      ---       #774
      00FFC806H   LINE      ---      ---       #775
      WR4         REGSYM    ---      INT       rfBand
      ---         BLOCKEND  ---      ---       LVL=0

      00FF4B13H   BLOCK     CODE     ---       LVL=0
      00FF4B13H   LINE      ---      ---       #777
      00FF4B15H   LINE      ---      ---       #778
      00FF4B15H   BLOCK     CODE     NEAR LAB  LVL=1
      00FF4B15H   LINE      ---      ---       #784
      00FF4B21H   LINE      ---      ---       #794
      00FF4B2DH   LINE      ---      ---       #795
      00FF4B37H   LINE      ---      ---       #796
      00FF4B50H   LINE      ---      ---       #797
      00FF4B64H   LINE      ---      ---       #800
      00FF4B71H   LINE      ---      ---       #801
      00FF4B75H   LINE      ---      ---       #802
      R15         REGSYM    ---      BYTE      bandSel
      ---         BLOCKEND  CODE     ---       LVL=1
      00FF4B7FH   LINE      ---      ---       #814
      00FF4B7FH   LINE      CODE     ---       #814

      00FF4C31H   BLOCK     CODE     ---       LVL=0
      00FF4C31H   LINE      ---      ---       #816
      00FF4C31H   LINE      ---      ---       #819
      00FF4C3DH   LINE      ---      ---       #820
      00FF4C49H   LINE      ---      ---       #821
      00FF4C4EH   LINE      ---      ---       #822
      ---         BLOCKEND  ---      ---       LVL=0

      00FF4E25H   BLOCK     CODE     ---       LVL=0
      00FF4E25H   LINE      ---      ---       #854
      00FF4E29H   LINE      ---      ---       #862
      00FF4E33H   LINE      ---      ---       #864
      00FF4E37H   LINE      ---      ---       #878
      00FF4E37H   LINE      ---      ---       #880
      00FF4E49H   LINE      ---      ---       #882
      00FF4E51H   LINE      ---      ---       #883
      00FF4E59H   LINE      ---      ---       #884
      00FF4E67H   LINE      ---      ---       #885
      00FF4E75H   LINE      ---      ---       #886
      00FF4E75H   LINE      ---      ---       #888
      00FF4E75H   LINE      ---      ---       #889
      WR14        REGSYM    ---      INT       rfBand
      ---         BLOCKEND  ---      ---       LVL=0

      00FF4CE6H   BLOCK     CODE     ---       LVL=0
      00FF4CE6H   LINE      ---      ---       #891
      00FF4CEAH   LINE      ---      ---       #894
      REG=7       REGSYM    ---      ---       pFiltCap
      00FF4CEAH   BLOCK     CODE     NEAR LAB  LVL=1
      00FF4CEAH   LINE      ---      ---       #924
      00FF4CF0H   LINE      ---      ---       #925
      00FF4CF4H   LINE      ---      ---       #929
      00FF4CFAH   LINE      ---      ---       #933
      00FF4D05H   LINE      ---      ---       #936
      00FF4D17H   LINE      ---      ---       #942
      00FF4D1DH   LINE      ---      ---       #954
      00FF4D31H   LINE      ---      ---       #957
      00FF4D55H   LINE      ---      ---       #994
      00FF4D5BH   LINE      ---      ---       #996
      00FF4D5FH   LINE      ---      ---       #997
      00FF4D67H   LINE      ---      ---       #1013
      00FF4D79H   LINE      ---      ---       #1017
      00FF4D84H   LINE      ---      ---       #1018
L251 LINKER/LOCATER V4.66.93.0                                                        02/16/2024  15:12:23  PAGE 203


      0000B568H   SYMBOL    EDATA    BYTE      minCap
      0000B569H   SYMBOL    EDATA    BYTE      cIdx
      0000B56AH   SYMBOL    EDATA    CHAR      rssiRef
      0000B56BH   SYMBOL    EDATA    CHAR      rssiTemp1
      WR12        REGSYM    ---      INT       minRssiDiff
      0000B56CH   SYMBOL    EDATA    INT       rssiDiff
      ---         BLOCKEND  CODE     ---       LVL=1
      00FF4D87H   LINE      ---      ---       #1024
      00FF4D87H   LINE      CODE     ---       #1024

      00FFC807H   BLOCK     CODE     ---       LVL=0
      00FFC807H   LINE      ---      ---       #1028
      00FFC809H   LINE      ---      ---       #1033
      00FFC814H   LINE      ---      ---       #1034
      00FFC81BH   LINE      ---      ---       #1037
      00FFC829H   LINE      ---      ---       #1038
      00FFC837H   LINE      ---      ---       #1039
      00FFC841H   LINE      ---      ---       #1042
      00FFC85AH   LINE      ---      ---       #1043
      00FFC85EH   LINE      ---      ---       #1054
      00FFC85EH   LINE      ---      ---       #1056
      00FFC86AH   LINE      ---      ---       #1057
      00FFC876H   LINE      ---      ---       #1058
      00FFC876H   LINE      ---      ---       #1060
      00FFC876H   LINE      ---      ---       #1061
      WR2         REGSYM    ---      INT       rfBand
      ---         BLOCKEND  ---      ---       LVL=0

      00FFC877H   BLOCK     CODE     ---       LVL=0
      00FFC877H   LINE      ---      ---       #1063
      00FFC879H   LINE      ---      ---       #1068
      00FFC885H   LINE      ---      ---       #1069
      00FFC889H   LINE      ---      ---       #1081
      00FFC889H   LINE      ---      ---       #1084
      00FFC895H   LINE      ---      ---       #1085
      00FFC8A1H   LINE      ---      ---       #1086
      00FFC8A1H   LINE      ---      ---       #1088
      00FFC8A1H   LINE      ---      ---       #1089
      WR4         REGSYM    ---      INT       rfBand
      ---         BLOCKEND  ---      ---       LVL=0

      00FFA740H   BLOCK     CODE     ---       LVL=0
      00FFA740H   LINE      ---      ---       #1091
      00FFA742H   LINE      ---      ---       #1092
      00FFA742H   BLOCK     CODE     NEAR LAB  LVL=1
      00FFA742H   LINE      ---      ---       #1098
      00FFA74DH   LINE      ---      ---       #1108
      00FFA759H   LINE      ---      ---       #1109
      00FFA764H   LINE      ---      ---       #1110
      00FFA77BH   LINE      ---      ---       #1111
      00FFA796H   LINE      ---      ---       #1112
      00FFA7A7H   LINE      ---      ---       #1113
      00FFA7B0H   LINE      ---      ---       #1116
      R15         REGSYM    ---      BYTE      bandSel
      ---         BLOCKEND  CODE     ---       LVL=1
      00FFA7BBH   LINE      ---      ---       #1128
      00FFA7BBH   LINE      CODE     ---       #1128

      00FFC8A2H   BLOCK     CODE     ---       LVL=0
      00FFC8A2H   LINE      ---      ---       #1130
      00FFC8A2H   LINE      ---      ---       #1133
      00FFC8AEH   LINE      ---      ---       #1134
      00FFC8BAH   LINE      ---      ---       #1135
      00FFC8BFH   LINE      ---      ---       #1136
      ---         BLOCKEND  ---      ---       LVL=0
L251 LINKER/LOCATER V4.66.93.0                                                        02/16/2024  15:12:23  PAGE 204



      ---         MODULE    ---      ---       hal_rt569mp_rf
      00FFB3B9H   PUBLIC    CODE     ---       HALRF_PllCfg
      00FFBDD8H   PUBLIC    CODE     ---       HALRF_Freq2gCfg
      00FFC8C0H   PUBLIC    CODE     ---       HALRF_FreqSubgCfg
      00FFCA75H   PUBLIC    CODE     ---       HALRF_AgcInit
      00FFCAE0H   PUBLIC    CODE     ---       HALRF_TemperatureMeasure
      00FFCAE1H   PUBLIC    CODE     ---       HALRF_VoltageMeasure
      00FFAC75H   PUBLIC    CODE     ---       HALRF_TxPwrSet2Hw
      00FFA692H   PUBLIC    CODE     ---       HALRF_TxPwrCompSet2Hw
      00FF8D9EH   PUBLIC    CODE     ---       HALRF_AgcSet2Hw
      00FFCAE2H   PUBLIC    CODE     ---       HALRF_ExtFemInit
      00FFBF02H   PUBLIC    CODE     ---       HALRF_IfCheck
      00FFBE98H   PUBLIC    CODE     ---       HALRF_Freq2gCal
      00FFACB7H   PUBLIC    CODE     ---       HALRF_TxGainTableCfg
      00FF130BH   PUBLIC    HCONST   ---       pllFreqBandTab
      0000B5A5H   PUBLIC    EDATA    BYTE      ?HALRF_IfCheck?BYTE

      00FFBF02H   BLOCK     CODE     ---       LVL=0
      00FFBF02H   LINE      ---      ---       #93
      00FFBF06H   LINE      ---      ---       #120
      00FFBF13H   LINE      ---      ---       #123
      00FFBF13H   LINE      ---      ---       #124
      00FFBF18H   LINE      ---      ---       #125
      00FFBF27H   LINE      ---      ---       #126
      00FFBF32H   LINE      ---      ---       #127
      00FFBF51H   LINE      ---      ---       #129
      00FFBF5AH   LINE      ---      ---       #133
      00FFBF5BH   LINE      ---      ---       #136
      00FFBF5BH   LINE      ---      ---       #137
      00FFBF60H   LINE      ---      ---       #138
      00FFBF6FH   LINE      ---      ---       #139
      00FFBF7AH   LINE      ---      ---       #140
      00FFBF99H   LINE      ---      ---       #144
      00FFBF9DH   LINE      ---      ---       #146
      00FFBF9EH   LINE      ---      ---       #148
      00FFBF9EH   LINE      ---      ---       #149
      WR6         REGSYM    ---      INT       dataBw
      REG=2       REGSYM    ---      ---       pIfNum
      REG=15      REGSYM    ---      ---       pIfTab
      REG=4       REGSYM    ---      ---       pPllCfgRet
      0000B5ADH   SYMBOL    EDATA    ---       pIfIdx
      0000B5AFH   SYMBOL    EDATA    ---       pIfIdxZero
      ---         BLOCKEND  ---      ---       LVL=0

      00FFBE98H   BLOCK     CODE     ---       LVL=0
      00FFBE98H   LINE      ---      ---       #156
      00FFBE98H   LINE      ---      ---       #161
      WR6         REGSYM    ---      WORD      freq
      WR4         REGSYM    ---      WORD      ifVal
      REG=1       REGSYM    ---      ---       pPllCfgRet
      00FFBE98H   BLOCK     CODE     NEAR LAB  LVL=1
      00FFBE98H   LINE      ---      ---       #165
      00FFBEA0H   LINE      ---      ---       #177
      00FFBEAAH   LINE      ---      ---       #178
      00FFBEACH   LINE      ---      ---       #179
      00FFBEBEH   LINE      ---      ---       #180
      00FFBED0H   LINE      ---      ---       #181
      00FFBEE7H   LINE      ---      ---       #182
      00FFBEF8H   LINE      ---      ---       #183
      00FFBEFDH   LINE      ---      ---       #184
      DR4         REGSYM    ---      DWORD     freqTarget
      ---         BLOCKEND  CODE     ---       LVL=1
      00FFBF01H   LINE      ---      ---       #185
      00FFBF01H   LINE      CODE     ---       #185
L251 LINKER/LOCATER V4.66.93.0                                                        02/16/2024  15:12:23  PAGE 205



      00FFB3B9H   BLOCK     CODE     ---       LVL=0
      00FFB3B9H   LINE      ---      ---       #191
      00FFB3BBH   LINE      ---      ---       #196
      00FFB3D1H   LINE      ---      ---       #197
      00FFB3E9H   LINE      ---      ---       #198
      00FFB3FBH   LINE      ---      ---       #199
      00FFB411H   LINE      ---      ---       #200
      00FFB427H   LINE      ---      ---       #208
      REG=1       REGSYM    ---      ---       pPllCfg
      ---         BLOCKEND  ---      ---       LVL=0

      00FFBDD8H   BLOCK     CODE     ---       LVL=0
      00FFBDD8H   LINE      ---      ---       #211
      00FFBDDEH   LINE      ---      ---       #216
      WR14        REGSYM    ---      WORD      freq
      WR4         REGSYM    ---      INT       dataBw
      WR12        REGSYM    ---      INT       mode
      00FFBDDEH   BLOCK     CODE     NEAR LAB  LVL=1
      00FFBDDEH   LINE      ---      ---       #221
      00FFBDE6H   LINE      ---      ---       #225
      00FFBE06H   LINE      ---      ---       #228
      00FFBE16H   LINE      ---      ---       #232
      00FFBE18H   LINE      ---      ---       #236
      00FFBE2AH   LINE      ---      ---       #238
      00FFBE2AH   LINE      ---      ---       #245
      00FFBE2AH   LINE      ---      ---       #251
      00FFBE2AH   LINE      ---      ---       #254
      00FFBE4DH   LINE      ---      ---       #258
      00FFBE4FH   LINE      ---      ---       #260
      00FFBE4FH   LINE      ---      ---       #262
      00FFBE52H   LINE      ---      ---       #265
      00FFBE6CH   LINE      ---      ---       #269
      00FFBE76H   LINE      ---      ---       #270
      00FFBE82H   LINE      ---      ---       #271
      00FFBE95H   LINE      ---      ---       #272
      00FFBE95H   LINE      ---      ---       #273
      0000B4FEH   SYMBOL    EDATA    ---       pIfTab
      0000B502H   SYMBOL    EDATA    BYTE      ifNum
      0000B503H   SYMBOL    EDATA    BYTE      ifIdx
      0000B504H   SYMBOL    EDATA    BYTE      ifZeroIdx
      0000B505H   SYMBOL    EDATA    ---       pPllCfgRet
      0000B507H   SYMBOL    EDATA    BYTE      ifBitShift
      ---         BLOCKEND  CODE     ---       LVL=1
      00FFBE95H   LINE      ---      ---       #274
      00FFBE95H   LINE      CODE     ---       #274

      00FFC8C0H   BLOCK     CODE     ---       LVL=0
      00FFC8C0H   LINE      ---      ---       #278
      00FFC8C4H   LINE      ---      ---       #281
      DR12        REGSYM    ---      DWORD     freq
      00FFC8C4H   BLOCK     CODE     NEAR LAB  LVL=1
      00FFC8C4H   LINE      ---      ---       #286
      00FFC8CCH   LINE      ---      ---       #289
      00FFC8EDH   LINE      ---      ---       #292
      00FFC8F9H   LINE      ---      ---       #294
      00FFC8FCH   LINE      ---      ---       #297
      00FFC909H   LINE      ---      ---       #298
      00FFC92CH   LINE      ---      ---       #302
      00FFC932H   LINE      ---      ---       #303
      00FFC93EH   LINE      ---      ---       #305
      00FFC94CH   LINE      ---      ---       #306
      00FFC962H   LINE      ---      ---       #309
      00FFC967H   LINE      ---      ---       #312
      00FFC98AH   LINE      ---      ---       #313
L251 LINKER/LOCATER V4.66.93.0                                                        02/16/2024  15:12:23  PAGE 206


      00FFC98AH   LINE      ---      ---       #316
      00FFC996H   LINE      ---      ---       #317
      00FFC9A4H   LINE      ---      ---       #318
      00FFC9A6H   LINE      ---      ---       #319
      00FFC9B6H   LINE      ---      ---       #322
      00FFC9B9H   LINE      ---      ---       #323
      00FFC9B9H   LINE      ---      ---       #327
      00FFC9C3H   LINE      ---      ---       #328
      00FFC9DEH   LINE      ---      ---       #330
      00FFC9FBH   LINE      ---      ---       #331
      00FFCA0AH   LINE      ---      ---       #334
      00FFCA12H   LINE      ---      ---       #335
      00FFCA28H   LINE      ---      ---       #336
      00FFCA3AH   LINE      ---      ---       #337
      00FFCA47H   LINE      ---      ---       #340
      00FFCA51H   LINE      ---      ---       #341
      00FFCA5DH   LINE      ---      ---       #342
      00FFC9B9H   SYMBOL    CODE     NEAR LAB  DONE?440?hal_rt569mp_rf
      0000B39AH   SYMBOL    EDATA    ---       pIfTab
      0000B39EH   SYMBOL    EDATA    BYTE      ifNum
      0000B39FH   SYMBOL    EDATA    BYTE      ifIdx
      0000B3A0H   SYMBOL    EDATA    BYTE      ifZeroIdx
      0000B3A1H   SYMBOL    EDATA    BYTE      bandIdx
      0000B3A2H   SYMBOL    EDATA    ---       pPllCfgRet
      0000B3A4H   SYMBOL    EDATA    DWORD     freqTarget
      0000B3A8H   SYMBOL    EDATA    DWORD     absTrxIf
      0000B3ACH   SYMBOL    EDATA    BYTE      ifBitShift
      00FFC9D1H   SYMBOL    CODE     NEAR LAB  DONE?440
      ---         BLOCKEND  CODE     ---       LVL=1
      00FFCA72H   LINE      ---      ---       #343
      00FFCA72H   LINE      CODE     ---       #343

      00FFCA75H   BLOCK     CODE     ---       LVL=0
      00FFCA75H   LINE      ---      ---       #346
      00FFCA77H   LINE      ---      ---       #431
      00FFCA85H   LINE      ---      ---       #433
      00FFCA89H   LINE      ---      ---       #435
      00FFCA92H   LINE      ---      ---       #436
      00FFCAA0H   LINE      ---      ---       #437
      00FFCAA5H   LINE      ---      ---       #438
      00FFCAB1H   LINE      ---      ---       #439
      00FFCABAH   LINE      ---      ---       #440
      00FFCAC1H   LINE      ---      ---       #441
      00FFCACCH   LINE      ---      ---       #442
      00FFCAD8H   LINE      ---      ---       #443
      00FFCADFH   LINE      ---      ---       #444
      WR4         REGSYM    ---      INT       clkMode
      ---         BLOCKEND  ---      ---       LVL=0

      00FFCAE0H   BLOCK     CODE     ---       LVL=0
      00FFCAE0H   LINE      ---      ---       #562
      00FFCAE0H   LINE      ---      ---       #565
      ---         BLOCKEND  ---      ---       LVL=0

      00FFCAE1H   BLOCK     CODE     ---       LVL=0
      00FFCAE1H   LINE      ---      ---       #567
      00FFCAE1H   LINE      ---      ---       #570
      ---         BLOCKEND  ---      ---       LVL=0

      00FFACB7H   BLOCK     CODE     ---       LVL=0
      00FFACB7H   LINE      ---      ---       #573
      00FFACB9H   LINE      ---      ---       #576
      WR4         REGSYM    ---      INT       gainTabIdx
      00FFACB9H   BLOCK     CODE     NEAR LAB  LVL=1
      00FFACB9H   LINE      ---      ---       #577
L251 LINKER/LOCATER V4.66.93.0                                                        02/16/2024  15:12:23  PAGE 207


      00FFACBFH   LINE      ---      ---       #579
      00FFACD5H   LINE      ---      ---       #582
      00FFACD5H   LINE      ---      ---       #584
      00FFACDBH   LINE      ---      ---       #586
      00FFACDFH   LINE      ---      ---       #587
      00FFACDFH   LINE      ---      ---       #588
      00FFACFEH   LINE      ---      ---       #592
      00FFAD00H   LINE      ---      ---       #596
      00FFAD00H   LINE      ---      ---       #597
      00FFAD00H   LINE      ---      ---       #598
      00FFAD00H   LINE      ---      ---       #599
      00FFAD00H   LINE      ---      ---       #600
      00FFAD20H   LINE      ---      ---       #601
      00FFAD20H   LINE      ---      ---       #602
      00FFAD20H   LINE      ---      ---       #604
      WR6         REGSYM    ---      INT       rfkBand
      ---         BLOCKEND  CODE     ---       LVL=1
      00FFAD20H   LINE      ---      ---       #605
      00FFAD20H   LINE      CODE     ---       #605

      00FFAC75H   BLOCK     CODE     ---       LVL=0
      00FFAC75H   LINE      ---      ---       #608
      00FFAC75H   LINE      ---      ---       #609
      00FFAC75H   BLOCK     CODE     NEAR LAB  LVL=1
      00FFAC75H   LINE      ---      ---       #610
      00FFAC8DH   LINE      ---      ---       #613
      00FFAC93H   LINE      ---      ---       #615
      00FFAC9EH   LINE      ---      ---       #617
      00FFACA2H   LINE      ---      ---       #619
      00FFACA4H   LINE      ---      ---       #622
      00FFACAFH   LINE      ---      ---       #624
      REG=3       REGSYM    ---      ---       pTxPwrCtrl
      ---         BLOCKEND  CODE     ---       LVL=1
      ---         BLOCKEND  CODE     ---       LVL=0

      00FFA692H   BLOCK     CODE     ---       LVL=0
      00FFA692H   LINE      ---      ---       #633
      00FFA694H   LINE      ---      ---       #634
      00FFA694H   BLOCK     CODE     NEAR LAB  LVL=1
      00FFA694H   LINE      ---      ---       #636
      00FFA6A1H   LINE      ---      ---       #640
      00FFA6A5H   LINE      ---      ---       #641
      00FFA6A5H   LINE      ---      ---       #644
      00FFA6ABH   LINE      ---      ---       #646
      00FFA6B8H   LINE      ---      ---       #647
      00FFA6CAH   LINE      ---      ---       #648
      00FFA6DDH   LINE      ---      ---       #649
      REG=7       REGSYM    ---      ---       pTxPwrCtrl
      ---         BLOCKEND  CODE     ---       LVL=1
      ---         BLOCKEND  CODE     ---       LVL=0

      00FF8D9EH   BLOCK     CODE     ---       LVL=0
      00FF8D9EH   LINE      ---      ---       #653
      00FF8D9EH   LINE      ---      ---       #654
      00FF8D9EH   BLOCK     CODE     NEAR LAB  LVL=1
      00FF8D9EH   LINE      ---      ---       #671
      00FF8DA4H   LINE      ---      ---       #673
      00FF8DC5H   LINE      ---      ---       #677
      00FF8DD6H   LINE      ---      ---       #678
      00FF8DEEH   LINE      ---      ---       #679
      00FF8DF1H   LINE      ---      ---       #680
      00FF8E00H   LINE      ---      ---       #681
      00FF8E0FH   LINE      ---      ---       #683
      00FF8E1DH   LINE      ---      ---       #686
      00FF8E1FH   LINE      ---      ---       #688
L251 LINKER/LOCATER V4.66.93.0                                                        02/16/2024  15:12:23  PAGE 208


      00FF8E26H   LINE      ---      ---       #689
      00FF8E31H   LINE      ---      ---       #700
      WR6         REGSYM    ---      INT       type
      ---         BLOCKEND  CODE     ---       LVL=1
      00FF8E31H   LINE      ---      ---       #701
      00FF8E31H   LINE      CODE     ---       #701

      00FFCAE2H   BLOCK     CODE     ---       LVL=0
      00FFCAE2H   LINE      ---      ---       #703
      00FFCAE2H   LINE      ---      ---       #706
      ---         BLOCKEND  ---      ---       LVL=0

      ---         MODULE    ---      ---       hal_rt569mp_tcon
      00FFCAE3H   PUBLIC    CODE     ---       HALTCON_Init
      00FFCC0DH   PUBLIC    CODE     ---       HALTCON_PreTxTimeSet
      00FFB05DH   PUBLIC    CODE     ---       HALTCON_TxTailDelayGet
      00FFB0C0H   PUBLIC    CODE     ---       HALTCON_RxTailDelayGet

      00FFCAE3H   BLOCK     CODE     ---       LVL=0
      00FFCAE3H   LINE      ---      ---       #25
      00FFCAE3H   LINE      ---      ---       #28
      00FFCAE3H   BLOCK     CODE     NEAR LAB  LVL=1
      00FFCAE3H   LINE      ---      ---       #32
      00FFCAE3H   LINE      ---      ---       #45
      00FFCAE7H   LINE      ---      ---       #48
      00FFCAF1H   LINE      ---      ---       #50
      00FFCAF1H   LINE      ---      ---       #52
      00FFCAF1H   LINE      ---      ---       #53
      00FFCAF9H   LINE      ---      ---       #54
      00FFCAFDH   LINE      ---      ---       #55
      00FFCB01H   LINE      ---      ---       #56
      00FFCB05H   LINE      ---      ---       #57
      00FFCB09H   LINE      ---      ---       #58
      00FFCB0BH   LINE      ---      ---       #62
      00FFCB0BH   LINE      ---      ---       #63
      00FFCB13H   LINE      ---      ---       #64
      00FFCB17H   LINE      ---      ---       #65
      00FFCB1BH   LINE      ---      ---       #66
      00FFCB1FH   LINE      ---      ---       #67
      00FFCB23H   LINE      ---      ---       #68
      00FFCB23H   LINE      ---      ---       #70
      00FFCB23H   LINE      ---      ---       #73
      00FFCB2BH   LINE      ---      ---       #74
      00FFCB3FH   LINE      ---      ---       #75
      00FFCB4BH   LINE      ---      ---       #76
      00FFCB54H   LINE      ---      ---       #77
      00FFCB72H   LINE      ---      ---       #78
      00FFCB8EH   LINE      ---      ---       #81
      00FFCB99H   LINE      ---      ---       #82
      00FFCBA2H   LINE      ---      ---       #83
      00FFCBAEH   LINE      ---      ---       #84
      00FFCBB7H   LINE      ---      ---       #85
      00FFCBC2H   LINE      ---      ---       #86
      00FFCBC9H   LINE      ---      ---       #87
      00FFCBD0H   LINE      ---      ---       #90
      00FFCBD7H   LINE      ---      ---       #91
      00FFCBDEH   LINE      ---      ---       #92
      00FFCBF2H   LINE      ---      ---       #95
      00FFCBF9H   LINE      ---      ---       #96
      00FFCC00H   LINE      ---      ---       #99
      00FFCC0CH   LINE      ---      ---       #102
      R10         REGSYM    ---      BYTE      unitShift
      WR4         REGSYM    ---      WORD      txDelayTime
      WR2         REGSYM    ---      WORD      pllLockTime
      WR26        REGSYM    ---      WORD      paOnTime
L251 LINKER/LOCATER V4.66.93.0                                                        02/16/2024  15:12:23  PAGE 209


      WR0         REGSYM    ---      WORD      txOnTime
      WR28        REGSYM    ---      WORD      paOffTime
      WR30        REGSYM    ---      WORD      rxOnTime
      ---         BLOCKEND  CODE     ---       LVL=1
      00FFCC0CH   LINE      ---      ---       #103
      00FFCC0CH   LINE      CODE     ---       #103

      00FFCC0DH   BLOCK     CODE     ---       LVL=0
      00FFCC0DH   LINE      ---      ---       #105
      00FFCC0FH   LINE      ---      ---       #108
      WR2         REGSYM    ---      INT       dataBwIdx
      00FFCC0FH   BLOCK     CODE     NEAR LAB  LVL=1
      00FFCC0FH   LINE      ---      ---       #123
      00FFCC19H   LINE      ---      ---       #125
      00FFCC19H   LINE      ---      ---       #127
      00FFCC19H   LINE      ---      ---       #128
      00FFCC21H   LINE      ---      ---       #129
      00FFCC23H   LINE      ---      ---       #133
      00FFCC23H   LINE      ---      ---       #134
      00FFCC2BH   LINE      ---      ---       #135
      00FFCC2BH   LINE      ---      ---       #137
      00FFCC2BH   LINE      ---      ---       #140
      00FFCC2FH   LINE      ---      ---       #148
      00FFCC46H   LINE      ---      ---       #151
      00FFCC4AH   LINE      ---      ---       #152
      00FFCC58H   LINE      ---      ---       #154
      00FFCC61H   LINE      ---      ---       #157
      R11         REGSYM    ---      BYTE      unitShift
      WR4         REGSYM    ---      WORD      mdmTxDelayTime
      WR8         REGSYM    ---      WORD      pllLockTime
      ---         BLOCKEND  CODE     ---       LVL=1
      00FFCC61H   LINE      ---      ---       #158
      00FFCC61H   LINE      CODE     ---       #158

      00FFB05DH   BLOCK     CODE     ---       LVL=0
      00FFB05DH   LINE      ---      ---       #160
      00FFB05DH   LINE      ---      ---       #163
      WR6         REGSYM    ---      INT       dataBw
      00FFB05DH   BLOCK     CODE     NEAR LAB  LVL=1
      00FFB05DH   LINE      ---      ---       #167
      00FFB075H   LINE      ---      ---       #184
      00FFB086H   LINE      ---      ---       #187
      R11         REGSYM    ---      BYTE      delayTime
      ---         BLOCKEND  CODE     ---       LVL=1
      00FFB086H   LINE      ---      ---       #188
      00FFB086H   LINE      CODE     ---       #188

      00FFB0BCH   BLOCK     CODE     ---       LVL=0
      00FFB0C0H   LINE      ---      ---       #190
      00FFB0C0H   LINE      ---      ---       #193
      00FFB0BCH   SYMBOL    CODE     NEAR LAB  ?L?COM0043
      WR6         REGSYM    ---      INT       dataBw
      00FFB0C0H   BLOCK     CODE     NEAR LAB  LVL=1
      00FFB0C0H   LINE      ---      ---       #196
      00FFB0C9H   LINE      ---      ---       #198
      00FFB0C9H   LINE      ---      ---       #200
      00FFB0C9H   LINE      ---      ---       #201
      00FFB0E1H   LINE      ---      ---       #205
      00FFB0E3H   LINE      ---      ---       #208
      00FFB0E3H   LINE      ---      ---       #209
      00FFB0FBH   LINE      ---      ---       #210
      00FFB0FBH   LINE      ---      ---       #218
      00FFB0FBH   LINE      ---      ---       #221
      00FFB106H   LINE      ---      ---       #224
      R9          REGSYM    ---      BYTE      delayTime
L251 LINKER/LOCATER V4.66.93.0                                                        02/16/2024  15:12:23  PAGE 210


      ---         BLOCKEND  CODE     ---       LVL=1
      00FFB108H   LINE      ---      ---       #225
      00FFB108H   LINE      CODE     ---       #225

      ---         MODULE    ---      ---       hal_rt569mp_para
      00FF01E2H   PUBLIC    HCONST   ---       rfConfig
      00FF02B2H   PUBLIC    HCONST   ---       pmuConfig
      00FF039AH   PUBLIC    HCONST   ---       rfTabSideBnadK
      00FF074BH   PUBLIC    HCONST   ---       phyConfig

      ---         MODULE    ---      ---       hal_rt569mp_pmu
      00FFCC62H   PUBLIC    CODE     ---       HALPMU_PwrModeSet
      00FFCC8FH   PUBLIC    CODE     ---       HALPMU_PwrModeGet

      00FFCC62H   BLOCK     CODE     ---       LVL=0
      00FFCC62H   LINE      ---      ---       #23
      00FFCC64H   LINE      ---      ---       #27
      00FFCC70H   LINE      ---      ---       #28
      00FFCC75H   LINE      ---      ---       #29
      00FFCC7BH   LINE      ---      ---       #30
      00FFCC82H   LINE      ---      ---       #31
      00FFCC86H   LINE      ---      ---       #32
      00FFCC8EH   LINE      ---      ---       #35
      WR4         REGSYM    ---      INT       pwrMode
      ---         BLOCKEND  ---      ---       LVL=0

      00FFCC8FH   BLOCK     CODE     ---       LVL=0
      00FFCC8FH   LINE      ---      ---       #37
      00FFCC8FH   LINE      ---      ---       #39
      00FFCC9CH   LINE      ---      ---       #40
      00FFCCA1H   LINE      ---      ---       #41
      00FFCCA4H   LINE      ---      ---       #42
      00FFCCA7H   LINE      ---      ---       #44
      00FFCCABH   LINE      ---      ---       #45
      ---         BLOCKEND  ---      ---       LVL=0

      ---         MODULE    ---      ---       Ruci
      00FF4008H   PUBLIC    CODE     ---       RUCI_endianConvert
      0000B3EDH   PUBLIC    EDATA    BYTE      ?RUCI_endianConvert?BYTE

      00FF3FFEH   BLOCK     CODE     ---       LVL=0
      00FF4008H   LINE      ---      ---       #23
      00FF400CH   LINE      ---      ---       #29
      00FF3FFEH   SYMBOL    CODE     NEAR LAB  ?L?COM0030
      REG=3       REGSYM    ---      ---       pDataIn
      R15         REGSYM    ---      BYTE      paraNum
      REG=0       REGSYM    ---      ---       pTypeMapIn
      0000B3F4H   SYMBOL    EDATA    ---       pElemNumMapIn
      00FF400CH   BLOCK     CODE     NEAR LAB  LVL=1
      00FF400CH   LINE      ---      ---       #37
      00FF400EH   LINE      ---      ---       #38
      00FF4012H   LINE      ---      ---       #39
      00FF401AH   LINE      ---      ---       #41
      00FF401EH   LINE      ---      ---       #43
      00FF4033H   LINE      ---      ---       #45
      00FF4033H   LINE      ---      ---       #48
      00FF4036H   LINE      ---      ---       #57
      00FF403DH   LINE      ---      ---       #58
      00FF4045H   LINE      ---      ---       #59
      00FF404DH   LINE      ---      ---       #60
      00FF4055H   LINE      ---      ---       #61
      00FF4058H   LINE      ---      ---       #62
      00FF4060H   LINE      ---      ---       #63
      00FF4068H   LINE      ---      ---       #64
      00FF4070H   LINE      ---      ---       #66
L251 LINKER/LOCATER V4.66.93.0                                                        02/16/2024  15:12:23  PAGE 211


      00FF4072H   LINE      ---      ---       #67
      00FF4088H   LINE      ---      ---       #68
      00FF408AH   LINE      ---      ---       #70
      00FF408AH   LINE      ---      ---       #72
      00FF4091H   LINE      ---      ---       #74
      00FF4093H   LINE      ---      ---       #75
      00FF40A1H   LINE      ---      ---       #76
      00FF40A3H   LINE      ---      ---       #77
      00FF40B9H   LINE      ---      ---       #78
      00FF40BBH   LINE      ---      ---       #80
      00FF40BBH   LINE      ---      ---       #82
      00FF40C6H   LINE      ---      ---       #83
      00FF40C8H   LINE      ---      ---       #85
      00FF40C8H   LINE      ---      ---       #86
      00FF40CBH   LINE      ---      ---       #87
      00FF40CBH   LINE      ---      ---       #88
      00FF40CBH   LINE      ---      ---       #90
      00FF40D5H   LINE      ---      ---       #91
      00FF40DFH   LINE      ---      ---       #92
      R14         REGSYM    ---      BYTE      paraIdx
      0000B3F8H   SYMBOL    EDATA    BYTE      elemIdx
      0000B3F9H   SYMBOL    EDATA    ---       pDwTemp
      REG=3       REGSYM    ---      ---       pWTemp
      REG=6       REGSYM    ---      ---       pData
      0000B3FDH   SYMBOL    EDATA    ---       pTypeMap
      0000B401H   SYMBOL    EDATA    ---       pElemNumMap
      ---         BLOCKEND  CODE     ---       LVL=1
      00FF40E7H   LINE      ---      ---       #93
      00FF40E7H   LINE      CODE     ---       #93

      ---         MODULE    ---      ---       Ruci_Pci15p4MacCmd
      00FF1238H   PUBLIC    HCONST   ---       Ruci_ElmtType_Set15p4AddressFilter
      00FF1240H   PUBLIC    HCONST   ---       Ruci_ElmtNum_Set15p4AddressFilter
      00FF1248H   PUBLIC    HCONST   ---       Ruci_ElmtType_Set15p4MacPib
      00FF1252H   PUBLIC    HCONST   ---       Ruci_ElmtNum_Set15p4MacPib
      00FF125CH   PUBLIC    HCONST   ---       Ruci_ElmtType_Set15p4PhyPib
      00FF1263H   PUBLIC    HCONST   ---       Ruci_ElmtNum_Set15p4PhyPib
      00FF126AH   PUBLIC    HCONST   ---       Ruci_ElmtType_SetCslReceiverCtrl
      00FF126FH   PUBLIC    HCONST   ---       Ruci_ElmtNum_SetCslReceiverCtrl
      00FF1274H   PUBLIC    HCONST   ---       Ruci_ElmtType_UpdateCslSampleTime
      00FF1278H   PUBLIC    HCONST   ---       Ruci_ElmtNum_UpdateCslSampleTime

      ---         MODULE    ---      ---       Ruci_PciBleCmd
      00FF127CH   PUBLIC    HCONST   ---       Ruci_ElmtType_SetBleMac
      00FF1283H   PUBLIC    HCONST   ---       Ruci_ElmtNum_SetBleMac
      00FF128AH   PUBLIC    HCONST   ---       Ruci_ElmtType_SetHtrpPara
      00FF1298H   PUBLIC    HCONST   ---       Ruci_ElmtNum_SetHtrpPara

      ---         MODULE    ---      ---       Ruci_PciCommonCmd
      00FF1147H   PUBLIC    HCONST   ---       Ruci_ElmtType_SetRfFrequency
      00FF114BH   PUBLIC    HCONST   ---       Ruci_ElmtNum_SetRfFrequency
      00FF114FH   PUBLIC    HCONST   ---       Ruci_ElmtType_SetWakeOnRadio
      00FF1155H   PUBLIC    HCONST   ---       Ruci_ElmtNum_SetWakeOnRadio
      00FF115BH   PUBLIC    HCONST   ---       Ruci_ElmtType_SetRxEnable
      00FF115FH   PUBLIC    HCONST   ---       Ruci_ElmtNum_SetRxEnable
      00FF1163H   PUBLIC    HCONST   ---       Ruci_ElmtType_SetDutyCycle
      00FF1168H   PUBLIC    HCONST   ---       Ruci_ElmtNum_SetDutyCycle
      00FF116DH   PUBLIC    HCONST   ---       Ruci_ElmtType_SetRfeTxEnable
      00FF117BH   PUBLIC    HCONST   ---       Ruci_ElmtNum_SetRfeTxEnable
      00FF1189H   PUBLIC    HCONST   ---       Ruci_ElmtType_SetRfeRxEnable
      00FF1196H   PUBLIC    HCONST   ---       Ruci_ElmtNum_SetRfeRxEnable

      ---         MODULE    ---      ---       Ruci_PciData
      00FF1323H   PUBLIC    HCONST   ---       Ruci_ElmtType_SetTxControlField
      00FF1328H   PUBLIC    HCONST   ---       Ruci_ElmtNum_SetTxControlField
L251 LINKER/LOCATER V4.66.93.0                                                        02/16/2024  15:12:23  PAGE 212


      00FF132DH   PUBLIC    HCONST   ---       Ruci_ElmtType_RxControlField
      00FF1333H   PUBLIC    HCONST   ---       Ruci_ElmtNum_RxControlField

      ---         MODULE    ---      ---       Ruci_PciEvent
      00FF1339H   PUBLIC    HCONST   ---       Ruci_ElmtType_GetRegEvent
      00FF133DH   PUBLIC    HCONST   ---       Ruci_ElmtNum_GetRegEvent
      00FF1341H   PUBLIC    HCONST   ---       Ruci_ElmtType_GetCrcReportEvent
      00FF1346H   PUBLIC    HCONST   ---       Ruci_ElmtNum_GetCrcReportEvent

      ---         MODULE    ---      ---       Ruci_PciFskCmd
      00FF135BH   PUBLIC    HCONST   ---       Ruci_ElmtType_SetFskSfd
      00FF135FH   PUBLIC    HCONST   ---       Ruci_ElmtNum_SetFskSfd

      ---         MODULE    ---      ---       Ruci_PciOqpskCmd

      ---         MODULE    ---      ---       Ruci_PciSlinkCmd

      ---         MODULE    ---      ---       Ruci_CmnEvent
      00FF12CDH   PUBLIC    HCONST   ---       Ruci_ElmtType_GetFwVerEvent
      00FF12D5H   PUBLIC    HCONST   ---       Ruci_ElmtNum_GetFwVerEvent
      00FF12DDH   PUBLIC    HCONST   ---       Ruci_ElmtType_GetTemperatureRptEvent
      00FF12E2H   PUBLIC    HCONST   ---       Ruci_ElmtNum_GetTemperatureRptEvent
      00FF12E7H   PUBLIC    HCONST   ---       Ruci_ElmtType_GetVoltageRptEvent
      00FF12ECH   PUBLIC    HCONST   ---       Ruci_ElmtNum_GetVoltageRptEvent

      ---         MODULE    ---      ---       Ruci_CmnHalCmd
      00FF12F1H   PUBLIC    HCONST   ---       Ruci_ElmtType_SetPmuMpkSetting
      00FF12FEH   PUBLIC    HCONST   ---       Ruci_ElmtNum_SetPmuMpkSetting

      ---         MODULE    ---      ---       Ruci_CmnSysCmd

      ---         MODULE    ---      ---       ?C?INITEDATA
      00FF0123H   PUBLIC    CODE     ---       ?C?INITEDATA

      ---         MODULE    ---      ---       ?C?SIDIV
      00FF000EH   PUBLIC    CODE     ---       ?C?SIDIV

      ---         MODULE    ---      ---       ?C?LMUL
      00FF0040H   PUBLIC    CODE     ---       ?C?LMUL

      ---         MODULE    ---      ---       ?C?LIMUL
      00FF0051H   PUBLIC    CODE     ---       ?C?LIMUL

      ---         MODULE    ---      ---       ?C?ULDIV
      00FF005CH   PUBLIC    CODE     NEAR LAB  ?C?ULDIV
      00FF005AH   PUBLIC    CODE     NEAR LAB  ?C?ULIDIV

      ---         MODULE    ---      ---       memcpy
      00FF0190H   PUBLIC    CODE     ---       memcpy?_

      ---         MODULE    ---      ---       memset
      00FF01CEH   PUBLIC    CODE     ---       memset?_

      ---         MODULE    ---      ---       hmemcpy
      00FF01AFH   PUBLIC    CODE     ---       hmemcpy?_

      ---         MODULE    ---      ---       ?C?INITEDATA_END
      00FF0F8FH   PUBLIC    HCONST   WORD      ?C?INITEDATA_END

      ---         MODULE    ---      ---       ?L?COMMON
      00FF9297H   LINE      ---      ---       #39
      00FF929BH   LINE      ---      ---       #40
      00FF929BH   LINE      ---      ---       #43
      00FF92A2H   LINE      ---      ---       #44
      00FF92A8H   LINE      ---      ---       #45
L251 LINKER/LOCATER V4.66.93.0                                                        02/16/2024  15:12:23  PAGE 213


      00FF92ACH   LINE      ---      ---       #46
      00FF92ACH   LINE      ---      ---       #47
      00FF92B6H   LINE      ---      ---       #48
      00FF92B8H   LINE      ---      ---       #50
      00FF92BBH   LINE      ---      ---       #51
      00FF92BDH   LINE      ---      ---       #53
      00FF92C7H   LINE      ---      ---       #54
      00FF92CFH   LINE      ---      ---       #55
      00FF92D6H   LINE      ---      ---       #59
      00FF92E2H   LINE      ---      ---       #60
      00FF92E4H   LINE      ---      ---       #61
      00FF92E4H   LINE      ---      ---       #62
      00FF92EDH   LINE      ---      ---       #65
      00FF92EFH   LINE      ---      ---       #66
      00FF92F9H   LINE      ---      ---       #67
      00FF9300H   LINE      ---      ---       #68
      00FF930BH   LINE      ---      ---       #69
      00FF932BH   LINE      ---      ---       #70
      00FF9336H   LINE      ---      ---       #71
      00FF9336H   LINE      ---      ---       #73
      00FF9337H   LINE      ---      ---       #75
      00FF4FA6H   SYMBOL    CODE     NEAR LAB  ?L?COM0006
      00FF4E12H   SYMBOL    CODE     NEAR LAB  ?L?COM0008
      00FF466DH   SYMBOL    CODE     NEAR LAB  ?L?COM000D
      00FFC4D0H   SYMBOL    CODE     NEAR LAB  ?L?COM0014
      00FF591AH   SYMBOL    CODE     NEAR LAB  ?L?COM0018
      00FF5FA4H   SYMBOL    CODE     NEAR LAB  ?L?COM001A
      00FFA6E0H   SYMBOL    CODE     NEAR LAB  ?L?COM001B
      00FF4149H   SYMBOL    CODE     NEAR LAB  ?L?COM001D
      00FF6FC4H   SYMBOL    CODE     NEAR LAB  ?L?COM001E
      00FFA702H   SYMBOL    CODE     NEAR LAB  ?L?COM0023
      00FF8E42H   SYMBOL    CODE     NEAR LAB  ?L?COM002A
      00FF8D92H   SYMBOL    CODE     NEAR LAB  ?L?COM0035
      00FF4FD4H   SYMBOL    CODE     NEAR LAB  ?L?COM0036
      00FFAD21H   SYMBOL    CODE     NEAR LAB  ?L?COM0037
      00FF1FE5H   SYMBOL    CODE     NEAR LAB  ?L?COM0038
      00FF1FAAH   SYMBOL    CODE     NEAR LAB  ?L?COM003C
      00FFADB9H   SYMBOL    CODE     NEAR LAB  ?L?COM003E
      00FF47F4H   SYMBOL    CODE     NEAR LAB  ?L?COM0044
      00FF1FEDH   SYMBOL    CODE     NEAR LAB  ?L?COM0046
      00FF37E0H   SYMBOL    CODE     NEAR LAB  ?L?COM004E

Program Size: data=16.0 edata+hdata=6383 xdata=0 const=4489 code=47907
L251 RUN COMPLETE.  0 WARNING(S),  0 ERROR(S)
